
picopts.elf:     file format elf32-littlearm

Sections:
Idx Name          Size      VMA       LMA       File off  Algn
  0 .boot2        00000100  10000000  10000000  00010000  2**0
                  CONTENTS, ALLOC, LOAD, READONLY, CODE
  1 .text         00007e70  10000100  10000100  00010100  2**3
                  CONTENTS, ALLOC, LOAD, READONLY, CODE
  2 .rodata       00000650  10007f70  10007f70  00017f70  2**3
                  CONTENTS, ALLOC, LOAD, READONLY, DATA
  3 .binary_info  0000002c  100085c0  100085c0  000185c0  2**2
                  CONTENTS, ALLOC, LOAD, DATA
  4 .ram_vector_table 000000c0  20000000  20000000  0002034c  2**2
                  CONTENTS
  5 .data         0000028c  200000c0  100085ec  000200c0  2**4
                  CONTENTS, ALLOC, LOAD, CODE
  6 .uninitialized_data 00000000  2000034c  2000034c  0002040c  2**0
                  CONTENTS
  7 .scratch_x    00000000  20040000  20040000  0002040c  2**0
                  CONTENTS
  8 .scratch_y    00000000  20041000  20041000  0002040c  2**0
                  CONTENTS
  9 .bss          00000f24  20000350  20000350  00020350  2**3
                  ALLOC
 10 .heap         00000800  20001274  20001274  0002040c  2**2
                  CONTENTS, READONLY
 11 .stack_dummy  00000800  20041000  20041000  00020c20  2**5
                  CONTENTS, READONLY
 12 .ARM.attributes 00000028  00000000  00000000  00021420  2**0
                  CONTENTS, READONLY
 13 .comment      000000ae  00000000  00000000  00021448  2**0
                  CONTENTS, READONLY
 14 .debug_line   00000225  00000000  00000000  000214f6  2**0
                  CONTENTS, READONLY, DEBUGGING
 15 .debug_info   0000092e  00000000  00000000  0002171b  2**0
                  CONTENTS, READONLY, DEBUGGING
 16 .debug_abbrev 000001e0  00000000  00000000  00022049  2**0
                  CONTENTS, READONLY, DEBUGGING
 17 .debug_aranges 00000060  00000000  00000000  00022230  2**3
                  CONTENTS, READONLY, DEBUGGING
 18 .debug_str    00000631  00000000  00000000  00022290  2**0
                  CONTENTS, READONLY, DEBUGGING
 19 .debug_loc    00000094  00000000  00000000  000228c1  2**0
                  CONTENTS, READONLY, DEBUGGING
 20 .debug_frame  00000028  00000000  00000000  00022958  2**2
                  CONTENTS, READONLY, DEBUGGING

picopts.elf:     file format elf32-littlearm


Disassembly of section .boot2:

10000000 <__boot2_start__>:
10000000:	4b0cb500 	.word	0x4b0cb500
10000004:	60992100 	.word	0x60992100
10000008:	61592102 	.word	0x61592102
1000000c:	6019490a 	.word	0x6019490a
10000010:	480b490a 	.word	0x480b490a
10000014:	21006001 	.word	0x21006001
10000018:	21016059 	.word	0x21016059
1000001c:	bc016099 	.word	0xbc016099
10000020:	d0002800 	.word	0xd0002800
10000024:	48074700 	.word	0x48074700
10000028:	60084907 	.word	0x60084907
1000002c:	f380c803 	.word	0xf380c803
10000030:	47088808 	.word	0x47088808
10000034:	18000000 	.word	0x18000000
10000038:	001f0300 	.word	0x001f0300
1000003c:	03000218 	.word	0x03000218
10000040:	180000f4 	.word	0x180000f4
10000044:	10000100 	.word	0x10000100
10000048:	e000ed08 	.word	0xe000ed08
	...
100000fc:	5d4c22ea 	.word	0x5d4c22ea

Disassembly of section .text:

10000100 <__logical_binary_start>:
10000100:	20042000 	.word	0x20042000
10000104:	100001f7 	.word	0x100001f7
10000108:	100001c3 	.word	0x100001c3
1000010c:	100001c5 	.word	0x100001c5
10000110:	100001c1 	.word	0x100001c1
10000114:	100001c1 	.word	0x100001c1
10000118:	100001c1 	.word	0x100001c1
1000011c:	100001c1 	.word	0x100001c1
10000120:	100001c1 	.word	0x100001c1
10000124:	100001c1 	.word	0x100001c1
10000128:	100001c1 	.word	0x100001c1
1000012c:	100001c7 	.word	0x100001c7
10000130:	100001c1 	.word	0x100001c1
10000134:	100001c1 	.word	0x100001c1
10000138:	100001c9 	.word	0x100001c9
1000013c:	100001cb 	.word	0x100001cb
10000140:	100001cd 	.word	0x100001cd
10000144:	100001cd 	.word	0x100001cd
10000148:	100001cd 	.word	0x100001cd
1000014c:	100001cd 	.word	0x100001cd
10000150:	100001cd 	.word	0x100001cd
10000154:	100001cd 	.word	0x100001cd
10000158:	100001cd 	.word	0x100001cd
1000015c:	100001cd 	.word	0x100001cd
10000160:	100001cd 	.word	0x100001cd
10000164:	100001cd 	.word	0x100001cd
10000168:	100001cd 	.word	0x100001cd
1000016c:	100001cd 	.word	0x100001cd
10000170:	100001cd 	.word	0x100001cd
10000174:	100001cd 	.word	0x100001cd
10000178:	100001cd 	.word	0x100001cd
1000017c:	100001cd 	.word	0x100001cd
10000180:	100001cd 	.word	0x100001cd
10000184:	100001cd 	.word	0x100001cd
10000188:	100001cd 	.word	0x100001cd
1000018c:	100001cd 	.word	0x100001cd
10000190:	100001cd 	.word	0x100001cd
10000194:	100001cd 	.word	0x100001cd
10000198:	100001cd 	.word	0x100001cd
1000019c:	100001cd 	.word	0x100001cd
100001a0:	100001cd 	.word	0x100001cd
100001a4:	100001cd 	.word	0x100001cd
100001a8:	100001cd 	.word	0x100001cd
100001ac:	100001cd 	.word	0x100001cd
100001b0:	100001cd 	.word	0x100001cd
100001b4:	100001cd 	.word	0x100001cd
100001b8:	100001cd 	.word	0x100001cd
100001bc:	100001cd 	.word	0x100001cd

100001c0 <isr_invalid>:
100001c0:	be00      	bkpt	0x0000

100001c2 <isr_nmi>:
100001c2:	be00      	bkpt	0x0000

100001c4 <isr_hardfault>:
100001c4:	be00      	bkpt	0x0000

100001c6 <isr_svcall>:
100001c6:	be00      	bkpt	0x0000

100001c8 <isr_pendsv>:
100001c8:	be00      	bkpt	0x0000

100001ca <isr_systick>:
100001ca:	be00      	bkpt	0x0000

100001cc <__unhandled_user_irq>:
100001cc:	f000 f84b 	bl	10000266 <__get_current_exception>
100001d0:	3810      	subs	r0, #16

100001d2 <unhandled_user_irq_num_in_r0>:
100001d2:	be00      	bkpt	0x0000

100001d4 <binary_info_header>:
100001d4:	7188ebf2 	.word	0x7188ebf2
100001d8:	100085c0 	.word	0x100085c0
100001dc:	100085ec 	.word	0x100085ec
100001e0:	10000234 	.word	0x10000234
100001e4:	e71aa390 	.word	0xe71aa390

100001e8 <_entry_point>:
100001e8:	2000      	movs	r0, #0
100001ea:	4921      	ldr	r1, [pc, #132]	; (10000270 <__get_current_exception+0xa>)
100001ec:	6008      	str	r0, [r1, #0]
100001ee:	c806      	ldmia	r0!, {r1, r2}
100001f0:	f381 8808 	msr	MSP, r1
100001f4:	4710      	bx	r2

100001f6 <_reset_handler>:
100001f6:	481f      	ldr	r0, [pc, #124]	; (10000274 <__get_current_exception+0xe>)
100001f8:	6800      	ldr	r0, [r0, #0]
100001fa:	2800      	cmp	r0, #0
100001fc:	d12f      	bne.n	1000025e <hold_non_core0_in_bootrom>
100001fe:	a40d      	add	r4, pc, #52	; (adr r4, 10000234 <data_cpy_table>)
10000200:	cc0e      	ldmia	r4!, {r1, r2, r3}
10000202:	2900      	cmp	r1, #0
10000204:	d002      	beq.n	1000020c <_reset_handler+0x16>
10000206:	f000 f812 	bl	1000022e <data_cpy>
1000020a:	e7f9      	b.n	10000200 <_reset_handler+0xa>
1000020c:	491a      	ldr	r1, [pc, #104]	; (10000278 <__get_current_exception+0x12>)
1000020e:	4a1b      	ldr	r2, [pc, #108]	; (1000027c <__get_current_exception+0x16>)
10000210:	2000      	movs	r0, #0
10000212:	e000      	b.n	10000216 <bss_fill_test>

10000214 <bss_fill_loop>:
10000214:	c101      	stmia	r1!, {r0}

10000216 <bss_fill_test>:
10000216:	4291      	cmp	r1, r2
10000218:	d1fc      	bne.n	10000214 <bss_fill_loop>

1000021a <platform_entry>:
1000021a:	4919      	ldr	r1, [pc, #100]	; (10000280 <__get_current_exception+0x1a>)
1000021c:	4788      	blx	r1
1000021e:	4919      	ldr	r1, [pc, #100]	; (10000284 <__get_current_exception+0x1e>)
10000220:	4788      	blx	r1
10000222:	4919      	ldr	r1, [pc, #100]	; (10000288 <__get_current_exception+0x22>)
10000224:	4788      	blx	r1
10000226:	be00      	bkpt	0x0000
10000228:	e7fd      	b.n	10000226 <platform_entry+0xc>

1000022a <data_cpy_loop>:
1000022a:	c901      	ldmia	r1!, {r0}
1000022c:	c201      	stmia	r2!, {r0}

1000022e <data_cpy>:
1000022e:	429a      	cmp	r2, r3
10000230:	d3fb      	bcc.n	1000022a <data_cpy_loop>
10000232:	4770      	bx	lr

10000234 <data_cpy_table>:
10000234:	100085ec 	.word	0x100085ec
10000238:	200000c0 	.word	0x200000c0
1000023c:	2000034c 	.word	0x2000034c
10000240:	10008878 	.word	0x10008878
10000244:	20040000 	.word	0x20040000
10000248:	20040000 	.word	0x20040000
1000024c:	10008878 	.word	0x10008878
10000250:	20041000 	.word	0x20041000
10000254:	20041000 	.word	0x20041000
10000258:	00000000 	.word	0x00000000
1000025c:	4770      	bx	lr

1000025e <hold_non_core0_in_bootrom>:
1000025e:	480b      	ldr	r0, [pc, #44]	; (1000028c <__get_current_exception+0x26>)
10000260:	f004 fae4 	bl	1000482c <rom_func_lookup>
10000264:	4700      	bx	r0

10000266 <__get_current_exception>:
10000266:	f3ef 8005 	mrs	r0, IPSR
1000026a:	b2c0      	uxtb	r0, r0
1000026c:	4770      	bx	lr
1000026e:	0000      	.short	0x0000
10000270:	e000ed08 	.word	0xe000ed08
10000274:	d0000000 	.word	0xd0000000
10000278:	20000350 	.word	0x20000350
1000027c:	20001274 	.word	0x20001274
10000280:	10001929 	.word	0x10001929
10000284:	10000425 	.word	0x10000425
10000288:	10001a15 	.word	0x10001a15
1000028c:	00005657 	.word	0x00005657

10000290 <__bi_47>:
10000290:	50520006 5360b3ab 1000830c              ..RP..`S....

1000029c <__bi_35>:
1000029c:	50520006 02031c86 1000831c              ..RP........

100002a8 <__bi_27>:
100002a8:	50520006 9da22254 10008324              ..RPT"..$...

100002b4 <__bi_19>:
100002b4:	50520005 68f465de 10008878              ..RP.e.hx...

100002c0 <_init>:
100002c0:	b5f8      	push	{r3, r4, r5, r6, r7, lr}
100002c2:	46c0      	nop			; (mov r8, r8)

100002c4 <deregister_tm_clones>:
100002c4:	4804      	ldr	r0, [pc, #16]	; (100002d8 <deregister_tm_clones+0x14>)
100002c6:	4b05      	ldr	r3, [pc, #20]	; (100002dc <deregister_tm_clones+0x18>)
100002c8:	b510      	push	{r4, lr}
100002ca:	4283      	cmp	r3, r0
100002cc:	d003      	beq.n	100002d6 <deregister_tm_clones+0x12>
100002ce:	4b04      	ldr	r3, [pc, #16]	; (100002e0 <deregister_tm_clones+0x1c>)
100002d0:	2b00      	cmp	r3, #0
100002d2:	d000      	beq.n	100002d6 <deregister_tm_clones+0x12>
100002d4:	4798      	blx	r3
100002d6:	bd10      	pop	{r4, pc}
100002d8:	2000034c 	.word	0x2000034c
100002dc:	2000034c 	.word	0x2000034c
100002e0:	00000000 	.word	0x00000000

100002e4 <register_tm_clones>:
100002e4:	4806      	ldr	r0, [pc, #24]	; (10000300 <register_tm_clones+0x1c>)
100002e6:	4907      	ldr	r1, [pc, #28]	; (10000304 <register_tm_clones+0x20>)
100002e8:	1a09      	subs	r1, r1, r0
100002ea:	1089      	asrs	r1, r1, #2
100002ec:	0fcb      	lsrs	r3, r1, #31
100002ee:	1859      	adds	r1, r3, r1
100002f0:	b510      	push	{r4, lr}
100002f2:	1049      	asrs	r1, r1, #1
100002f4:	d003      	beq.n	100002fe <register_tm_clones+0x1a>
100002f6:	4b04      	ldr	r3, [pc, #16]	; (10000308 <register_tm_clones+0x24>)
100002f8:	2b00      	cmp	r3, #0
100002fa:	d000      	beq.n	100002fe <register_tm_clones+0x1a>
100002fc:	4798      	blx	r3
100002fe:	bd10      	pop	{r4, pc}
10000300:	2000034c 	.word	0x2000034c
10000304:	2000034c 	.word	0x2000034c
10000308:	00000000 	.word	0x00000000

1000030c <__do_global_dtors_aux>:
1000030c:	b510      	push	{r4, lr}
1000030e:	4c07      	ldr	r4, [pc, #28]	; (1000032c <__do_global_dtors_aux+0x20>)
10000310:	7823      	ldrb	r3, [r4, #0]
10000312:	2b00      	cmp	r3, #0
10000314:	d109      	bne.n	1000032a <__do_global_dtors_aux+0x1e>
10000316:	f7ff ffd5 	bl	100002c4 <deregister_tm_clones>
1000031a:	4b05      	ldr	r3, [pc, #20]	; (10000330 <__do_global_dtors_aux+0x24>)
1000031c:	2b00      	cmp	r3, #0
1000031e:	d002      	beq.n	10000326 <__do_global_dtors_aux+0x1a>
10000320:	4804      	ldr	r0, [pc, #16]	; (10000334 <__do_global_dtors_aux+0x28>)
10000322:	e000      	b.n	10000326 <__do_global_dtors_aux+0x1a>
10000324:	bf00      	nop
10000326:	2301      	movs	r3, #1
10000328:	7023      	strb	r3, [r4, #0]
1000032a:	bd10      	pop	{r4, pc}
1000032c:	20000458 	.word	0x20000458
10000330:	00000000 	.word	0x00000000
10000334:	10007f70 	.word	0x10007f70

10000338 <frame_dummy>:
10000338:	4b05      	ldr	r3, [pc, #20]	; (10000350 <frame_dummy+0x18>)
1000033a:	b510      	push	{r4, lr}
1000033c:	2b00      	cmp	r3, #0
1000033e:	d003      	beq.n	10000348 <frame_dummy+0x10>
10000340:	4904      	ldr	r1, [pc, #16]	; (10000354 <frame_dummy+0x1c>)
10000342:	4805      	ldr	r0, [pc, #20]	; (10000358 <frame_dummy+0x20>)
10000344:	e000      	b.n	10000348 <frame_dummy+0x10>
10000346:	bf00      	nop
10000348:	f7ff ffcc 	bl	100002e4 <register_tm_clones>
1000034c:	bd10      	pop	{r4, pc}
1000034e:	46c0      	nop			; (mov r8, r8)
10000350:	00000000 	.word	0x00000000
10000354:	2000045c 	.word	0x2000045c
10000358:	10007f70 	.word	0x10007f70

1000035c <reader_test>:
1000035c:	b5f0      	push	{r4, r5, r6, r7, lr}
1000035e:	46d6      	mov	lr, sl
10000360:	464f      	mov	r7, r9
10000362:	4646      	mov	r6, r8
10000364:	4828      	ldr	r0, [pc, #160]	; (10000408 <reader_test+0xac>)
10000366:	b5c0      	push	{r6, r7, lr}
10000368:	f005 fa28 	bl	100057bc <__wrap_puts>
1000036c:	2300      	movs	r3, #0
1000036e:	4698      	mov	r8, r3
10000370:	4b26      	ldr	r3, [pc, #152]	; (1000040c <reader_test+0xb0>)
10000372:	2780      	movs	r7, #128	; 0x80
10000374:	469a      	mov	sl, r3
10000376:	4b26      	ldr	r3, [pc, #152]	; (10000410 <reader_test+0xb4>)
10000378:	03ff      	lsls	r7, r7, #15
1000037a:	4699      	mov	r9, r3
1000037c:	4643      	mov	r3, r8
1000037e:	26ff      	movs	r6, #255	; 0xff
10000380:	24d0      	movs	r4, #208	; 0xd0
10000382:	2580      	movs	r5, #128	; 0x80
10000384:	401e      	ands	r6, r3
10000386:	0032      	movs	r2, r6
10000388:	4641      	mov	r1, r8
1000038a:	4650      	mov	r0, sl
1000038c:	0624      	lsls	r4, r4, #24
1000038e:	f005 fb33 	bl	100059f8 <__wrap_printf>
10000392:	6863      	ldr	r3, [r4, #4]
10000394:	03ad      	lsls	r5, r5, #14
10000396:	422b      	tst	r3, r5
10000398:	d007      	beq.n	100003aa <reader_test+0x4e>
1000039a:	e010      	b.n	100003be <reader_test+0x62>
1000039c:	2001      	movs	r0, #1
1000039e:	2100      	movs	r1, #0
100003a0:	f000 fd70 	bl	10000e84 <sleep_us>
100003a4:	6863      	ldr	r3, [r4, #4]
100003a6:	422b      	tst	r3, r5
100003a8:	d109      	bne.n	100003be <reader_test+0x62>
100003aa:	6863      	ldr	r3, [r4, #4]
100003ac:	423b      	tst	r3, r7
100003ae:	d0f5      	beq.n	1000039c <reader_test+0x40>
100003b0:	4818      	ldr	r0, [pc, #96]	; (10000414 <reader_test+0xb8>)
100003b2:	f005 fa03 	bl	100057bc <__wrap_puts>
100003b6:	2100      	movs	r1, #0
100003b8:	4817      	ldr	r0, [pc, #92]	; (10000418 <reader_test+0xbc>)
100003ba:	f007 fd67 	bl	10007e8c <longjmp>
100003be:	24d0      	movs	r4, #208	; 0xd0
100003c0:	4648      	mov	r0, r9
100003c2:	0624      	lsls	r4, r4, #24
100003c4:	f005 f9fa 	bl	100057bc <__wrap_puts>
100003c8:	6923      	ldr	r3, [r4, #16]
100003ca:	2580      	movs	r5, #128	; 0x80
100003cc:	405e      	eors	r6, r3
100003ce:	23ff      	movs	r3, #255	; 0xff
100003d0:	02ad      	lsls	r5, r5, #10
100003d2:	401e      	ands	r6, r3
100003d4:	61e6      	str	r6, [r4, #28]
100003d6:	2005      	movs	r0, #5
100003d8:	2100      	movs	r1, #0
100003da:	6165      	str	r5, [r4, #20]
100003dc:	f000 fd52 	bl	10000e84 <sleep_us>
100003e0:	61a5      	str	r5, [r4, #24]
100003e2:	200a      	movs	r0, #10
100003e4:	2100      	movs	r1, #0
100003e6:	f000 fd4d 	bl	10000e84 <sleep_us>
100003ea:	2301      	movs	r3, #1
100003ec:	469c      	mov	ip, r3
100003ee:	4b0b      	ldr	r3, [pc, #44]	; (1000041c <reader_test+0xc0>)
100003f0:	44e0      	add	r8, ip
100003f2:	4598      	cmp	r8, r3
100003f4:	d1c2      	bne.n	1000037c <reader_test+0x20>
100003f6:	480a      	ldr	r0, [pc, #40]	; (10000420 <reader_test+0xc4>)
100003f8:	f005 f9e0 	bl	100057bc <__wrap_puts>
100003fc:	bc1c      	pop	{r2, r3, r4}
100003fe:	4690      	mov	r8, r2
10000400:	4699      	mov	r9, r3
10000402:	46a2      	mov	sl, r4
10000404:	bdf0      	pop	{r4, r5, r6, r7, pc}
10000406:	46c0      	nop			; (mov r8, r8)
10000408:	10007f8c 	.word	0x10007f8c
1000040c:	10007fa4 	.word	0x10007fa4
10000410:	10007ff0 	.word	0x10007ff0
10000414:	10007fcc 	.word	0x10007fcc
10000418:	20000f10 	.word	0x20000f10
1000041c:	00002710 	.word	0x00002710
10000420:	10007fb4 	.word	0x10007fb4

10000424 <main>:
10000424:	b5f8      	push	{r3, r4, r5, r6, r7, lr}
10000426:	4c22      	ldr	r4, [pc, #136]	; (100004b0 <main+0x8c>)
10000428:	f005 faf2 	bl	10005a10 <stdio_init_all>
1000042c:	0020      	movs	r0, r4
1000042e:	f000 f861 	bl	100004f4 <gpio_init_mask>
10000432:	23d0      	movs	r3, #208	; 0xd0
10000434:	061b      	lsls	r3, r3, #24
10000436:	6a18      	ldr	r0, [r3, #32]
10000438:	4a1e      	ldr	r2, [pc, #120]	; (100004b4 <main+0x90>)
1000043a:	4050      	eors	r0, r2
1000043c:	4020      	ands	r0, r4
1000043e:	62d8      	str	r0, [r3, #44]	; 0x2c
10000440:	619a      	str	r2, [r3, #24]
10000442:	e002      	b.n	1000044a <main+0x26>
10000444:	2064      	movs	r0, #100	; 0x64
10000446:	f000 fd35 	bl	10000eb4 <sleep_ms>
1000044a:	2000      	movs	r0, #0
1000044c:	f006 fff8 	bl	10007440 <tud_cdc_n_connected>
10000450:	2800      	cmp	r0, #0
10000452:	d0f7      	beq.n	10000444 <main+0x20>
10000454:	4818      	ldr	r0, [pc, #96]	; (100004b8 <main+0x94>)
10000456:	f007 fd0d 	bl	10007e74 <setjmp>
1000045a:	23d0      	movs	r3, #208	; 0xd0
1000045c:	061b      	lsls	r3, r3, #24
1000045e:	685b      	ldr	r3, [r3, #4]
10000460:	4a16      	ldr	r2, [pc, #88]	; (100004bc <main+0x98>)
10000462:	031b      	lsls	r3, r3, #12
10000464:	0fdb      	lsrs	r3, r3, #31
10000466:	6013      	str	r3, [r2, #0]
10000468:	d11e      	bne.n	100004a8 <main+0x84>
1000046a:	2680      	movs	r6, #128	; 0x80
1000046c:	25d0      	movs	r5, #208	; 0xd0
1000046e:	04b6      	lsls	r6, r6, #18
10000470:	2404      	movs	r4, #4
10000472:	0037      	movs	r7, r6
10000474:	062d      	lsls	r5, r5, #24
10000476:	20fa      	movs	r0, #250	; 0xfa
10000478:	616f      	str	r7, [r5, #20]
1000047a:	f000 fd1b 	bl	10000eb4 <sleep_ms>
1000047e:	3c01      	subs	r4, #1
10000480:	61ae      	str	r6, [r5, #24]
10000482:	20fa      	movs	r0, #250	; 0xfa
10000484:	f000 fd16 	bl	10000eb4 <sleep_ms>
10000488:	2c00      	cmp	r4, #0
1000048a:	d1f4      	bne.n	10000476 <main+0x52>
1000048c:	2480      	movs	r4, #128	; 0x80
1000048e:	20fa      	movs	r0, #250	; 0xfa
10000490:	0264      	lsls	r4, r4, #9
10000492:	0080      	lsls	r0, r0, #2
10000494:	616c      	str	r4, [r5, #20]
10000496:	f000 fd0d 	bl	10000eb4 <sleep_ms>
1000049a:	61ac      	str	r4, [r5, #24]
1000049c:	f7ff ff5e 	bl	1000035c <reader_test>
100004a0:	2100      	movs	r1, #0
100004a2:	4805      	ldr	r0, [pc, #20]	; (100004b8 <main+0x94>)
100004a4:	f007 fcf2 	bl	10007e8c <longjmp>
100004a8:	4805      	ldr	r0, [pc, #20]	; (100004c0 <main+0x9c>)
100004aa:	f005 f987 	bl	100057bc <__wrap_puts>
100004ae:	e7dc      	b.n	1000046a <main+0x46>
100004b0:	0667ffff 	.word	0x0667ffff
100004b4:	020700ff 	.word	0x020700ff
100004b8:	20000f10 	.word	0x20000f10
100004bc:	20000248 	.word	0x20000248
100004c0:	10007f7c 	.word	0x10007f7c

100004c4 <gpio_set_function>:
100004c4:	4a09      	ldr	r2, [pc, #36]	; (100004ec <gpio_set_function+0x28>)
100004c6:	0083      	lsls	r3, r0, #2
100004c8:	4694      	mov	ip, r2
100004ca:	2240      	movs	r2, #64	; 0x40
100004cc:	4463      	add	r3, ip
100004ce:	b510      	push	{r4, lr}
100004d0:	681c      	ldr	r4, [r3, #0]
100004d2:	00c0      	lsls	r0, r0, #3
100004d4:	4062      	eors	r2, r4
100004d6:	24c0      	movs	r4, #192	; 0xc0
100004d8:	4014      	ands	r4, r2
100004da:	2280      	movs	r2, #128	; 0x80
100004dc:	0152      	lsls	r2, r2, #5
100004de:	4313      	orrs	r3, r2
100004e0:	601c      	str	r4, [r3, #0]
100004e2:	4b03      	ldr	r3, [pc, #12]	; (100004f0 <gpio_set_function+0x2c>)
100004e4:	469c      	mov	ip, r3
100004e6:	4460      	add	r0, ip
100004e8:	6041      	str	r1, [r0, #4]
100004ea:	bd10      	pop	{r4, pc}
100004ec:	4001c004 	.word	0x4001c004
100004f0:	40014000 	.word	0x40014000

100004f4 <gpio_init_mask>:
100004f4:	2140      	movs	r1, #64	; 0x40
100004f6:	b5f0      	push	{r4, r5, r6, r7, lr}
100004f8:	46d6      	mov	lr, sl
100004fa:	464f      	mov	r7, r9
100004fc:	4646      	mov	r6, r8
100004fe:	4688      	mov	r8, r1
10000500:	3180      	adds	r1, #128	; 0x80
10000502:	b5c0      	push	{r6, r7, lr}
10000504:	25d0      	movs	r5, #208	; 0xd0
10000506:	468c      	mov	ip, r1
10000508:	2780      	movs	r7, #128	; 0x80
1000050a:	39bb      	subs	r1, #187	; 0xbb
1000050c:	2300      	movs	r3, #0
1000050e:	2401      	movs	r4, #1
10000510:	468a      	mov	sl, r1
10000512:	4a10      	ldr	r2, [pc, #64]	; (10000554 <gpio_init_mask+0x60>)
10000514:	062d      	lsls	r5, r5, #24
10000516:	017f      	lsls	r7, r7, #5
10000518:	4204      	tst	r4, r0
1000051a:	d011      	beq.n	10000540 <gpio_init_mask+0x4c>
1000051c:	0021      	movs	r1, r4
1000051e:	4099      	lsls	r1, r3
10000520:	4646      	mov	r6, r8
10000522:	62a9      	str	r1, [r5, #40]	; 0x28
10000524:	61a9      	str	r1, [r5, #24]
10000526:	6811      	ldr	r1, [r2, #0]
10000528:	4071      	eors	r1, r6
1000052a:	4666      	mov	r6, ip
1000052c:	4031      	ands	r1, r6
1000052e:	003e      	movs	r6, r7
10000530:	4316      	orrs	r6, r2
10000532:	6031      	str	r1, [r6, #0]
10000534:	4e08      	ldr	r6, [pc, #32]	; (10000558 <gpio_init_mask+0x64>)
10000536:	00d9      	lsls	r1, r3, #3
10000538:	46b1      	mov	r9, r6
1000053a:	4656      	mov	r6, sl
1000053c:	4449      	add	r1, r9
1000053e:	600e      	str	r6, [r1, #0]
10000540:	3301      	adds	r3, #1
10000542:	0840      	lsrs	r0, r0, #1
10000544:	3204      	adds	r2, #4
10000546:	2b20      	cmp	r3, #32
10000548:	d1e6      	bne.n	10000518 <gpio_init_mask+0x24>
1000054a:	bc1c      	pop	{r2, r3, r4}
1000054c:	4690      	mov	r8, r2
1000054e:	4699      	mov	r9, r3
10000550:	46a2      	mov	sl, r4
10000552:	bdf0      	pop	{r4, r5, r6, r7, pc}
10000554:	4001c004 	.word	0x4001c004
10000558:	40014004 	.word	0x40014004

1000055c <hw_claim_or_assert>:
1000055c:	b5f8      	push	{r3, r4, r5, r6, r7, lr}
1000055e:	f3ef 8c10 	mrs	ip, PRIMASK
10000562:	b672      	cpsid	i
10000564:	4f0d      	ldr	r7, [pc, #52]	; (1000059c <hw_claim_or_assert+0x40>)
10000566:	683b      	ldr	r3, [r7, #0]
10000568:	2b00      	cmp	r3, #0
1000056a:	d0fc      	beq.n	10000566 <hw_claim_or_assert+0xa>
1000056c:	f3bf 8f5f 	dmb	sy
10000570:	08cb      	lsrs	r3, r1, #3
10000572:	18c0      	adds	r0, r0, r3
10000574:	7805      	ldrb	r5, [r0, #0]
10000576:	2407      	movs	r4, #7
10000578:	002b      	movs	r3, r5
1000057a:	400c      	ands	r4, r1
1000057c:	40e3      	lsrs	r3, r4
1000057e:	2601      	movs	r6, #1
10000580:	4033      	ands	r3, r6
10000582:	d108      	bne.n	10000596 <hw_claim_or_assert+0x3a>
10000584:	40a6      	lsls	r6, r4
10000586:	4335      	orrs	r5, r6
10000588:	7005      	strb	r5, [r0, #0]
1000058a:	f3bf 8f5f 	dmb	sy
1000058e:	603b      	str	r3, [r7, #0]
10000590:	f38c 8810 	msr	PRIMASK, ip
10000594:	bdf8      	pop	{r3, r4, r5, r6, r7, pc}
10000596:	0010      	movs	r0, r2
10000598:	f001 fa3e 	bl	10001a18 <panic>
1000059c:	d000012c 	.word	0xd000012c

100005a0 <hw_claim_unused_from_range>:
100005a0:	b5f8      	push	{r3, r4, r5, r6, r7, lr}
100005a2:	4647      	mov	r7, r8
100005a4:	46ce      	mov	lr, r9
100005a6:	4688      	mov	r8, r1
100005a8:	b580      	push	{r7, lr}
100005aa:	f3ef 8c10 	mrs	ip, PRIMASK
100005ae:	b672      	cpsid	i
100005b0:	4d21      	ldr	r5, [pc, #132]	; (10000638 <hw_claim_unused_from_range+0x98>)
100005b2:	682c      	ldr	r4, [r5, #0]
100005b4:	2c00      	cmp	r4, #0
100005b6:	d0fc      	beq.n	100005b2 <hw_claim_unused_from_range+0x12>
100005b8:	f3bf 8f5f 	dmb	sy
100005bc:	429a      	cmp	r2, r3
100005be:	d82d      	bhi.n	1000061c <hw_claim_unused_from_range+0x7c>
100005c0:	08d4      	lsrs	r4, r2, #3
100005c2:	1904      	adds	r4, r0, r4
100005c4:	7826      	ldrb	r6, [r4, #0]
100005c6:	2507      	movs	r5, #7
100005c8:	0037      	movs	r7, r6
100005ca:	4015      	ands	r5, r2
100005cc:	40ef      	lsrs	r7, r5
100005ce:	07f9      	lsls	r1, r7, #31
100005d0:	d51e      	bpl.n	10000610 <hw_claim_unused_from_range+0x70>
100005d2:	2107      	movs	r1, #7
100005d4:	4689      	mov	r9, r1
100005d6:	3906      	subs	r1, #6
100005d8:	e008      	b.n	100005ec <hw_claim_unused_from_range+0x4c>
100005da:	08d4      	lsrs	r4, r2, #3
100005dc:	1904      	adds	r4, r0, r4
100005de:	7826      	ldrb	r6, [r4, #0]
100005e0:	464d      	mov	r5, r9
100005e2:	0037      	movs	r7, r6
100005e4:	4015      	ands	r5, r2
100005e6:	40ef      	lsrs	r7, r5
100005e8:	4239      	tst	r1, r7
100005ea:	d011      	beq.n	10000610 <hw_claim_unused_from_range+0x70>
100005ec:	3201      	adds	r2, #1
100005ee:	4293      	cmp	r3, r2
100005f0:	d2f3      	bcs.n	100005da <hw_claim_unused_from_range+0x3a>
100005f2:	2001      	movs	r0, #1
100005f4:	4240      	negs	r0, r0
100005f6:	f3bf 8f5f 	dmb	sy
100005fa:	2200      	movs	r2, #0
100005fc:	4b0e      	ldr	r3, [pc, #56]	; (10000638 <hw_claim_unused_from_range+0x98>)
100005fe:	601a      	str	r2, [r3, #0]
10000600:	f38c 8810 	msr	PRIMASK, ip
10000604:	2800      	cmp	r0, #0
10000606:	db11      	blt.n	1000062c <hw_claim_unused_from_range+0x8c>
10000608:	bc0c      	pop	{r2, r3}
1000060a:	4690      	mov	r8, r2
1000060c:	4699      	mov	r9, r3
1000060e:	bdf8      	pop	{r3, r4, r5, r6, r7, pc}
10000610:	2301      	movs	r3, #1
10000612:	40ab      	lsls	r3, r5
10000614:	431e      	orrs	r6, r3
10000616:	7026      	strb	r6, [r4, #0]
10000618:	0010      	movs	r0, r2
1000061a:	e7ec      	b.n	100005f6 <hw_claim_unused_from_range+0x56>
1000061c:	f3bf 8f5f 	dmb	sy
10000620:	2300      	movs	r3, #0
10000622:	602b      	str	r3, [r5, #0]
10000624:	f38c 8810 	msr	PRIMASK, ip
10000628:	2001      	movs	r0, #1
1000062a:	4240      	negs	r0, r0
1000062c:	4643      	mov	r3, r8
1000062e:	2b00      	cmp	r3, #0
10000630:	d0ea      	beq.n	10000608 <hw_claim_unused_from_range+0x68>
10000632:	9808      	ldr	r0, [sp, #32]
10000634:	f001 f9f0 	bl	10001a18 <panic>
10000638:	d000012c 	.word	0xd000012c

1000063c <spin_locks_reset>:
1000063c:	2100      	movs	r1, #0
1000063e:	4b04      	ldr	r3, [pc, #16]	; (10000650 <spin_locks_reset+0x14>)
10000640:	4a04      	ldr	r2, [pc, #16]	; (10000654 <spin_locks_reset+0x18>)
10000642:	f3bf 8f5f 	dmb	sy
10000646:	c302      	stmia	r3!, {r1}
10000648:	4293      	cmp	r3, r2
1000064a:	d1fa      	bne.n	10000642 <spin_locks_reset+0x6>
1000064c:	4770      	bx	lr
1000064e:	46c0      	nop			; (mov r8, r8)
10000650:	d0000100 	.word	0xd0000100
10000654:	d0000180 	.word	0xd0000180

10000658 <next_striped_spin_lock_num>:
10000658:	4a04      	ldr	r2, [pc, #16]	; (1000066c <next_striped_spin_lock_num+0x14>)
1000065a:	7810      	ldrb	r0, [r2, #0]
1000065c:	1c43      	adds	r3, r0, #1
1000065e:	b2db      	uxtb	r3, r3
10000660:	2b17      	cmp	r3, #23
10000662:	d900      	bls.n	10000666 <next_striped_spin_lock_num+0xe>
10000664:	2310      	movs	r3, #16
10000666:	7013      	strb	r3, [r2, #0]
10000668:	4770      	bx	lr
1000066a:	46c0      	nop			; (mov r8, r8)
1000066c:	2000024c 	.word	0x2000024c

10000670 <spin_lock_claim_unused>:
10000670:	b500      	push	{lr}
10000672:	4b05      	ldr	r3, [pc, #20]	; (10000688 <spin_lock_claim_unused+0x18>)
10000674:	b083      	sub	sp, #12
10000676:	0001      	movs	r1, r0
10000678:	9300      	str	r3, [sp, #0]
1000067a:	2218      	movs	r2, #24
1000067c:	231f      	movs	r3, #31
1000067e:	4803      	ldr	r0, [pc, #12]	; (1000068c <spin_lock_claim_unused+0x1c>)
10000680:	f7ff ff8e 	bl	100005a0 <hw_claim_unused_from_range>
10000684:	b003      	add	sp, #12
10000686:	bd00      	pop	{pc}
10000688:	10008028 	.word	0x10008028
1000068c:	200007f4 	.word	0x200007f4

10000690 <running_on_fpga>:
10000690:	4b02      	ldr	r3, [pc, #8]	; (1000069c <running_on_fpga+0xc>)
10000692:	6818      	ldr	r0, [r3, #0]
10000694:	0780      	lsls	r0, r0, #30
10000696:	0fc0      	lsrs	r0, r0, #31
10000698:	4770      	bx	lr
1000069a:	46c0      	nop			; (mov r8, r8)
1000069c:	4006c000 	.word	0x4006c000

100006a0 <uart_init>:
100006a0:	b5f8      	push	{r3, r4, r5, r6, r7, lr}
100006a2:	0004      	movs	r4, r0
100006a4:	2006      	movs	r0, #6
100006a6:	000d      	movs	r5, r1
100006a8:	f001 fb4a 	bl	10001d40 <clock_get_hz>
100006ac:	0003      	movs	r3, r0
100006ae:	2000      	movs	r0, #0
100006b0:	2b00      	cmp	r3, #0
100006b2:	d04c      	beq.n	1000074e <uart_init+0xae>
100006b4:	4b2b      	ldr	r3, [pc, #172]	; (10000764 <uart_init+0xc4>)
100006b6:	492c      	ldr	r1, [pc, #176]	; (10000768 <uart_init+0xc8>)
100006b8:	18e3      	adds	r3, r4, r3
100006ba:	1e5a      	subs	r2, r3, #1
100006bc:	4193      	sbcs	r3, r2
100006be:	2280      	movs	r2, #128	; 0x80
100006c0:	0412      	lsls	r2, r2, #16
100006c2:	4694      	mov	ip, r2
100006c4:	425b      	negs	r3, r3
100006c6:	4a29      	ldr	r2, [pc, #164]	; (1000076c <uart_init+0xcc>)
100006c8:	059b      	lsls	r3, r3, #22
100006ca:	4463      	add	r3, ip
100006cc:	6013      	str	r3, [r2, #0]
100006ce:	4a28      	ldr	r2, [pc, #160]	; (10000770 <uart_init+0xd0>)
100006d0:	6013      	str	r3, [r2, #0]
100006d2:	0018      	movs	r0, r3
100006d4:	688a      	ldr	r2, [r1, #8]
100006d6:	4390      	bics	r0, r2
100006d8:	d1fb      	bne.n	100006d2 <uart_init+0x32>
100006da:	4b22      	ldr	r3, [pc, #136]	; (10000764 <uart_init+0xc4>)
100006dc:	2180      	movs	r1, #128	; 0x80
100006de:	18e3      	adds	r3, r4, r3
100006e0:	425a      	negs	r2, r3
100006e2:	4153      	adcs	r3, r2
100006e4:	4a23      	ldr	r2, [pc, #140]	; (10000774 <uart_init+0xd4>)
100006e6:	005b      	lsls	r3, r3, #1
100006e8:	0049      	lsls	r1, r1, #1
100006ea:	2006      	movs	r0, #6
100006ec:	5299      	strh	r1, [r3, r2]
100006ee:	f001 fb27 	bl	10001d40 <clock_get_hz>
100006f2:	0029      	movs	r1, r5
100006f4:	00c0      	lsls	r0, r0, #3
100006f6:	f004 f8f3 	bl	100048e0 <__wrap___aeabi_uidiv>
100006fa:	09c3      	lsrs	r3, r0, #7
100006fc:	d006      	beq.n	1000070c <uart_init+0x6c>
100006fe:	4a1e      	ldr	r2, [pc, #120]	; (10000778 <uart_init+0xd8>)
10000700:	4293      	cmp	r3, r2
10000702:	d925      	bls.n	10000750 <uart_init+0xb0>
10000704:	4f1d      	ldr	r7, [pc, #116]	; (1000077c <uart_init+0xdc>)
10000706:	2300      	movs	r3, #0
10000708:	4a1d      	ldr	r2, [pc, #116]	; (10000780 <uart_init+0xe0>)
1000070a:	e001      	b.n	10000710 <uart_init+0x70>
1000070c:	2740      	movs	r7, #64	; 0x40
1000070e:	2201      	movs	r2, #1
10000710:	0026      	movs	r6, r4
10000712:	2580      	movs	r5, #128	; 0x80
10000714:	6262      	str	r2, [r4, #36]	; 0x24
10000716:	62a3      	str	r3, [r4, #40]	; 0x28
10000718:	2300      	movs	r3, #0
1000071a:	362c      	adds	r6, #44	; 0x2c
1000071c:	01ad      	lsls	r5, r5, #6
1000071e:	4335      	orrs	r5, r6
10000720:	602b      	str	r3, [r5, #0]
10000722:	2006      	movs	r0, #6
10000724:	f001 fb0c 	bl	10001d40 <clock_get_hz>
10000728:	0039      	movs	r1, r7
1000072a:	0080      	lsls	r0, r0, #2
1000072c:	f004 f8d8 	bl	100048e0 <__wrap___aeabi_uidiv>
10000730:	2360      	movs	r3, #96	; 0x60
10000732:	6ae2      	ldr	r2, [r4, #44]	; 0x2c
10000734:	4053      	eors	r3, r2
10000736:	226e      	movs	r2, #110	; 0x6e
10000738:	401a      	ands	r2, r3
1000073a:	2380      	movs	r3, #128	; 0x80
1000073c:	015b      	lsls	r3, r3, #5
1000073e:	4333      	orrs	r3, r6
10000740:	601a      	str	r2, [r3, #0]
10000742:	4b10      	ldr	r3, [pc, #64]	; (10000784 <uart_init+0xe4>)
10000744:	6323      	str	r3, [r4, #48]	; 0x30
10000746:	2310      	movs	r3, #16
10000748:	602b      	str	r3, [r5, #0]
1000074a:	3b0d      	subs	r3, #13
1000074c:	64a3      	str	r3, [r4, #72]	; 0x48
1000074e:	bdf8      	pop	{r3, r4, r5, r6, r7, pc}
10000750:	227f      	movs	r2, #127	; 0x7f
10000752:	4010      	ands	r0, r2
10000754:	3001      	adds	r0, #1
10000756:	0840      	lsrs	r0, r0, #1
10000758:	019f      	lsls	r7, r3, #6
1000075a:	001a      	movs	r2, r3
1000075c:	183f      	adds	r7, r7, r0
1000075e:	0003      	movs	r3, r0
10000760:	e7d6      	b.n	10000710 <uart_init+0x70>
10000762:	46c0      	nop			; (mov r8, r8)
10000764:	bffc8000 	.word	0xbffc8000
10000768:	4000c000 	.word	0x4000c000
1000076c:	4000e000 	.word	0x4000e000
10000770:	4000f000 	.word	0x4000f000
10000774:	20000fac 	.word	0x20000fac
10000778:	0000fffe 	.word	0x0000fffe
1000077c:	003fffc0 	.word	0x003fffc0
10000780:	0000ffff 	.word	0x0000ffff
10000784:	00000301 	.word	0x00000301

10000788 <timer_pool_entry_comparator>:
10000788:	6883      	ldr	r3, [r0, #8]
1000078a:	480b      	ldr	r0, [pc, #44]	; (100007b8 <timer_pool_entry_comparator+0x30>)
1000078c:	b510      	push	{r4, lr}
1000078e:	4684      	mov	ip, r0
10000790:	4461      	add	r1, ip
10000792:	4462      	add	r2, ip
10000794:	0109      	lsls	r1, r1, #4
10000796:	0112      	lsls	r2, r2, #4
10000798:	189a      	adds	r2, r3, r2
1000079a:	1859      	adds	r1, r3, r1
1000079c:	6854      	ldr	r4, [r2, #4]
1000079e:	684b      	ldr	r3, [r1, #4]
100007a0:	2001      	movs	r0, #1
100007a2:	429c      	cmp	r4, r3
100007a4:	d801      	bhi.n	100007aa <timer_pool_entry_comparator+0x22>
100007a6:	d002      	beq.n	100007ae <timer_pool_entry_comparator+0x26>
100007a8:	2000      	movs	r0, #0
100007aa:	b2c0      	uxtb	r0, r0
100007ac:	bd10      	pop	{r4, pc}
100007ae:	6812      	ldr	r2, [r2, #0]
100007b0:	680b      	ldr	r3, [r1, #0]
100007b2:	429a      	cmp	r2, r3
100007b4:	d8f9      	bhi.n	100007aa <timer_pool_entry_comparator+0x22>
100007b6:	e7f7      	b.n	100007a8 <timer_pool_entry_comparator+0x20>
100007b8:	0fffffff 	.word	0x0fffffff

100007bc <sev_callback>:
100007bc:	bf40      	sev
100007be:	2000      	movs	r0, #0
100007c0:	2100      	movs	r1, #0
100007c2:	4770      	bx	lr

100007c4 <add_alarm_under_lock>:
100007c4:	b5f8      	push	{r3, r4, r5, r6, r7, lr}
100007c6:	4657      	mov	r7, sl
100007c8:	464e      	mov	r6, r9
100007ca:	4645      	mov	r5, r8
100007cc:	46de      	mov	lr, fp
100007ce:	b5e0      	push	{r5, r6, r7, lr}
100007d0:	001f      	movs	r7, r3
100007d2:	ab0c      	add	r3, sp, #48	; 0x30
100007d4:	781d      	ldrb	r5, [r3, #0]
100007d6:	ab0d      	add	r3, sp, #52	; 0x34
100007d8:	781b      	ldrb	r3, [r3, #0]
100007da:	4681      	mov	r9, r0
100007dc:	469a      	mov	sl, r3
100007de:	6803      	ldr	r3, [r0, #0]
100007e0:	0016      	movs	r6, r2
100007e2:	4698      	mov	r8, r3
100007e4:	2d00      	cmp	r5, #0
100007e6:	d13b      	bne.n	10000860 <add_alarm_under_lock+0x9c>
100007e8:	7b98      	ldrb	r0, [r3, #14]
100007ea:	2800      	cmp	r0, #0
100007ec:	d032      	beq.n	10000854 <add_alarm_under_lock+0x90>
100007ee:	4642      	mov	r2, r8
100007f0:	4645      	mov	r5, r8
100007f2:	0044      	lsls	r4, r0, #1
100007f4:	6812      	ldr	r2, [r2, #0]
100007f6:	1824      	adds	r4, r4, r0
100007f8:	3c03      	subs	r4, #3
100007fa:	1912      	adds	r2, r2, r4
100007fc:	7851      	ldrb	r1, [r2, #1]
100007fe:	0003      	movs	r3, r0
10000800:	73a9      	strb	r1, [r5, #14]
10000802:	2900      	cmp	r1, #0
10000804:	d100      	bne.n	10000808 <add_alarm_under_lock+0x44>
10000806:	73e9      	strb	r1, [r5, #15]
10000808:	2100      	movs	r1, #0
1000080a:	0005      	movs	r5, r0
1000080c:	7091      	strb	r1, [r2, #2]
1000080e:	7051      	strb	r1, [r2, #1]
10000810:	7011      	strb	r1, [r2, #0]
10000812:	e029      	b.n	10000868 <add_alarm_under_lock+0xa4>
10000814:	18d3      	adds	r3, r2, r3
10000816:	1914      	adds	r4, r2, r4
10000818:	709d      	strb	r5, [r3, #2]
1000081a:	7822      	ldrb	r2, [r4, #0]
1000081c:	2a00      	cmp	r2, #0
1000081e:	d000      	beq.n	10000822 <add_alarm_under_lock+0x5e>
10000820:	705a      	strb	r2, [r3, #1]
10000822:	465b      	mov	r3, fp
10000824:	7023      	strb	r3, [r4, #0]
10000826:	4643      	mov	r3, r8
10000828:	735d      	strb	r5, [r3, #13]
1000082a:	464b      	mov	r3, r9
1000082c:	0032      	movs	r2, r6
1000082e:	7d18      	ldrb	r0, [r3, #20]
10000830:	003b      	movs	r3, r7
10000832:	f000 fcfb 	bl	1000122c <hardware_alarm_set_target>
10000836:	1e04      	subs	r4, r0, #0
10000838:	d007      	beq.n	1000084a <add_alarm_under_lock+0x86>
1000083a:	4653      	mov	r3, sl
1000083c:	2b00      	cmp	r3, #0
1000083e:	d104      	bne.n	1000084a <add_alarm_under_lock+0x86>
10000840:	464b      	mov	r3, r9
10000842:	0029      	movs	r1, r5
10000844:	6818      	ldr	r0, [r3, #0]
10000846:	f000 fecf 	bl	100015e8 <ph_remove_and_free_node>
1000084a:	9b0e      	ldr	r3, [sp, #56]	; 0x38
1000084c:	2b00      	cmp	r3, #0
1000084e:	d044      	beq.n	100008da <add_alarm_under_lock+0x116>
10000850:	0028      	movs	r0, r5
10000852:	701c      	strb	r4, [r3, #0]
10000854:	bc3c      	pop	{r2, r3, r4, r5}
10000856:	4690      	mov	r8, r2
10000858:	4699      	mov	r9, r3
1000085a:	46a2      	mov	sl, r4
1000085c:	46ab      	mov	fp, r5
1000085e:	bdf8      	pop	{r3, r4, r5, r6, r7, pc}
10000860:	002b      	movs	r3, r5
10000862:	006c      	lsls	r4, r5, #1
10000864:	1964      	adds	r4, r4, r5
10000866:	3c03      	subs	r4, #3
10000868:	4a1d      	ldr	r2, [pc, #116]	; (100008e0 <add_alarm_under_lock+0x11c>)
1000086a:	4694      	mov	ip, r2
1000086c:	464a      	mov	r2, r9
1000086e:	6892      	ldr	r2, [r2, #8]
10000870:	4463      	add	r3, ip
10000872:	4694      	mov	ip, r2
10000874:	011b      	lsls	r3, r3, #4
10000876:	9a0a      	ldr	r2, [sp, #40]	; 0x28
10000878:	4463      	add	r3, ip
1000087a:	609a      	str	r2, [r3, #8]
1000087c:	9a0b      	ldr	r2, [sp, #44]	; 0x2c
1000087e:	601e      	str	r6, [r3, #0]
10000880:	605f      	str	r7, [r3, #4]
10000882:	60da      	str	r2, [r3, #12]
10000884:	4643      	mov	r3, r8
10000886:	2200      	movs	r2, #0
10000888:	681b      	ldr	r3, [r3, #0]
1000088a:	191b      	adds	r3, r3, r4
1000088c:	709a      	strb	r2, [r3, #2]
1000088e:	705a      	strb	r2, [r3, #1]
10000890:	701a      	strb	r2, [r3, #0]
10000892:	4643      	mov	r3, r8
10000894:	7b5b      	ldrb	r3, [r3, #13]
10000896:	469b      	mov	fp, r3
10000898:	2b00      	cmp	r3, #0
1000089a:	d0c4      	beq.n	10000826 <add_alarm_under_lock+0x62>
1000089c:	4643      	mov	r3, r8
1000089e:	002a      	movs	r2, r5
100008a0:	6898      	ldr	r0, [r3, #8]
100008a2:	4659      	mov	r1, fp
100008a4:	685b      	ldr	r3, [r3, #4]
100008a6:	4798      	blx	r3
100008a8:	465b      	mov	r3, fp
100008aa:	4642      	mov	r2, r8
100008ac:	005b      	lsls	r3, r3, #1
100008ae:	445b      	add	r3, fp
100008b0:	3b03      	subs	r3, #3
100008b2:	6812      	ldr	r2, [r2, #0]
100008b4:	2800      	cmp	r0, #0
100008b6:	d0ad      	beq.n	10000814 <add_alarm_under_lock+0x50>
100008b8:	18d3      	adds	r3, r2, r3
100008ba:	1914      	adds	r4, r2, r4
100008bc:	465a      	mov	r2, fp
100008be:	70a2      	strb	r2, [r4, #2]
100008c0:	781a      	ldrb	r2, [r3, #0]
100008c2:	2a00      	cmp	r2, #0
100008c4:	d107      	bne.n	100008d6 <add_alarm_under_lock+0x112>
100008c6:	701d      	strb	r5, [r3, #0]
100008c8:	465a      	mov	r2, fp
100008ca:	4643      	mov	r3, r8
100008cc:	0028      	movs	r0, r5
100008ce:	735a      	strb	r2, [r3, #13]
100008d0:	45ab      	cmp	fp, r5
100008d2:	d1bf      	bne.n	10000854 <add_alarm_under_lock+0x90>
100008d4:	e7a9      	b.n	1000082a <add_alarm_under_lock+0x66>
100008d6:	7062      	strb	r2, [r4, #1]
100008d8:	e7f5      	b.n	100008c6 <add_alarm_under_lock+0x102>
100008da:	0028      	movs	r0, r5
100008dc:	e7ba      	b.n	10000854 <add_alarm_under_lock+0x90>
100008de:	46c0      	nop			; (mov r8, r8)
100008e0:	0fffffff 	.word	0x0fffffff

100008e4 <alarm_pool_alarm_callback>:
100008e4:	b5f0      	push	{r4, r5, r6, r7, lr}
100008e6:	46de      	mov	lr, fp
100008e8:	4645      	mov	r5, r8
100008ea:	4657      	mov	r7, sl
100008ec:	464e      	mov	r6, r9
100008ee:	4b72      	ldr	r3, [pc, #456]	; (10000ab8 <alarm_pool_alarm_callback+0x1d4>)
100008f0:	0082      	lsls	r2, r0, #2
100008f2:	b5e0      	push	{r5, r6, r7, lr}
100008f4:	58d5      	ldr	r5, [r2, r3]
100008f6:	2300      	movs	r3, #0
100008f8:	b08d      	sub	sp, #52	; 0x34
100008fa:	900b      	str	r0, [sp, #44]	; 0x2c
100008fc:	469b      	mov	fp, r3
100008fe:	e027      	b.n	10000950 <alarm_pool_alarm_callback+0x6c>
10000900:	9a06      	ldr	r2, [sp, #24]
10000902:	9b07      	ldr	r3, [sp, #28]
10000904:	0011      	movs	r1, r2
10000906:	4319      	orrs	r1, r3
10000908:	d003      	beq.n	10000912 <alarm_pool_alarm_callback+0x2e>
1000090a:	692b      	ldr	r3, [r5, #16]
1000090c:	2b00      	cmp	r3, #0
1000090e:	d000      	beq.n	10000912 <alarm_pool_alarm_callback+0x2e>
10000910:	e093      	b.n	10000a3a <alarm_pool_alarm_callback+0x156>
10000912:	682b      	ldr	r3, [r5, #0]
10000914:	7bda      	ldrb	r2, [r3, #15]
10000916:	2a00      	cmp	r2, #0
10000918:	d007      	beq.n	1000092a <alarm_pool_alarm_callback+0x46>
1000091a:	0051      	lsls	r1, r2, #1
1000091c:	188a      	adds	r2, r1, r2
1000091e:	6819      	ldr	r1, [r3, #0]
10000920:	468c      	mov	ip, r1
10000922:	4649      	mov	r1, r9
10000924:	4462      	add	r2, ip
10000926:	3a03      	subs	r2, #3
10000928:	7051      	strb	r1, [r2, #1]
1000092a:	464a      	mov	r2, r9
1000092c:	73da      	strb	r2, [r3, #15]
1000092e:	68ea      	ldr	r2, [r5, #12]
10000930:	464b      	mov	r3, r9
10000932:	4694      	mov	ip, r2
10000934:	3b01      	subs	r3, #1
10000936:	4463      	add	r3, ip
10000938:	781a      	ldrb	r2, [r3, #0]
1000093a:	3201      	adds	r2, #1
1000093c:	701a      	strb	r2, [r3, #0]
1000093e:	465b      	mov	r3, fp
10000940:	612b      	str	r3, [r5, #16]
10000942:	686b      	ldr	r3, [r5, #4]
10000944:	f3bf 8f5f 	dmb	sy
10000948:	465a      	mov	r2, fp
1000094a:	601a      	str	r2, [r3, #0]
1000094c:	f384 8810 	msr	PRIMASK, r4
10000950:	f000 fc0a 	bl	10001168 <time_us_64>
10000954:	686a      	ldr	r2, [r5, #4]
10000956:	f3ef 8410 	mrs	r4, PRIMASK
1000095a:	b672      	cpsid	i
1000095c:	6813      	ldr	r3, [r2, #0]
1000095e:	2b00      	cmp	r3, #0
10000960:	d0fc      	beq.n	1000095c <alarm_pool_alarm_callback+0x78>
10000962:	f3bf 8f5f 	dmb	sy
10000966:	682b      	ldr	r3, [r5, #0]
10000968:	469c      	mov	ip, r3
1000096a:	7b5b      	ldrb	r3, [r3, #13]
1000096c:	4699      	mov	r9, r3
1000096e:	2b00      	cmp	r3, #0
10000970:	d05b      	beq.n	10000a2a <alarm_pool_alarm_callback+0x146>
10000972:	68aa      	ldr	r2, [r5, #8]
10000974:	4b51      	ldr	r3, [pc, #324]	; (10000abc <alarm_pool_alarm_callback+0x1d8>)
10000976:	4690      	mov	r8, r2
10000978:	444b      	add	r3, r9
1000097a:	011b      	lsls	r3, r3, #4
1000097c:	4498      	add	r8, r3
1000097e:	4643      	mov	r3, r8
10000980:	681a      	ldr	r2, [r3, #0]
10000982:	685b      	ldr	r3, [r3, #4]
10000984:	0016      	movs	r6, r2
10000986:	001f      	movs	r7, r3
10000988:	1a36      	subs	r6, r6, r0
1000098a:	418f      	sbcs	r7, r1
1000098c:	2f00      	cmp	r7, #0
1000098e:	dd6e      	ble.n	10000a6e <alarm_pool_alarm_callback+0x18a>
10000990:	980b      	ldr	r0, [sp, #44]	; 0x2c
10000992:	f000 fc4b 	bl	1000122c <hardware_alarm_set_target>
10000996:	2200      	movs	r2, #0
10000998:	2300      	movs	r3, #0
1000099a:	2700      	movs	r7, #0
1000099c:	2600      	movs	r6, #0
1000099e:	9208      	str	r2, [sp, #32]
100009a0:	9309      	str	r3, [sp, #36]	; 0x24
100009a2:	686b      	ldr	r3, [r5, #4]
100009a4:	f3bf 8f5f 	dmb	sy
100009a8:	465a      	mov	r2, fp
100009aa:	601a      	str	r2, [r3, #0]
100009ac:	f384 8810 	msr	PRIMASK, r4
100009b0:	2e00      	cmp	r6, #0
100009b2:	d076      	beq.n	10000aa2 <alarm_pool_alarm_callback+0x1be>
100009b4:	4653      	mov	r3, sl
100009b6:	0218      	lsls	r0, r3, #8
100009b8:	464b      	mov	r3, r9
100009ba:	0039      	movs	r1, r7
100009bc:	4318      	orrs	r0, r3
100009be:	47b0      	blx	r6
100009c0:	686a      	ldr	r2, [r5, #4]
100009c2:	9006      	str	r0, [sp, #24]
100009c4:	9107      	str	r1, [sp, #28]
100009c6:	f3ef 8410 	mrs	r4, PRIMASK
100009ca:	b672      	cpsid	i
100009cc:	6813      	ldr	r3, [r2, #0]
100009ce:	2b00      	cmp	r3, #0
100009d0:	d0fc      	beq.n	100009cc <alarm_pool_alarm_callback+0xe8>
100009d2:	f3bf 8f5f 	dmb	sy
100009d6:	9b07      	ldr	r3, [sp, #28]
100009d8:	2b00      	cmp	r3, #0
100009da:	da91      	bge.n	10000900 <alarm_pool_alarm_callback+0x1c>
100009dc:	692b      	ldr	r3, [r5, #16]
100009de:	2b00      	cmp	r3, #0
100009e0:	d097      	beq.n	10000912 <alarm_pool_alarm_callback+0x2e>
100009e2:	9806      	ldr	r0, [sp, #24]
100009e4:	9907      	ldr	r1, [sp, #28]
100009e6:	9a08      	ldr	r2, [sp, #32]
100009e8:	9b09      	ldr	r3, [sp, #36]	; 0x24
100009ea:	1a12      	subs	r2, r2, r0
100009ec:	418b      	sbcs	r3, r1
100009ee:	9808      	ldr	r0, [sp, #32]
100009f0:	9909      	ldr	r1, [sp, #36]	; 0x24
100009f2:	9206      	str	r2, [sp, #24]
100009f4:	9307      	str	r3, [sp, #28]
100009f6:	9a07      	ldr	r2, [sp, #28]
100009f8:	4291      	cmp	r1, r2
100009fa:	d803      	bhi.n	10000a04 <alarm_pool_alarm_callback+0x120>
100009fc:	d107      	bne.n	10000a0e <alarm_pool_alarm_callback+0x12a>
100009fe:	9a06      	ldr	r2, [sp, #24]
10000a00:	4290      	cmp	r0, r2
10000a02:	d904      	bls.n	10000a0e <alarm_pool_alarm_callback+0x12a>
10000a04:	2201      	movs	r2, #1
10000a06:	4252      	negs	r2, r2
10000a08:	17d3      	asrs	r3, r2, #31
10000a0a:	9206      	str	r2, [sp, #24]
10000a0c:	9307      	str	r3, [sp, #28]
10000a0e:	465b      	mov	r3, fp
10000a10:	2101      	movs	r1, #1
10000a12:	9304      	str	r3, [sp, #16]
10000a14:	464b      	mov	r3, r9
10000a16:	9103      	str	r1, [sp, #12]
10000a18:	9302      	str	r3, [sp, #8]
10000a1a:	9701      	str	r7, [sp, #4]
10000a1c:	9600      	str	r6, [sp, #0]
10000a1e:	9a06      	ldr	r2, [sp, #24]
10000a20:	9b07      	ldr	r3, [sp, #28]
10000a22:	0028      	movs	r0, r5
10000a24:	f7ff fece 	bl	100007c4 <add_alarm_under_lock>
10000a28:	e789      	b.n	1000093e <alarm_pool_alarm_callback+0x5a>
10000a2a:	2200      	movs	r2, #0
10000a2c:	2300      	movs	r3, #0
10000a2e:	2700      	movs	r7, #0
10000a30:	9208      	str	r2, [sp, #32]
10000a32:	9309      	str	r3, [sp, #36]	; 0x24
10000a34:	2600      	movs	r6, #0
10000a36:	2000      	movs	r0, #0
10000a38:	e7b3      	b.n	100009a2 <alarm_pool_alarm_callback+0xbe>
10000a3a:	f000 fb95 	bl	10001168 <time_us_64>
10000a3e:	9a06      	ldr	r2, [sp, #24]
10000a40:	9b07      	ldr	r3, [sp, #28]
10000a42:	1812      	adds	r2, r2, r0
10000a44:	414b      	adcs	r3, r1
10000a46:	4299      	cmp	r1, r3
10000a48:	d802      	bhi.n	10000a50 <alarm_pool_alarm_callback+0x16c>
10000a4a:	d104      	bne.n	10000a56 <alarm_pool_alarm_callback+0x172>
10000a4c:	4290      	cmp	r0, r2
10000a4e:	d902      	bls.n	10000a56 <alarm_pool_alarm_callback+0x172>
10000a50:	2201      	movs	r2, #1
10000a52:	4252      	negs	r2, r2
10000a54:	17d3      	asrs	r3, r2, #31
10000a56:	4659      	mov	r1, fp
10000a58:	9104      	str	r1, [sp, #16]
10000a5a:	2101      	movs	r1, #1
10000a5c:	9103      	str	r1, [sp, #12]
10000a5e:	4649      	mov	r1, r9
10000a60:	9701      	str	r7, [sp, #4]
10000a62:	9102      	str	r1, [sp, #8]
10000a64:	9600      	str	r6, [sp, #0]
10000a66:	0028      	movs	r0, r5
10000a68:	f7ff feac 	bl	100007c4 <add_alarm_under_lock>
10000a6c:	e767      	b.n	1000093e <alarm_pool_alarm_callback+0x5a>
10000a6e:	2f00      	cmp	r7, #0
10000a70:	d101      	bne.n	10000a76 <alarm_pool_alarm_callback+0x192>
10000a72:	2e00      	cmp	r6, #0
10000a74:	d18c      	bne.n	10000990 <alarm_pool_alarm_callback+0xac>
10000a76:	2100      	movs	r1, #0
10000a78:	4660      	mov	r0, ip
10000a7a:	f000 fd09 	bl	10001490 <ph_remove_head>
10000a7e:	4643      	mov	r3, r8
10000a80:	681a      	ldr	r2, [r3, #0]
10000a82:	685b      	ldr	r3, [r3, #4]
10000a84:	9208      	str	r2, [sp, #32]
10000a86:	9309      	str	r3, [sp, #36]	; 0x24
10000a88:	4643      	mov	r3, r8
10000a8a:	689e      	ldr	r6, [r3, #8]
10000a8c:	68df      	ldr	r7, [r3, #12]
10000a8e:	68eb      	ldr	r3, [r5, #12]
10000a90:	444b      	add	r3, r9
10000a92:	3b01      	subs	r3, #1
10000a94:	781b      	ldrb	r3, [r3, #0]
10000a96:	469a      	mov	sl, r3
10000a98:	021b      	lsls	r3, r3, #8
10000a9a:	4318      	orrs	r0, r3
10000a9c:	6128      	str	r0, [r5, #16]
10000a9e:	2000      	movs	r0, #0
10000aa0:	e77f      	b.n	100009a2 <alarm_pool_alarm_callback+0xbe>
10000aa2:	2800      	cmp	r0, #0
10000aa4:	d000      	beq.n	10000aa8 <alarm_pool_alarm_callback+0x1c4>
10000aa6:	e753      	b.n	10000950 <alarm_pool_alarm_callback+0x6c>
10000aa8:	b00d      	add	sp, #52	; 0x34
10000aaa:	bc3c      	pop	{r2, r3, r4, r5}
10000aac:	4690      	mov	r8, r2
10000aae:	4699      	mov	r9, r3
10000ab0:	46a2      	mov	sl, r4
10000ab2:	46ab      	mov	fp, r5
10000ab4:	bdf0      	pop	{r4, r5, r6, r7, pc}
10000ab6:	46c0      	nop			; (mov r8, r8)
10000ab8:	20000f78 	.word	0x20000f78
10000abc:	0fffffff 	.word	0x0fffffff

10000ac0 <alarm_pool_init_default>:
10000ac0:	b510      	push	{r4, lr}
10000ac2:	4c10      	ldr	r4, [pc, #64]	; (10000b04 <alarm_pool_init_default+0x44>)
10000ac4:	6863      	ldr	r3, [r4, #4]
10000ac6:	2b00      	cmp	r3, #0
10000ac8:	d000      	beq.n	10000acc <alarm_pool_init_default+0xc>
10000aca:	bd10      	pop	{r4, pc}
10000acc:	0023      	movs	r3, r4
10000ace:	4a0e      	ldr	r2, [pc, #56]	; (10000b08 <alarm_pool_init_default+0x48>)
10000ad0:	2110      	movs	r1, #16
10000ad2:	6820      	ldr	r0, [r4, #0]
10000ad4:	f000 fcbe 	bl	10001454 <ph_post_alloc_init>
10000ad8:	2003      	movs	r0, #3
10000ada:	f000 fb39 	bl	10001150 <hardware_alarm_claim>
10000ade:	2003      	movs	r0, #3
10000ae0:	f000 fc10 	bl	10001304 <hardware_alarm_cancel>
10000ae4:	4909      	ldr	r1, [pc, #36]	; (10000b0c <alarm_pool_init_default+0x4c>)
10000ae6:	2003      	movs	r0, #3
10000ae8:	f000 fb5a 	bl	100011a0 <hardware_alarm_set_callback>
10000aec:	f7ff fdb4 	bl	10000658 <next_striped_spin_lock_num>
10000af0:	4b07      	ldr	r3, [pc, #28]	; (10000b10 <alarm_pool_init_default+0x50>)
10000af2:	469c      	mov	ip, r3
10000af4:	2303      	movs	r3, #3
10000af6:	4460      	add	r0, ip
10000af8:	7523      	strb	r3, [r4, #20]
10000afa:	4b06      	ldr	r3, [pc, #24]	; (10000b14 <alarm_pool_init_default+0x54>)
10000afc:	0080      	lsls	r0, r0, #2
10000afe:	6060      	str	r0, [r4, #4]
10000b00:	60dc      	str	r4, [r3, #12]
10000b02:	e7e2      	b.n	10000aca <alarm_pool_init_default+0xa>
10000b04:	20000250 	.word	0x20000250
10000b08:	10000789 	.word	0x10000789
10000b0c:	100008e5 	.word	0x100008e5
10000b10:	34000040 	.word	0x34000040
10000b14:	20000f78 	.word	0x20000f78

10000b18 <alarm_pool_get_default>:
10000b18:	4800      	ldr	r0, [pc, #0]	; (10000b1c <alarm_pool_get_default+0x4>)
10000b1a:	4770      	bx	lr
10000b1c:	20000250 	.word	0x20000250

10000b20 <alarm_pool_add_alarm_at>:
10000b20:	b5f0      	push	{r4, r5, r6, r7, lr}
10000b22:	4645      	mov	r5, r8
10000b24:	46de      	mov	lr, fp
10000b26:	4657      	mov	r7, sl
10000b28:	464e      	mov	r6, r9
10000b2a:	b5e0      	push	{r5, r6, r7, lr}
10000b2c:	b085      	sub	sp, #20
10000b2e:	9200      	str	r2, [sp, #0]
10000b30:	9301      	str	r3, [sp, #4]
10000b32:	ab10      	add	r3, sp, #64	; 0x40
10000b34:	781b      	ldrb	r3, [r3, #0]
10000b36:	0005      	movs	r5, r0
10000b38:	469b      	mov	fp, r3
10000b3a:	2300      	movs	r3, #0
10000b3c:	469a      	mov	sl, r3
10000b3e:	4698      	mov	r8, r3
10000b40:	686a      	ldr	r2, [r5, #4]
10000b42:	f3ef 8910 	mrs	r9, PRIMASK
10000b46:	b672      	cpsid	i
10000b48:	6813      	ldr	r3, [r2, #0]
10000b4a:	2b00      	cmp	r3, #0
10000b4c:	d0fc      	beq.n	10000b48 <alarm_pool_add_alarm_at+0x28>
10000b4e:	f3bf 8f5f 	dmb	sy
10000b52:	682e      	ldr	r6, [r5, #0]
10000b54:	7bb4      	ldrb	r4, [r6, #14]
10000b56:	2c00      	cmp	r4, #0
10000b58:	d050      	beq.n	10000bfc <alarm_pool_add_alarm_at+0xdc>
10000b5a:	0067      	lsls	r7, r4, #1
10000b5c:	193f      	adds	r7, r7, r4
10000b5e:	6833      	ldr	r3, [r6, #0]
10000b60:	3f03      	subs	r7, #3
10000b62:	19db      	adds	r3, r3, r7
10000b64:	785a      	ldrb	r2, [r3, #1]
10000b66:	73b2      	strb	r2, [r6, #14]
10000b68:	2a00      	cmp	r2, #0
10000b6a:	d100      	bne.n	10000b6e <alarm_pool_add_alarm_at+0x4e>
10000b6c:	73f2      	strb	r2, [r6, #15]
10000b6e:	4642      	mov	r2, r8
10000b70:	709a      	strb	r2, [r3, #2]
10000b72:	705a      	strb	r2, [r3, #1]
10000b74:	701a      	strb	r2, [r3, #0]
10000b76:	68aa      	ldr	r2, [r5, #8]
10000b78:	4b53      	ldr	r3, [pc, #332]	; (10000cc8 <alarm_pool_add_alarm_at+0x1a8>)
10000b7a:	4694      	mov	ip, r2
10000b7c:	9900      	ldr	r1, [sp, #0]
10000b7e:	9a01      	ldr	r2, [sp, #4]
10000b80:	18e3      	adds	r3, r4, r3
10000b82:	011b      	lsls	r3, r3, #4
10000b84:	4463      	add	r3, ip
10000b86:	6019      	str	r1, [r3, #0]
10000b88:	605a      	str	r2, [r3, #4]
10000b8a:	9a0e      	ldr	r2, [sp, #56]	; 0x38
10000b8c:	609a      	str	r2, [r3, #8]
10000b8e:	9a0f      	ldr	r2, [sp, #60]	; 0x3c
10000b90:	60da      	str	r2, [r3, #12]
10000b92:	4642      	mov	r2, r8
10000b94:	6833      	ldr	r3, [r6, #0]
10000b96:	19db      	adds	r3, r3, r7
10000b98:	709a      	strb	r2, [r3, #2]
10000b9a:	705a      	strb	r2, [r3, #1]
10000b9c:	701a      	strb	r2, [r3, #0]
10000b9e:	7b73      	ldrb	r3, [r6, #13]
10000ba0:	9303      	str	r3, [sp, #12]
10000ba2:	2b00      	cmp	r3, #0
10000ba4:	d040      	beq.n	10000c28 <alarm_pool_add_alarm_at+0x108>
10000ba6:	0019      	movs	r1, r3
10000ba8:	6873      	ldr	r3, [r6, #4]
10000baa:	0022      	movs	r2, r4
10000bac:	469c      	mov	ip, r3
10000bae:	68b0      	ldr	r0, [r6, #8]
10000bb0:	47e0      	blx	ip
10000bb2:	9903      	ldr	r1, [sp, #12]
10000bb4:	6832      	ldr	r2, [r6, #0]
10000bb6:	468c      	mov	ip, r1
10000bb8:	004b      	lsls	r3, r1, #1
10000bba:	4463      	add	r3, ip
10000bbc:	3b03      	subs	r3, #3
10000bbe:	2800      	cmp	r0, #0
10000bc0:	d02b      	beq.n	10000c1a <alarm_pool_add_alarm_at+0xfa>
10000bc2:	19d7      	adds	r7, r2, r7
10000bc4:	18d3      	adds	r3, r2, r3
10000bc6:	70b9      	strb	r1, [r7, #2]
10000bc8:	781a      	ldrb	r2, [r3, #0]
10000bca:	2a00      	cmp	r2, #0
10000bcc:	d000      	beq.n	10000bd0 <alarm_pool_add_alarm_at+0xb0>
10000bce:	e073      	b.n	10000cb8 <alarm_pool_add_alarm_at+0x198>
10000bd0:	701c      	strb	r4, [r3, #0]
10000bd2:	9b03      	ldr	r3, [sp, #12]
10000bd4:	7373      	strb	r3, [r6, #13]
10000bd6:	429c      	cmp	r4, r3
10000bd8:	d027      	beq.n	10000c2a <alarm_pool_add_alarm_at+0x10a>
10000bda:	68eb      	ldr	r3, [r5, #12]
10000bdc:	191b      	adds	r3, r3, r4
10000bde:	3b01      	subs	r3, #1
10000be0:	7818      	ldrb	r0, [r3, #0]
10000be2:	686b      	ldr	r3, [r5, #4]
10000be4:	f3bf 8f5f 	dmb	sy
10000be8:	4642      	mov	r2, r8
10000bea:	601a      	str	r2, [r3, #0]
10000bec:	f389 8810 	msr	PRIMASK, r9
10000bf0:	4653      	mov	r3, sl
10000bf2:	2b00      	cmp	r3, #0
10000bf4:	d126      	bne.n	10000c44 <alarm_pool_add_alarm_at+0x124>
10000bf6:	0200      	lsls	r0, r0, #8
10000bf8:	4320      	orrs	r0, r4
10000bfa:	e007      	b.n	10000c0c <alarm_pool_add_alarm_at+0xec>
10000bfc:	686b      	ldr	r3, [r5, #4]
10000bfe:	f3bf 8f5f 	dmb	sy
10000c02:	601c      	str	r4, [r3, #0]
10000c04:	f389 8810 	msr	PRIMASK, r9
10000c08:	2001      	movs	r0, #1
10000c0a:	4240      	negs	r0, r0
10000c0c:	b005      	add	sp, #20
10000c0e:	bc3c      	pop	{r2, r3, r4, r5}
10000c10:	4690      	mov	r8, r2
10000c12:	4699      	mov	r9, r3
10000c14:	46a2      	mov	sl, r4
10000c16:	46ab      	mov	fp, r5
10000c18:	bdf0      	pop	{r4, r5, r6, r7, pc}
10000c1a:	18d3      	adds	r3, r2, r3
10000c1c:	19d7      	adds	r7, r2, r7
10000c1e:	709c      	strb	r4, [r3, #2]
10000c20:	783a      	ldrb	r2, [r7, #0]
10000c22:	2a00      	cmp	r2, #0
10000c24:	d144      	bne.n	10000cb0 <alarm_pool_add_alarm_at+0x190>
10000c26:	7039      	strb	r1, [r7, #0]
10000c28:	7374      	strb	r4, [r6, #13]
10000c2a:	7d28      	ldrb	r0, [r5, #20]
10000c2c:	9a00      	ldr	r2, [sp, #0]
10000c2e:	9b01      	ldr	r3, [sp, #4]
10000c30:	f000 fafc 	bl	1000122c <hardware_alarm_set_target>
10000c34:	4682      	mov	sl, r0
10000c36:	2800      	cmp	r0, #0
10000c38:	d0cf      	beq.n	10000bda <alarm_pool_add_alarm_at+0xba>
10000c3a:	0021      	movs	r1, r4
10000c3c:	6828      	ldr	r0, [r5, #0]
10000c3e:	f000 fcd3 	bl	100015e8 <ph_remove_and_free_node>
10000c42:	e7ca      	b.n	10000bda <alarm_pool_add_alarm_at+0xba>
10000c44:	465b      	mov	r3, fp
10000c46:	2b00      	cmp	r3, #0
10000c48:	d030      	beq.n	10000cac <alarm_pool_add_alarm_at+0x18c>
10000c4a:	9b0e      	ldr	r3, [sp, #56]	; 0x38
10000c4c:	990f      	ldr	r1, [sp, #60]	; 0x3c
10000c4e:	2000      	movs	r0, #0
10000c50:	4798      	blx	r3
10000c52:	0003      	movs	r3, r0
10000c54:	430b      	orrs	r3, r1
10000c56:	d029      	beq.n	10000cac <alarm_pool_add_alarm_at+0x18c>
10000c58:	0006      	movs	r6, r0
10000c5a:	1e0f      	subs	r7, r1, #0
10000c5c:	da15      	bge.n	10000c8a <alarm_pool_add_alarm_at+0x16a>
10000c5e:	9800      	ldr	r0, [sp, #0]
10000c60:	9901      	ldr	r1, [sp, #4]
10000c62:	0002      	movs	r2, r0
10000c64:	000b      	movs	r3, r1
10000c66:	1b92      	subs	r2, r2, r6
10000c68:	41bb      	sbcs	r3, r7
10000c6a:	4299      	cmp	r1, r3
10000c6c:	d802      	bhi.n	10000c74 <alarm_pool_add_alarm_at+0x154>
10000c6e:	d108      	bne.n	10000c82 <alarm_pool_add_alarm_at+0x162>
10000c70:	4290      	cmp	r0, r2
10000c72:	d906      	bls.n	10000c82 <alarm_pool_add_alarm_at+0x162>
10000c74:	2301      	movs	r3, #1
10000c76:	425b      	negs	r3, r3
10000c78:	17dc      	asrs	r4, r3, #31
10000c7a:	9300      	str	r3, [sp, #0]
10000c7c:	9401      	str	r4, [sp, #4]
10000c7e:	46da      	mov	sl, fp
10000c80:	e75e      	b.n	10000b40 <alarm_pool_add_alarm_at+0x20>
10000c82:	9200      	str	r2, [sp, #0]
10000c84:	9301      	str	r3, [sp, #4]
10000c86:	46da      	mov	sl, fp
10000c88:	e75a      	b.n	10000b40 <alarm_pool_add_alarm_at+0x20>
10000c8a:	f000 fa6d 	bl	10001168 <time_us_64>
10000c8e:	1836      	adds	r6, r6, r0
10000c90:	414f      	adcs	r7, r1
10000c92:	9600      	str	r6, [sp, #0]
10000c94:	9701      	str	r7, [sp, #4]
10000c96:	42b9      	cmp	r1, r7
10000c98:	d8ec      	bhi.n	10000c74 <alarm_pool_add_alarm_at+0x154>
10000c9a:	d1f0      	bne.n	10000c7e <alarm_pool_add_alarm_at+0x15e>
10000c9c:	42b0      	cmp	r0, r6
10000c9e:	d9ee      	bls.n	10000c7e <alarm_pool_add_alarm_at+0x15e>
10000ca0:	2301      	movs	r3, #1
10000ca2:	425b      	negs	r3, r3
10000ca4:	17dc      	asrs	r4, r3, #31
10000ca6:	9300      	str	r3, [sp, #0]
10000ca8:	9401      	str	r4, [sp, #4]
10000caa:	e7e8      	b.n	10000c7e <alarm_pool_add_alarm_at+0x15e>
10000cac:	2000      	movs	r0, #0
10000cae:	e7ad      	b.n	10000c0c <alarm_pool_add_alarm_at+0xec>
10000cb0:	705a      	strb	r2, [r3, #1]
10000cb2:	9b03      	ldr	r3, [sp, #12]
10000cb4:	703b      	strb	r3, [r7, #0]
10000cb6:	e7b7      	b.n	10000c28 <alarm_pool_add_alarm_at+0x108>
10000cb8:	707a      	strb	r2, [r7, #1]
10000cba:	701c      	strb	r4, [r3, #0]
10000cbc:	9b03      	ldr	r3, [sp, #12]
10000cbe:	7373      	strb	r3, [r6, #13]
10000cc0:	429c      	cmp	r4, r3
10000cc2:	d000      	beq.n	10000cc6 <alarm_pool_add_alarm_at+0x1a6>
10000cc4:	e789      	b.n	10000bda <alarm_pool_add_alarm_at+0xba>
10000cc6:	e7b0      	b.n	10000c2a <alarm_pool_add_alarm_at+0x10a>
10000cc8:	0fffffff 	.word	0x0fffffff

10000ccc <sleep_until>:
10000ccc:	b5f0      	push	{r4, r5, r6, r7, lr}
10000cce:	4657      	mov	r7, sl
10000cd0:	464e      	mov	r6, r9
10000cd2:	4645      	mov	r5, r8
10000cd4:	46de      	mov	lr, fp
10000cd6:	0004      	movs	r4, r0
10000cd8:	b5e0      	push	{r5, r6, r7, lr}
10000cda:	000d      	movs	r5, r1
10000cdc:	2606      	movs	r6, #6
10000cde:	4276      	negs	r6, r6
10000ce0:	17f7      	asrs	r7, r6, #31
10000ce2:	1936      	adds	r6, r6, r4
10000ce4:	416f      	adcs	r7, r5
10000ce6:	b083      	sub	sp, #12
10000ce8:	428f      	cmp	r7, r1
10000cea:	d900      	bls.n	10000cee <sleep_until+0x22>
10000cec:	e07f      	b.n	10000dee <sleep_until+0x122>
10000cee:	d07b      	beq.n	10000de8 <sleep_until+0x11c>
10000cf0:	f000 fa3a 	bl	10001168 <time_us_64>
10000cf4:	0032      	movs	r2, r6
10000cf6:	003b      	movs	r3, r7
10000cf8:	1a12      	subs	r2, r2, r0
10000cfa:	418b      	sbcs	r3, r1
10000cfc:	2b00      	cmp	r3, #0
10000cfe:	dc00      	bgt.n	10000d02 <sleep_until+0x36>
10000d00:	e080      	b.n	10000e04 <sleep_until+0x138>
10000d02:	4b5c      	ldr	r3, [pc, #368]	; (10000e74 <sleep_until+0x1a8>)
10000d04:	4699      	mov	r9, r3
10000d06:	685a      	ldr	r2, [r3, #4]
10000d08:	f3ef 8b10 	mrs	fp, PRIMASK
10000d0c:	b672      	cpsid	i
10000d0e:	6813      	ldr	r3, [r2, #0]
10000d10:	2b00      	cmp	r3, #0
10000d12:	d0fc      	beq.n	10000d0e <sleep_until+0x42>
10000d14:	f3bf 8f5f 	dmb	sy
10000d18:	464b      	mov	r3, r9
10000d1a:	681b      	ldr	r3, [r3, #0]
10000d1c:	4698      	mov	r8, r3
10000d1e:	7b9b      	ldrb	r3, [r3, #14]
10000d20:	469a      	mov	sl, r3
10000d22:	2b00      	cmp	r3, #0
10000d24:	d074      	beq.n	10000e10 <sleep_until+0x144>
10000d26:	005b      	lsls	r3, r3, #1
10000d28:	4453      	add	r3, sl
10000d2a:	4642      	mov	r2, r8
10000d2c:	3b03      	subs	r3, #3
10000d2e:	469c      	mov	ip, r3
10000d30:	4641      	mov	r1, r8
10000d32:	6812      	ldr	r2, [r2, #0]
10000d34:	9300      	str	r3, [sp, #0]
10000d36:	4462      	add	r2, ip
10000d38:	7853      	ldrb	r3, [r2, #1]
10000d3a:	738b      	strb	r3, [r1, #14]
10000d3c:	2b00      	cmp	r3, #0
10000d3e:	d100      	bne.n	10000d42 <sleep_until+0x76>
10000d40:	73cb      	strb	r3, [r1, #15]
10000d42:	2300      	movs	r3, #0
10000d44:	4649      	mov	r1, r9
10000d46:	7093      	strb	r3, [r2, #2]
10000d48:	7053      	strb	r3, [r2, #1]
10000d4a:	7013      	strb	r3, [r2, #0]
10000d4c:	6889      	ldr	r1, [r1, #8]
10000d4e:	4a4a      	ldr	r2, [pc, #296]	; (10000e78 <sleep_until+0x1ac>)
10000d50:	468c      	mov	ip, r1
10000d52:	4452      	add	r2, sl
10000d54:	4949      	ldr	r1, [pc, #292]	; (10000e7c <sleep_until+0x1b0>)
10000d56:	0112      	lsls	r2, r2, #4
10000d58:	4462      	add	r2, ip
10000d5a:	6016      	str	r6, [r2, #0]
10000d5c:	6057      	str	r7, [r2, #4]
10000d5e:	6091      	str	r1, [r2, #8]
10000d60:	60d3      	str	r3, [r2, #12]
10000d62:	9900      	ldr	r1, [sp, #0]
10000d64:	4642      	mov	r2, r8
10000d66:	468c      	mov	ip, r1
10000d68:	6812      	ldr	r2, [r2, #0]
10000d6a:	4462      	add	r2, ip
10000d6c:	7093      	strb	r3, [r2, #2]
10000d6e:	7053      	strb	r3, [r2, #1]
10000d70:	7013      	strb	r3, [r2, #0]
10000d72:	4643      	mov	r3, r8
10000d74:	7b5b      	ldrb	r3, [r3, #13]
10000d76:	9301      	str	r3, [sp, #4]
10000d78:	2b00      	cmp	r3, #0
10000d7a:	d069      	beq.n	10000e50 <sleep_until+0x184>
10000d7c:	0019      	movs	r1, r3
10000d7e:	4640      	mov	r0, r8
10000d80:	4643      	mov	r3, r8
10000d82:	4652      	mov	r2, sl
10000d84:	685b      	ldr	r3, [r3, #4]
10000d86:	6880      	ldr	r0, [r0, #8]
10000d88:	4798      	blx	r3
10000d8a:	9b01      	ldr	r3, [sp, #4]
10000d8c:	469c      	mov	ip, r3
10000d8e:	005a      	lsls	r2, r3, #1
10000d90:	4462      	add	r2, ip
10000d92:	3a03      	subs	r2, #3
10000d94:	2800      	cmp	r0, #0
10000d96:	d04e      	beq.n	10000e36 <sleep_until+0x16a>
10000d98:	9900      	ldr	r1, [sp, #0]
10000d9a:	4640      	mov	r0, r8
10000d9c:	468c      	mov	ip, r1
10000d9e:	6803      	ldr	r3, [r0, #0]
10000da0:	9901      	ldr	r1, [sp, #4]
10000da2:	189a      	adds	r2, r3, r2
10000da4:	4463      	add	r3, ip
10000da6:	7099      	strb	r1, [r3, #2]
10000da8:	7811      	ldrb	r1, [r2, #0]
10000daa:	2900      	cmp	r1, #0
10000dac:	d000      	beq.n	10000db0 <sleep_until+0xe4>
10000dae:	7059      	strb	r1, [r3, #1]
10000db0:	4653      	mov	r3, sl
10000db2:	7013      	strb	r3, [r2, #0]
10000db4:	4642      	mov	r2, r8
10000db6:	9b01      	ldr	r3, [sp, #4]
10000db8:	7353      	strb	r3, [r2, #13]
10000dba:	459a      	cmp	sl, r3
10000dbc:	d04b      	beq.n	10000e56 <sleep_until+0x18a>
10000dbe:	464b      	mov	r3, r9
10000dc0:	685b      	ldr	r3, [r3, #4]
10000dc2:	f3bf 8f5f 	dmb	sy
10000dc6:	2200      	movs	r2, #0
10000dc8:	601a      	str	r2, [r3, #0]
10000dca:	f38b 8810 	msr	PRIMASK, fp
10000dce:	4a2c      	ldr	r2, [pc, #176]	; (10000e80 <sleep_until+0x1b4>)
10000dd0:	0039      	movs	r1, r7
10000dd2:	e002      	b.n	10000dda <sleep_until+0x10e>
10000dd4:	4299      	cmp	r1, r3
10000dd6:	d123      	bne.n	10000e20 <sleep_until+0x154>
10000dd8:	bf20      	wfe
10000dda:	6a53      	ldr	r3, [r2, #36]	; 0x24
10000ddc:	4299      	cmp	r1, r3
10000dde:	d8fb      	bhi.n	10000dd8 <sleep_until+0x10c>
10000de0:	6a90      	ldr	r0, [r2, #40]	; 0x28
10000de2:	42b0      	cmp	r0, r6
10000de4:	d21c      	bcs.n	10000e20 <sleep_until+0x154>
10000de6:	e7f5      	b.n	10000dd4 <sleep_until+0x108>
10000de8:	4286      	cmp	r6, r0
10000dea:	d800      	bhi.n	10000dee <sleep_until+0x122>
10000dec:	e780      	b.n	10000cf0 <sleep_until+0x24>
10000dee:	2600      	movs	r6, #0
10000df0:	2700      	movs	r7, #0
10000df2:	f000 f9b9 	bl	10001168 <time_us_64>
10000df6:	0032      	movs	r2, r6
10000df8:	003b      	movs	r3, r7
10000dfa:	1a12      	subs	r2, r2, r0
10000dfc:	418b      	sbcs	r3, r1
10000dfe:	2b00      	cmp	r3, #0
10000e00:	dd00      	ble.n	10000e04 <sleep_until+0x138>
10000e02:	e77e      	b.n	10000d02 <sleep_until+0x36>
10000e04:	2b00      	cmp	r3, #0
10000e06:	d10b      	bne.n	10000e20 <sleep_until+0x154>
10000e08:	2a00      	cmp	r2, #0
10000e0a:	d000      	beq.n	10000e0e <sleep_until+0x142>
10000e0c:	e779      	b.n	10000d02 <sleep_until+0x36>
10000e0e:	e007      	b.n	10000e20 <sleep_until+0x154>
10000e10:	464b      	mov	r3, r9
10000e12:	685b      	ldr	r3, [r3, #4]
10000e14:	f3bf 8f5f 	dmb	sy
10000e18:	4652      	mov	r2, sl
10000e1a:	601a      	str	r2, [r3, #0]
10000e1c:	f38b 8810 	msr	PRIMASK, fp
10000e20:	0020      	movs	r0, r4
10000e22:	0029      	movs	r1, r5
10000e24:	f000 f9ac 	bl	10001180 <busy_wait_until>
10000e28:	b003      	add	sp, #12
10000e2a:	bc3c      	pop	{r2, r3, r4, r5}
10000e2c:	4690      	mov	r8, r2
10000e2e:	4699      	mov	r9, r3
10000e30:	46a2      	mov	sl, r4
10000e32:	46ab      	mov	fp, r5
10000e34:	bdf0      	pop	{r4, r5, r6, r7, pc}
10000e36:	4643      	mov	r3, r8
10000e38:	6819      	ldr	r1, [r3, #0]
10000e3a:	9b00      	ldr	r3, [sp, #0]
10000e3c:	188a      	adds	r2, r1, r2
10000e3e:	18cb      	adds	r3, r1, r3
10000e40:	4651      	mov	r1, sl
10000e42:	7091      	strb	r1, [r2, #2]
10000e44:	7819      	ldrb	r1, [r3, #0]
10000e46:	2900      	cmp	r1, #0
10000e48:	d000      	beq.n	10000e4c <sleep_until+0x180>
10000e4a:	7051      	strb	r1, [r2, #1]
10000e4c:	9a01      	ldr	r2, [sp, #4]
10000e4e:	701a      	strb	r2, [r3, #0]
10000e50:	4643      	mov	r3, r8
10000e52:	4652      	mov	r2, sl
10000e54:	735a      	strb	r2, [r3, #13]
10000e56:	464b      	mov	r3, r9
10000e58:	0032      	movs	r2, r6
10000e5a:	7d18      	ldrb	r0, [r3, #20]
10000e5c:	003b      	movs	r3, r7
10000e5e:	f000 f9e5 	bl	1000122c <hardware_alarm_set_target>
10000e62:	2800      	cmp	r0, #0
10000e64:	d0ab      	beq.n	10000dbe <sleep_until+0xf2>
10000e66:	464b      	mov	r3, r9
10000e68:	4651      	mov	r1, sl
10000e6a:	6818      	ldr	r0, [r3, #0]
10000e6c:	f000 fbbc 	bl	100015e8 <ph_remove_and_free_node>
10000e70:	e7a5      	b.n	10000dbe <sleep_until+0xf2>
10000e72:	46c0      	nop			; (mov r8, r8)
10000e74:	20000250 	.word	0x20000250
10000e78:	0fffffff 	.word	0x0fffffff
10000e7c:	100007bd 	.word	0x100007bd
10000e80:	40054000 	.word	0x40054000

10000e84 <sleep_us>:
10000e84:	b570      	push	{r4, r5, r6, lr}
10000e86:	0004      	movs	r4, r0
10000e88:	000d      	movs	r5, r1
10000e8a:	f000 f96d 	bl	10001168 <time_us_64>
10000e8e:	0002      	movs	r2, r0
10000e90:	000b      	movs	r3, r1
10000e92:	0020      	movs	r0, r4
10000e94:	0029      	movs	r1, r5
10000e96:	1880      	adds	r0, r0, r2
10000e98:	4159      	adcs	r1, r3
10000e9a:	428b      	cmp	r3, r1
10000e9c:	d905      	bls.n	10000eaa <sleep_us+0x26>
10000e9e:	2001      	movs	r0, #1
10000ea0:	4240      	negs	r0, r0
10000ea2:	17c1      	asrs	r1, r0, #31
10000ea4:	f7ff ff12 	bl	10000ccc <sleep_until>
10000ea8:	bd70      	pop	{r4, r5, r6, pc}
10000eaa:	428b      	cmp	r3, r1
10000eac:	d1fa      	bne.n	10000ea4 <sleep_us+0x20>
10000eae:	4282      	cmp	r2, r0
10000eb0:	d8f5      	bhi.n	10000e9e <sleep_us+0x1a>
10000eb2:	e7f7      	b.n	10000ea4 <sleep_us+0x20>

10000eb4 <sleep_ms>:
10000eb4:	b570      	push	{r4, r5, r6, lr}
10000eb6:	0006      	movs	r6, r0
10000eb8:	f000 f956 	bl	10001168 <time_us_64>
10000ebc:	22fa      	movs	r2, #250	; 0xfa
10000ebe:	0004      	movs	r4, r0
10000ec0:	000d      	movs	r5, r1
10000ec2:	0092      	lsls	r2, r2, #2
10000ec4:	2300      	movs	r3, #0
10000ec6:	0030      	movs	r0, r6
10000ec8:	2100      	movs	r1, #0
10000eca:	f004 fb2b 	bl	10005524 <__wrap___aeabi_lmul>
10000ece:	1900      	adds	r0, r0, r4
10000ed0:	4169      	adcs	r1, r5
10000ed2:	428d      	cmp	r5, r1
10000ed4:	d905      	bls.n	10000ee2 <sleep_ms+0x2e>
10000ed6:	2001      	movs	r0, #1
10000ed8:	4240      	negs	r0, r0
10000eda:	17c1      	asrs	r1, r0, #31
10000edc:	f7ff fef6 	bl	10000ccc <sleep_until>
10000ee0:	bd70      	pop	{r4, r5, r6, pc}
10000ee2:	428d      	cmp	r5, r1
10000ee4:	d1fa      	bne.n	10000edc <sleep_ms+0x28>
10000ee6:	4284      	cmp	r4, r0
10000ee8:	d8f5      	bhi.n	10000ed6 <sleep_ms+0x22>
10000eea:	e7f7      	b.n	10000edc <sleep_ms+0x28>

10000eec <best_effort_wfe_or_timeout>:
10000eec:	b5f8      	push	{r3, r4, r5, r6, r7, lr}
10000eee:	4657      	mov	r7, sl
10000ef0:	464e      	mov	r6, r9
10000ef2:	46de      	mov	lr, fp
10000ef4:	4645      	mov	r5, r8
10000ef6:	4c66      	ldr	r4, [pc, #408]	; (10001090 <best_effort_wfe_or_timeout+0x1a4>)
10000ef8:	b5e0      	push	{r5, r6, r7, lr}
10000efa:	4681      	mov	r9, r0
10000efc:	000f      	movs	r7, r1
10000efe:	6862      	ldr	r2, [r4, #4]
10000f00:	f3ef 8810 	mrs	r8, PRIMASK
10000f04:	b672      	cpsid	i
10000f06:	6813      	ldr	r3, [r2, #0]
10000f08:	2b00      	cmp	r3, #0
10000f0a:	d0fc      	beq.n	10000f06 <best_effort_wfe_or_timeout+0x1a>
10000f0c:	f3bf 8f5f 	dmb	sy
10000f10:	6826      	ldr	r6, [r4, #0]
10000f12:	7bb5      	ldrb	r5, [r6, #14]
10000f14:	2d00      	cmp	r5, #0
10000f16:	d100      	bne.n	10000f1a <best_effort_wfe_or_timeout+0x2e>
10000f18:	e09f      	b.n	1000105a <best_effort_wfe_or_timeout+0x16e>
10000f1a:	006b      	lsls	r3, r5, #1
10000f1c:	195b      	adds	r3, r3, r5
10000f1e:	3b03      	subs	r3, #3
10000f20:	469a      	mov	sl, r3
10000f22:	6833      	ldr	r3, [r6, #0]
10000f24:	4453      	add	r3, sl
10000f26:	001a      	movs	r2, r3
10000f28:	785b      	ldrb	r3, [r3, #1]
10000f2a:	73b3      	strb	r3, [r6, #14]
10000f2c:	2b00      	cmp	r3, #0
10000f2e:	d100      	bne.n	10000f32 <best_effort_wfe_or_timeout+0x46>
10000f30:	73f3      	strb	r3, [r6, #15]
10000f32:	2300      	movs	r3, #0
10000f34:	7093      	strb	r3, [r2, #2]
10000f36:	7053      	strb	r3, [r2, #1]
10000f38:	7013      	strb	r3, [r2, #0]
10000f3a:	68a1      	ldr	r1, [r4, #8]
10000f3c:	4a55      	ldr	r2, [pc, #340]	; (10001094 <best_effort_wfe_or_timeout+0x1a8>)
10000f3e:	468c      	mov	ip, r1
10000f40:	4649      	mov	r1, r9
10000f42:	18aa      	adds	r2, r5, r2
10000f44:	0112      	lsls	r2, r2, #4
10000f46:	4462      	add	r2, ip
10000f48:	6011      	str	r1, [r2, #0]
10000f4a:	4953      	ldr	r1, [pc, #332]	; (10001098 <best_effort_wfe_or_timeout+0x1ac>)
10000f4c:	60d3      	str	r3, [r2, #12]
10000f4e:	6057      	str	r7, [r2, #4]
10000f50:	6091      	str	r1, [r2, #8]
10000f52:	6832      	ldr	r2, [r6, #0]
10000f54:	4452      	add	r2, sl
10000f56:	7093      	strb	r3, [r2, #2]
10000f58:	7053      	strb	r3, [r2, #1]
10000f5a:	7013      	strb	r3, [r2, #0]
10000f5c:	7b73      	ldrb	r3, [r6, #13]
10000f5e:	469b      	mov	fp, r3
10000f60:	2b00      	cmp	r3, #0
10000f62:	d06d      	beq.n	10001040 <best_effort_wfe_or_timeout+0x154>
10000f64:	002a      	movs	r2, r5
10000f66:	0019      	movs	r1, r3
10000f68:	68b0      	ldr	r0, [r6, #8]
10000f6a:	6873      	ldr	r3, [r6, #4]
10000f6c:	4798      	blx	r3
10000f6e:	465b      	mov	r3, fp
10000f70:	005a      	lsls	r2, r3, #1
10000f72:	445a      	add	r2, fp
10000f74:	3a03      	subs	r2, #3
10000f76:	2800      	cmp	r0, #0
10000f78:	d057      	beq.n	1000102a <best_effort_wfe_or_timeout+0x13e>
10000f7a:	4659      	mov	r1, fp
10000f7c:	6833      	ldr	r3, [r6, #0]
10000f7e:	189a      	adds	r2, r3, r2
10000f80:	4453      	add	r3, sl
10000f82:	7099      	strb	r1, [r3, #2]
10000f84:	7811      	ldrb	r1, [r2, #0]
10000f86:	2900      	cmp	r1, #0
10000f88:	d000      	beq.n	10000f8c <best_effort_wfe_or_timeout+0xa0>
10000f8a:	7059      	strb	r1, [r3, #1]
10000f8c:	465b      	mov	r3, fp
10000f8e:	7015      	strb	r5, [r2, #0]
10000f90:	7373      	strb	r3, [r6, #13]
10000f92:	455d      	cmp	r5, fp
10000f94:	d055      	beq.n	10001042 <best_effort_wfe_or_timeout+0x156>
10000f96:	2600      	movs	r6, #0
10000f98:	68e3      	ldr	r3, [r4, #12]
10000f9a:	6862      	ldr	r2, [r4, #4]
10000f9c:	195b      	adds	r3, r3, r5
10000f9e:	3b01      	subs	r3, #1
10000fa0:	781b      	ldrb	r3, [r3, #0]
10000fa2:	f3bf 8f5f 	dmb	sy
10000fa6:	2100      	movs	r1, #0
10000fa8:	6011      	str	r1, [r2, #0]
10000faa:	f388 8810 	msr	PRIMASK, r8
10000fae:	2e00      	cmp	r6, #0
10000fb0:	d159      	bne.n	10001066 <best_effort_wfe_or_timeout+0x17a>
10000fb2:	021b      	lsls	r3, r3, #8
10000fb4:	431d      	orrs	r5, r3
10000fb6:	bf20      	wfe
10000fb8:	6862      	ldr	r2, [r4, #4]
10000fba:	f3ef 8810 	mrs	r8, PRIMASK
10000fbe:	b672      	cpsid	i
10000fc0:	6813      	ldr	r3, [r2, #0]
10000fc2:	2b00      	cmp	r3, #0
10000fc4:	d0fc      	beq.n	10000fc0 <best_effort_wfe_or_timeout+0xd4>
10000fc6:	f3bf 8f5f 	dmb	sy
10000fca:	23ff      	movs	r3, #255	; 0xff
10000fcc:	6820      	ldr	r0, [r4, #0]
10000fce:	b2e9      	uxtb	r1, r5
10000fd0:	7b42      	ldrb	r2, [r0, #13]
10000fd2:	402b      	ands	r3, r5
10000fd4:	428a      	cmp	r2, r1
10000fd6:	d050      	beq.n	1000107a <best_effort_wfe_or_timeout+0x18e>
10000fd8:	005a      	lsls	r2, r3, #1
10000fda:	4692      	mov	sl, r2
10000fdc:	6802      	ldr	r2, [r0, #0]
10000fde:	449a      	add	sl, r3
10000fe0:	4694      	mov	ip, r2
10000fe2:	4652      	mov	r2, sl
10000fe4:	4462      	add	r2, ip
10000fe6:	3a03      	subs	r2, #3
10000fe8:	7892      	ldrb	r2, [r2, #2]
10000fea:	2a00      	cmp	r2, #0
10000fec:	d145      	bne.n	1000107a <best_effort_wfe_or_timeout+0x18e>
10000fee:	6923      	ldr	r3, [r4, #16]
10000ff0:	429d      	cmp	r5, r3
10000ff2:	d100      	bne.n	10000ff6 <best_effort_wfe_or_timeout+0x10a>
10000ff4:	6122      	str	r2, [r4, #16]
10000ff6:	6863      	ldr	r3, [r4, #4]
10000ff8:	f3bf 8f5f 	dmb	sy
10000ffc:	2200      	movs	r2, #0
10000ffe:	601a      	str	r2, [r3, #0]
10001000:	f388 8810 	msr	PRIMASK, r8
10001004:	4a25      	ldr	r2, [pc, #148]	; (1000109c <best_effort_wfe_or_timeout+0x1b0>)
10001006:	6a53      	ldr	r3, [r2, #36]	; 0x24
10001008:	429f      	cmp	r7, r3
1000100a:	d807      	bhi.n	1000101c <best_effort_wfe_or_timeout+0x130>
1000100c:	6a92      	ldr	r2, [r2, #40]	; 0x28
1000100e:	2601      	movs	r6, #1
10001010:	454a      	cmp	r2, r9
10001012:	d203      	bcs.n	1000101c <best_effort_wfe_or_timeout+0x130>
10001014:	1aff      	subs	r7, r7, r3
10001016:	1e7b      	subs	r3, r7, #1
10001018:	419f      	sbcs	r7, r3
1000101a:	b2fe      	uxtb	r6, r7
1000101c:	0030      	movs	r0, r6
1000101e:	bc3c      	pop	{r2, r3, r4, r5}
10001020:	4690      	mov	r8, r2
10001022:	4699      	mov	r9, r3
10001024:	46a2      	mov	sl, r4
10001026:	46ab      	mov	fp, r5
10001028:	bdf8      	pop	{r3, r4, r5, r6, r7, pc}
1000102a:	4653      	mov	r3, sl
1000102c:	6831      	ldr	r1, [r6, #0]
1000102e:	188a      	adds	r2, r1, r2
10001030:	18cb      	adds	r3, r1, r3
10001032:	7095      	strb	r5, [r2, #2]
10001034:	7819      	ldrb	r1, [r3, #0]
10001036:	2900      	cmp	r1, #0
10001038:	d000      	beq.n	1000103c <best_effort_wfe_or_timeout+0x150>
1000103a:	7051      	strb	r1, [r2, #1]
1000103c:	465a      	mov	r2, fp
1000103e:	701a      	strb	r2, [r3, #0]
10001040:	7375      	strb	r5, [r6, #13]
10001042:	7d20      	ldrb	r0, [r4, #20]
10001044:	464a      	mov	r2, r9
10001046:	003b      	movs	r3, r7
10001048:	f000 f8f0 	bl	1000122c <hardware_alarm_set_target>
1000104c:	1e06      	subs	r6, r0, #0
1000104e:	d0a2      	beq.n	10000f96 <best_effort_wfe_or_timeout+0xaa>
10001050:	0029      	movs	r1, r5
10001052:	6820      	ldr	r0, [r4, #0]
10001054:	f000 fac8 	bl	100015e8 <ph_remove_and_free_node>
10001058:	e79e      	b.n	10000f98 <best_effort_wfe_or_timeout+0xac>
1000105a:	6863      	ldr	r3, [r4, #4]
1000105c:	f3bf 8f5f 	dmb	sy
10001060:	601d      	str	r5, [r3, #0]
10001062:	f388 8810 	msr	PRIMASK, r8
10001066:	4a0d      	ldr	r2, [pc, #52]	; (1000109c <best_effort_wfe_or_timeout+0x1b0>)
10001068:	2600      	movs	r6, #0
1000106a:	6a53      	ldr	r3, [r2, #36]	; 0x24
1000106c:	429f      	cmp	r7, r3
1000106e:	d8d5      	bhi.n	1000101c <best_effort_wfe_or_timeout+0x130>
10001070:	6a92      	ldr	r2, [r2, #40]	; 0x28
10001072:	3601      	adds	r6, #1
10001074:	454a      	cmp	r2, r9
10001076:	d3cd      	bcc.n	10001014 <best_effort_wfe_or_timeout+0x128>
10001078:	e7d0      	b.n	1000101c <best_effort_wfe_or_timeout+0x130>
1000107a:	68e2      	ldr	r2, [r4, #12]
1000107c:	0a2d      	lsrs	r5, r5, #8
1000107e:	4694      	mov	ip, r2
10001080:	4463      	add	r3, ip
10001082:	3b01      	subs	r3, #1
10001084:	781b      	ldrb	r3, [r3, #0]
10001086:	42ab      	cmp	r3, r5
10001088:	d1b5      	bne.n	10000ff6 <best_effort_wfe_or_timeout+0x10a>
1000108a:	f000 faad 	bl	100015e8 <ph_remove_and_free_node>
1000108e:	e7b2      	b.n	10000ff6 <best_effort_wfe_or_timeout+0x10a>
10001090:	20000250 	.word	0x20000250
10001094:	0fffffff 	.word	0x0fffffff
10001098:	100007bd 	.word	0x100007bd
1000109c:	40054000 	.word	0x40054000

100010a0 <hardware_alarm_irq_handler>:
100010a0:	b5f0      	push	{r4, r5, r6, r7, lr}
100010a2:	46c6      	mov	lr, r8
100010a4:	b500      	push	{lr}
100010a6:	f3ef 8305 	mrs	r3, IPSR
100010aa:	223f      	movs	r2, #63	; 0x3f
100010ac:	4013      	ands	r3, r2
100010ae:	0018      	movs	r0, r3
100010b0:	3810      	subs	r0, #16
100010b2:	f3ef 8710 	mrs	r7, PRIMASK
100010b6:	b672      	cpsid	i
100010b8:	4d1f      	ldr	r5, [pc, #124]	; (10001138 <hardware_alarm_irq_handler+0x98>)
100010ba:	682a      	ldr	r2, [r5, #0]
100010bc:	2a00      	cmp	r2, #0
100010be:	d0fc      	beq.n	100010ba <hardware_alarm_irq_handler+0x1a>
100010c0:	f3bf 8f5f 	dmb	sy
100010c4:	2201      	movs	r2, #1
100010c6:	0011      	movs	r1, r2
100010c8:	4081      	lsls	r1, r0
100010ca:	4688      	mov	r8, r1
100010cc:	4644      	mov	r4, r8
100010ce:	491b      	ldr	r1, [pc, #108]	; (1000113c <hardware_alarm_irq_handler+0x9c>)
100010d0:	634c      	str	r4, [r1, #52]	; 0x34
100010d2:	4c1b      	ldr	r4, [pc, #108]	; (10001140 <hardware_alarm_irq_handler+0xa0>)
100010d4:	7826      	ldrb	r6, [r4, #0]
100010d6:	46a4      	mov	ip, r4
100010d8:	0034      	movs	r4, r6
100010da:	40c4      	lsrs	r4, r0
100010dc:	4022      	ands	r2, r4
100010de:	d107      	bne.n	100010f0 <hardware_alarm_irq_handler+0x50>
100010e0:	f3bf 8f5f 	dmb	sy
100010e4:	602a      	str	r2, [r5, #0]
100010e6:	f387 8810 	msr	PRIMASK, r7
100010ea:	bc04      	pop	{r2}
100010ec:	4690      	mov	r8, r2
100010ee:	bdf0      	pop	{r4, r5, r6, r7, pc}
100010f0:	6a4c      	ldr	r4, [r1, #36]	; 0x24
100010f2:	4914      	ldr	r1, [pc, #80]	; (10001144 <hardware_alarm_irq_handler+0xa4>)
100010f4:	0082      	lsls	r2, r0, #2
100010f6:	5851      	ldr	r1, [r2, r1]
100010f8:	428c      	cmp	r4, r1
100010fa:	d30f      	bcc.n	1000111c <hardware_alarm_irq_handler+0x7c>
100010fc:	4b12      	ldr	r3, [pc, #72]	; (10001148 <hardware_alarm_irq_handler+0xa8>)
100010fe:	58d2      	ldr	r2, [r2, r3]
10001100:	4643      	mov	r3, r8
10001102:	439e      	bics	r6, r3
10001104:	4663      	mov	r3, ip
10001106:	701e      	strb	r6, [r3, #0]
10001108:	f3bf 8f5f 	dmb	sy
1000110c:	2300      	movs	r3, #0
1000110e:	602b      	str	r3, [r5, #0]
10001110:	f387 8810 	msr	PRIMASK, r7
10001114:	2a00      	cmp	r2, #0
10001116:	d0e8      	beq.n	100010ea <hardware_alarm_irq_handler+0x4a>
10001118:	4790      	blx	r2
1000111a:	e7e6      	b.n	100010ea <hardware_alarm_irq_handler+0x4a>
1000111c:	4a0b      	ldr	r2, [pc, #44]	; (1000114c <hardware_alarm_irq_handler+0xac>)
1000111e:	009b      	lsls	r3, r3, #2
10001120:	4694      	mov	ip, r2
10001122:	4463      	add	r3, ip
10001124:	681a      	ldr	r2, [r3, #0]
10001126:	601a      	str	r2, [r3, #0]
10001128:	f3bf 8f5f 	dmb	sy
1000112c:	2300      	movs	r3, #0
1000112e:	602b      	str	r3, [r5, #0]
10001130:	f387 8810 	msr	PRIMASK, r7
10001134:	e7d9      	b.n	100010ea <hardware_alarm_irq_handler+0x4a>
10001136:	46c0      	nop			; (mov r8, r8)
10001138:	d0000128 	.word	0xd0000128
1000113c:	40054000 	.word	0x40054000
10001140:	20000faa 	.word	0x20000faa
10001144:	20000f90 	.word	0x20000f90
10001148:	200007e4 	.word	0x200007e4
1000114c:	40053fd0 	.word	0x40053fd0

10001150 <hardware_alarm_claim>:
10001150:	b510      	push	{r4, lr}
10001152:	0001      	movs	r1, r0
10001154:	4a02      	ldr	r2, [pc, #8]	; (10001160 <hardware_alarm_claim+0x10>)
10001156:	4803      	ldr	r0, [pc, #12]	; (10001164 <hardware_alarm_claim+0x14>)
10001158:	f7ff fa00 	bl	1000055c <hw_claim_or_assert>
1000115c:	bd10      	pop	{r4, pc}
1000115e:	46c0      	nop			; (mov r8, r8)
10001160:	10008044 	.word	0x10008044
10001164:	20000fa7 	.word	0x20000fa7

10001168 <time_us_64>:
10001168:	4a04      	ldr	r2, [pc, #16]	; (1000117c <time_us_64+0x14>)
1000116a:	6a51      	ldr	r1, [r2, #36]	; 0x24
1000116c:	e000      	b.n	10001170 <time_us_64+0x8>
1000116e:	0019      	movs	r1, r3
10001170:	6a90      	ldr	r0, [r2, #40]	; 0x28
10001172:	6a53      	ldr	r3, [r2, #36]	; 0x24
10001174:	4299      	cmp	r1, r3
10001176:	d1fa      	bne.n	1000116e <time_us_64+0x6>
10001178:	4770      	bx	lr
1000117a:	46c0      	nop			; (mov r8, r8)
1000117c:	40054000 	.word	0x40054000

10001180 <busy_wait_until>:
10001180:	4a06      	ldr	r2, [pc, #24]	; (1000119c <busy_wait_until+0x1c>)
10001182:	6a53      	ldr	r3, [r2, #36]	; 0x24
10001184:	4299      	cmp	r1, r3
10001186:	d8fc      	bhi.n	10001182 <busy_wait_until+0x2>
10001188:	d107      	bne.n	1000119a <busy_wait_until+0x1a>
1000118a:	4b04      	ldr	r3, [pc, #16]	; (1000119c <busy_wait_until+0x1c>)
1000118c:	e002      	b.n	10001194 <busy_wait_until+0x14>
1000118e:	6a5a      	ldr	r2, [r3, #36]	; 0x24
10001190:	4291      	cmp	r1, r2
10001192:	d102      	bne.n	1000119a <busy_wait_until+0x1a>
10001194:	6a9a      	ldr	r2, [r3, #40]	; 0x28
10001196:	4282      	cmp	r2, r0
10001198:	d3f9      	bcc.n	1000118e <busy_wait_until+0xe>
1000119a:	4770      	bx	lr
1000119c:	40054000 	.word	0x40054000

100011a0 <hardware_alarm_set_callback>:
100011a0:	b570      	push	{r4, r5, r6, lr}
100011a2:	0004      	movs	r4, r0
100011a4:	000d      	movs	r5, r1
100011a6:	f3ef 8610 	mrs	r6, PRIMASK
100011aa:	b672      	cpsid	i
100011ac:	4a1a      	ldr	r2, [pc, #104]	; (10001218 <hardware_alarm_set_callback+0x78>)
100011ae:	6813      	ldr	r3, [r2, #0]
100011b0:	2b00      	cmp	r3, #0
100011b2:	d0fc      	beq.n	100011ae <hardware_alarm_set_callback+0xe>
100011b4:	f3bf 8f5f 	dmb	sy
100011b8:	2d00      	cmp	r5, #0
100011ba:	d01b      	beq.n	100011f4 <hardware_alarm_set_callback+0x54>
100011bc:	0020      	movs	r0, r4
100011be:	f000 fe6f 	bl	10001ea0 <irq_get_vtable_handler>
100011c2:	4916      	ldr	r1, [pc, #88]	; (1000121c <hardware_alarm_set_callback+0x7c>)
100011c4:	4288      	cmp	r0, r1
100011c6:	d00a      	beq.n	100011de <hardware_alarm_set_callback+0x3e>
100011c8:	0020      	movs	r0, r4
100011ca:	f000 fe71 	bl	10001eb0 <irq_set_exclusive_handler>
100011ce:	2101      	movs	r1, #1
100011d0:	0020      	movs	r0, r4
100011d2:	f000 fe4b 	bl	10001e6c <irq_set_enabled>
100011d6:	2301      	movs	r3, #1
100011d8:	40a3      	lsls	r3, r4
100011da:	4a11      	ldr	r2, [pc, #68]	; (10001220 <hardware_alarm_set_callback+0x80>)
100011dc:	6013      	str	r3, [r2, #0]
100011de:	4b11      	ldr	r3, [pc, #68]	; (10001224 <hardware_alarm_set_callback+0x84>)
100011e0:	00a4      	lsls	r4, r4, #2
100011e2:	50e5      	str	r5, [r4, r3]
100011e4:	f3bf 8f5f 	dmb	sy
100011e8:	2200      	movs	r2, #0
100011ea:	4b0b      	ldr	r3, [pc, #44]	; (10001218 <hardware_alarm_set_callback+0x78>)
100011ec:	601a      	str	r2, [r3, #0]
100011ee:	f386 8810 	msr	PRIMASK, r6
100011f2:	bd70      	pop	{r4, r5, r6, pc}
100011f4:	4b0b      	ldr	r3, [pc, #44]	; (10001224 <hardware_alarm_set_callback+0x84>)
100011f6:	00a2      	lsls	r2, r4, #2
100011f8:	50d5      	str	r5, [r2, r3]
100011fa:	2201      	movs	r2, #1
100011fc:	40a2      	lsls	r2, r4
100011fe:	490a      	ldr	r1, [pc, #40]	; (10001228 <hardware_alarm_set_callback+0x88>)
10001200:	0020      	movs	r0, r4
10001202:	780b      	ldrb	r3, [r1, #0]
10001204:	4393      	bics	r3, r2
10001206:	700b      	strb	r3, [r1, #0]
10001208:	4904      	ldr	r1, [pc, #16]	; (1000121c <hardware_alarm_set_callback+0x7c>)
1000120a:	f000 fe7b 	bl	10001f04 <irq_remove_handler>
1000120e:	2100      	movs	r1, #0
10001210:	0020      	movs	r0, r4
10001212:	f000 fe2b 	bl	10001e6c <irq_set_enabled>
10001216:	e7e5      	b.n	100011e4 <hardware_alarm_set_callback+0x44>
10001218:	d0000128 	.word	0xd0000128
1000121c:	100010a1 	.word	0x100010a1
10001220:	40056038 	.word	0x40056038
10001224:	200007e4 	.word	0x200007e4
10001228:	20000faa 	.word	0x20000faa

1000122c <hardware_alarm_set_target>:
1000122c:	b5f0      	push	{r4, r5, r6, r7, lr}
1000122e:	46d6      	mov	lr, sl
10001230:	464f      	mov	r7, r9
10001232:	4646      	mov	r6, r8
10001234:	4c2e      	ldr	r4, [pc, #184]	; (100012f0 <hardware_alarm_set_target+0xc4>)
10001236:	b5c0      	push	{r6, r7, lr}
10001238:	6a65      	ldr	r5, [r4, #36]	; 0x24
1000123a:	e000      	b.n	1000123e <hardware_alarm_set_target+0x12>
1000123c:	000d      	movs	r5, r1
1000123e:	6aa6      	ldr	r6, [r4, #40]	; 0x28
10001240:	6a61      	ldr	r1, [r4, #36]	; 0x24
10001242:	42a9      	cmp	r1, r5
10001244:	d1fa      	bne.n	1000123c <hardware_alarm_set_target+0x10>
10001246:	42ab      	cmp	r3, r5
10001248:	d948      	bls.n	100012dc <hardware_alarm_set_target+0xb0>
1000124a:	f3ef 8910 	mrs	r9, PRIMASK
1000124e:	b672      	cpsid	i
10001250:	4c28      	ldr	r4, [pc, #160]	; (100012f4 <hardware_alarm_set_target+0xc8>)
10001252:	6821      	ldr	r1, [r4, #0]
10001254:	2900      	cmp	r1, #0
10001256:	d0fc      	beq.n	10001252 <hardware_alarm_set_target+0x26>
10001258:	f3bf 8f5f 	dmb	sy
1000125c:	4926      	ldr	r1, [pc, #152]	; (100012f8 <hardware_alarm_set_target+0xcc>)
1000125e:	2601      	movs	r6, #1
10001260:	468c      	mov	ip, r1
10001262:	7809      	ldrb	r1, [r1, #0]
10001264:	4086      	lsls	r6, r0
10001266:	000f      	movs	r7, r1
10001268:	4688      	mov	r8, r1
1000126a:	4661      	mov	r1, ip
1000126c:	4337      	orrs	r7, r6
1000126e:	b2ff      	uxtb	r7, r7
10001270:	700f      	strb	r7, [r1, #0]
10001272:	1d04      	adds	r4, r0, #4
10001274:	491e      	ldr	r1, [pc, #120]	; (100012f0 <hardware_alarm_set_target+0xc4>)
10001276:	00a4      	lsls	r4, r4, #2
10001278:	4d20      	ldr	r5, [pc, #128]	; (100012fc <hardware_alarm_set_target+0xd0>)
1000127a:	634e      	str	r6, [r1, #52]	; 0x34
1000127c:	5062      	str	r2, [r4, r1]
1000127e:	0084      	lsls	r4, r0, #2
10001280:	5163      	str	r3, [r4, r5]
10001282:	6a0d      	ldr	r5, [r1, #32]
10001284:	2400      	movs	r4, #0
10001286:	4235      	tst	r5, r6
10001288:	d01b      	beq.n	100012c2 <hardware_alarm_set_target+0x96>
1000128a:	6a4d      	ldr	r5, [r1, #36]	; 0x24
1000128c:	e000      	b.n	10001290 <hardware_alarm_set_target+0x64>
1000128e:	0025      	movs	r5, r4
10001290:	6a8c      	ldr	r4, [r1, #40]	; 0x28
10001292:	46a2      	mov	sl, r4
10001294:	6a4c      	ldr	r4, [r1, #36]	; 0x24
10001296:	42ac      	cmp	r4, r5
10001298:	d1f9      	bne.n	1000128e <hardware_alarm_set_target+0x62>
1000129a:	42ab      	cmp	r3, r5
1000129c:	d824      	bhi.n	100012e8 <hardware_alarm_set_target+0xbc>
1000129e:	d101      	bne.n	100012a4 <hardware_alarm_set_target+0x78>
100012a0:	4552      	cmp	r2, sl
100012a2:	d821      	bhi.n	100012e8 <hardware_alarm_set_target+0xbc>
100012a4:	4547      	cmp	r7, r8
100012a6:	d021      	beq.n	100012ec <hardware_alarm_set_target+0xc0>
100012a8:	4b11      	ldr	r3, [pc, #68]	; (100012f0 <hardware_alarm_set_target+0xc4>)
100012aa:	4a15      	ldr	r2, [pc, #84]	; (10001300 <hardware_alarm_set_target+0xd4>)
100012ac:	621e      	str	r6, [r3, #32]
100012ae:	635e      	str	r6, [r3, #52]	; 0x34
100012b0:	231f      	movs	r3, #31
100012b2:	4018      	ands	r0, r3
100012b4:	3b1e      	subs	r3, #30
100012b6:	4083      	lsls	r3, r0
100012b8:	6013      	str	r3, [r2, #0]
100012ba:	4663      	mov	r3, ip
100012bc:	4642      	mov	r2, r8
100012be:	2401      	movs	r4, #1
100012c0:	701a      	strb	r2, [r3, #0]
100012c2:	f3bf 8f5f 	dmb	sy
100012c6:	2200      	movs	r2, #0
100012c8:	4b0a      	ldr	r3, [pc, #40]	; (100012f4 <hardware_alarm_set_target+0xc8>)
100012ca:	601a      	str	r2, [r3, #0]
100012cc:	f389 8810 	msr	PRIMASK, r9
100012d0:	0020      	movs	r0, r4
100012d2:	bc1c      	pop	{r2, r3, r4}
100012d4:	4690      	mov	r8, r2
100012d6:	4699      	mov	r9, r3
100012d8:	46a2      	mov	sl, r4
100012da:	bdf0      	pop	{r4, r5, r6, r7, pc}
100012dc:	42ab      	cmp	r3, r5
100012de:	d101      	bne.n	100012e4 <hardware_alarm_set_target+0xb8>
100012e0:	42b2      	cmp	r2, r6
100012e2:	d8b2      	bhi.n	1000124a <hardware_alarm_set_target+0x1e>
100012e4:	2401      	movs	r4, #1
100012e6:	e7f3      	b.n	100012d0 <hardware_alarm_set_target+0xa4>
100012e8:	2400      	movs	r4, #0
100012ea:	e7ea      	b.n	100012c2 <hardware_alarm_set_target+0x96>
100012ec:	2401      	movs	r4, #1
100012ee:	e7e8      	b.n	100012c2 <hardware_alarm_set_target+0x96>
100012f0:	40054000 	.word	0x40054000
100012f4:	d0000128 	.word	0xd0000128
100012f8:	20000faa 	.word	0x20000faa
100012fc:	20000f90 	.word	0x20000f90
10001300:	e000e280 	.word	0xe000e280

10001304 <hardware_alarm_cancel>:
10001304:	b510      	push	{r4, lr}
10001306:	f3ef 8410 	mrs	r4, PRIMASK
1000130a:	b672      	cpsid	i
1000130c:	490a      	ldr	r1, [pc, #40]	; (10001338 <hardware_alarm_cancel+0x34>)
1000130e:	680b      	ldr	r3, [r1, #0]
10001310:	2b00      	cmp	r3, #0
10001312:	d0fc      	beq.n	1000130e <hardware_alarm_cancel+0xa>
10001314:	f3bf 8f5f 	dmb	sy
10001318:	2301      	movs	r3, #1
1000131a:	4083      	lsls	r3, r0
1000131c:	4a07      	ldr	r2, [pc, #28]	; (1000133c <hardware_alarm_cancel+0x38>)
1000131e:	4808      	ldr	r0, [pc, #32]	; (10001340 <hardware_alarm_cancel+0x3c>)
10001320:	6213      	str	r3, [r2, #32]
10001322:	7802      	ldrb	r2, [r0, #0]
10001324:	439a      	bics	r2, r3
10001326:	7002      	strb	r2, [r0, #0]
10001328:	f3bf 8f5f 	dmb	sy
1000132c:	2300      	movs	r3, #0
1000132e:	600b      	str	r3, [r1, #0]
10001330:	f384 8810 	msr	PRIMASK, r4
10001334:	bd10      	pop	{r4, pc}
10001336:	46c0      	nop			; (mov r8, r8)
10001338:	d0000128 	.word	0xd0000128
1000133c:	40054000 	.word	0x40054000
10001340:	20000faa 	.word	0x20000faa

10001344 <lock_init>:
10001344:	4b02      	ldr	r3, [pc, #8]	; (10001350 <lock_init+0xc>)
10001346:	469c      	mov	ip, r3
10001348:	4461      	add	r1, ip
1000134a:	0089      	lsls	r1, r1, #2
1000134c:	6001      	str	r1, [r0, #0]
1000134e:	4770      	bx	lr
10001350:	34000040 	.word	0x34000040

10001354 <mutex_init>:
10001354:	b510      	push	{r4, lr}
10001356:	0004      	movs	r4, r0
10001358:	f7ff f97e 	bl	10000658 <next_striped_spin_lock_num>
1000135c:	0001      	movs	r1, r0
1000135e:	0020      	movs	r0, r4
10001360:	f7ff fff0 	bl	10001344 <lock_init>
10001364:	23ff      	movs	r3, #255	; 0xff
10001366:	7123      	strb	r3, [r4, #4]
10001368:	f3bf 8f5f 	dmb	sy
1000136c:	bd10      	pop	{r4, pc}
1000136e:	46c0      	nop			; (mov r8, r8)

10001370 <critical_section_init>:
10001370:	b510      	push	{r4, lr}
10001372:	0004      	movs	r4, r0
10001374:	2001      	movs	r0, #1
10001376:	f7ff f97b 	bl	10000670 <spin_lock_claim_unused>
1000137a:	0001      	movs	r1, r0
1000137c:	0020      	movs	r0, r4
1000137e:	f7ff ffe1 	bl	10001344 <lock_init>
10001382:	f3bf 8f5f 	dmb	sy
10001386:	bd10      	pop	{r4, pc}

10001388 <ph_merge_two_pass.part.3>:
10001388:	b5f8      	push	{r3, r4, r5, r6, r7, lr}
1000138a:	4647      	mov	r7, r8
1000138c:	46ce      	mov	lr, r9
1000138e:	b580      	push	{r7, lr}
10001390:	004c      	lsls	r4, r1, #1
10001392:	6803      	ldr	r3, [r0, #0]
10001394:	1864      	adds	r4, r4, r1
10001396:	3c03      	subs	r4, #3
10001398:	191a      	adds	r2, r3, r4
1000139a:	7856      	ldrb	r6, [r2, #1]
1000139c:	0007      	movs	r7, r0
1000139e:	000d      	movs	r5, r1
100013a0:	2e00      	cmp	r6, #0
100013a2:	d104      	bne.n	100013ae <ph_merge_two_pass.part.3+0x26>
100013a4:	0028      	movs	r0, r5
100013a6:	bc0c      	pop	{r2, r3}
100013a8:	4690      	mov	r8, r2
100013aa:	4699      	mov	r9, r3
100013ac:	bdf8      	pop	{r3, r4, r5, r6, r7, pc}
100013ae:	0071      	lsls	r1, r6, #1
100013b0:	1989      	adds	r1, r1, r6
100013b2:	3903      	subs	r1, #3
100013b4:	4688      	mov	r8, r1
100013b6:	4443      	add	r3, r8
100013b8:	7859      	ldrb	r1, [r3, #1]
100013ba:	4689      	mov	r9, r1
100013bc:	2100      	movs	r1, #0
100013be:	7059      	strb	r1, [r3, #1]
100013c0:	7051      	strb	r1, [r2, #1]
100013c2:	2d00      	cmp	r5, #0
100013c4:	d011      	beq.n	100013ea <ph_merge_two_pass.part.3+0x62>
100013c6:	687b      	ldr	r3, [r7, #4]
100013c8:	0032      	movs	r2, r6
100013ca:	0029      	movs	r1, r5
100013cc:	6880      	ldr	r0, [r0, #8]
100013ce:	4798      	blx	r3
100013d0:	683b      	ldr	r3, [r7, #0]
100013d2:	2800      	cmp	r0, #0
100013d4:	d032      	beq.n	1000143c <ph_merge_two_pass.part.3+0xb4>
100013d6:	191a      	adds	r2, r3, r4
100013d8:	4443      	add	r3, r8
100013da:	709d      	strb	r5, [r3, #2]
100013dc:	7811      	ldrb	r1, [r2, #0]
100013de:	2900      	cmp	r1, #0
100013e0:	d000      	beq.n	100013e4 <ph_merge_two_pass.part.3+0x5c>
100013e2:	7059      	strb	r1, [r3, #1]
100013e4:	7016      	strb	r6, [r2, #0]
100013e6:	46a0      	mov	r8, r4
100013e8:	e000      	b.n	100013ec <ph_merge_two_pass.part.3+0x64>
100013ea:	0035      	movs	r5, r6
100013ec:	464b      	mov	r3, r9
100013ee:	2b00      	cmp	r3, #0
100013f0:	d0d8      	beq.n	100013a4 <ph_merge_two_pass.part.3+0x1c>
100013f2:	4649      	mov	r1, r9
100013f4:	0038      	movs	r0, r7
100013f6:	f7ff ffc7 	bl	10001388 <ph_merge_two_pass.part.3>
100013fa:	1e04      	subs	r4, r0, #0
100013fc:	d0d2      	beq.n	100013a4 <ph_merge_two_pass.part.3+0x1c>
100013fe:	0002      	movs	r2, r0
10001400:	687b      	ldr	r3, [r7, #4]
10001402:	0029      	movs	r1, r5
10001404:	68b8      	ldr	r0, [r7, #8]
10001406:	4798      	blx	r3
10001408:	0063      	lsls	r3, r4, #1
1000140a:	191b      	adds	r3, r3, r4
1000140c:	3b03      	subs	r3, #3
1000140e:	683a      	ldr	r2, [r7, #0]
10001410:	2800      	cmp	r0, #0
10001412:	d109      	bne.n	10001428 <ph_merge_two_pass.part.3+0xa0>
10001414:	18d3      	adds	r3, r2, r3
10001416:	4442      	add	r2, r8
10001418:	7094      	strb	r4, [r2, #2]
1000141a:	7819      	ldrb	r1, [r3, #0]
1000141c:	2900      	cmp	r1, #0
1000141e:	d000      	beq.n	10001422 <ph_merge_two_pass.part.3+0x9a>
10001420:	7051      	strb	r1, [r2, #1]
10001422:	701d      	strb	r5, [r3, #0]
10001424:	0025      	movs	r5, r4
10001426:	e7bd      	b.n	100013a4 <ph_merge_two_pass.part.3+0x1c>
10001428:	4641      	mov	r1, r8
1000142a:	18d3      	adds	r3, r2, r3
1000142c:	1851      	adds	r1, r2, r1
1000142e:	709d      	strb	r5, [r3, #2]
10001430:	780a      	ldrb	r2, [r1, #0]
10001432:	2a00      	cmp	r2, #0
10001434:	d000      	beq.n	10001438 <ph_merge_two_pass.part.3+0xb0>
10001436:	705a      	strb	r2, [r3, #1]
10001438:	700c      	strb	r4, [r1, #0]
1000143a:	e7b3      	b.n	100013a4 <ph_merge_two_pass.part.3+0x1c>
1000143c:	4642      	mov	r2, r8
1000143e:	191c      	adds	r4, r3, r4
10001440:	189a      	adds	r2, r3, r2
10001442:	70a6      	strb	r6, [r4, #2]
10001444:	7813      	ldrb	r3, [r2, #0]
10001446:	2b00      	cmp	r3, #0
10001448:	d000      	beq.n	1000144c <ph_merge_two_pass.part.3+0xc4>
1000144a:	7063      	strb	r3, [r4, #1]
1000144c:	7015      	strb	r5, [r2, #0]
1000144e:	0035      	movs	r5, r6
10001450:	e7cc      	b.n	100013ec <ph_merge_two_pass.part.3+0x64>
10001452:	46c0      	nop			; (mov r8, r8)

10001454 <ph_post_alloc_init>:
10001454:	b510      	push	{r4, lr}
10001456:	6083      	str	r3, [r0, #8]
10001458:	2300      	movs	r3, #0
1000145a:	b2cc      	uxtb	r4, r1
1000145c:	7343      	strb	r3, [r0, #13]
1000145e:	3301      	adds	r3, #1
10001460:	7304      	strb	r4, [r0, #12]
10001462:	6042      	str	r2, [r0, #4]
10001464:	7383      	strb	r3, [r0, #14]
10001466:	73c4      	strb	r4, [r0, #15]
10001468:	6800      	ldr	r0, [r0, #0]
1000146a:	2c01      	cmp	r4, #1
1000146c:	d906      	bls.n	1000147c <ph_post_alloc_init+0x28>
1000146e:	1c42      	adds	r2, r0, #1
10001470:	3301      	adds	r3, #1
10001472:	b2db      	uxtb	r3, r3
10001474:	7013      	strb	r3, [r2, #0]
10001476:	3203      	adds	r2, #3
10001478:	429c      	cmp	r4, r3
1000147a:	d8f9      	bhi.n	10001470 <ph_post_alloc_init+0x1c>
1000147c:	23ff      	movs	r3, #255	; 0xff
1000147e:	4019      	ands	r1, r3
10001480:	004b      	lsls	r3, r1, #1
10001482:	1859      	adds	r1, r3, r1
10001484:	2300      	movs	r3, #0
10001486:	1840      	adds	r0, r0, r1
10001488:	3803      	subs	r0, #3
1000148a:	7043      	strb	r3, [r0, #1]
1000148c:	bd10      	pop	{r4, pc}
1000148e:	46c0      	nop			; (mov r8, r8)

10001490 <ph_remove_head>:
10001490:	b5f0      	push	{r4, r5, r6, r7, lr}
10001492:	464e      	mov	r6, r9
10001494:	4657      	mov	r7, sl
10001496:	4645      	mov	r5, r8
10001498:	46de      	mov	lr, fp
1000149a:	b5e0      	push	{r5, r6, r7, lr}
1000149c:	7b46      	ldrb	r6, [r0, #13]
1000149e:	6803      	ldr	r3, [r0, #0]
100014a0:	0074      	lsls	r4, r6, #1
100014a2:	19a4      	adds	r4, r4, r6
100014a4:	3c03      	subs	r4, #3
100014a6:	191a      	adds	r2, r3, r4
100014a8:	7817      	ldrb	r7, [r2, #0]
100014aa:	b083      	sub	sp, #12
100014ac:	0005      	movs	r5, r0
100014ae:	4689      	mov	r9, r1
100014b0:	2f00      	cmp	r7, #0
100014b2:	d11e      	bne.n	100014f2 <ph_remove_head+0x62>
100014b4:	2900      	cmp	r1, #0
100014b6:	d011      	beq.n	100014dc <ph_remove_head+0x4c>
100014b8:	7bc0      	ldrb	r0, [r0, #15]
100014ba:	2800      	cmp	r0, #0
100014bc:	d02a      	beq.n	10001514 <ph_remove_head+0x84>
100014be:	0041      	lsls	r1, r0, #1
100014c0:	1809      	adds	r1, r1, r0
100014c2:	1859      	adds	r1, r3, r1
100014c4:	3903      	subs	r1, #3
100014c6:	704e      	strb	r6, [r1, #1]
100014c8:	73ee      	strb	r6, [r5, #15]
100014ca:	2f00      	cmp	r7, #0
100014cc:	d006      	beq.n	100014dc <ph_remove_head+0x4c>
100014ce:	0079      	lsls	r1, r7, #1
100014d0:	19c9      	adds	r1, r1, r7
100014d2:	3903      	subs	r1, #3
100014d4:	4688      	mov	r8, r1
100014d6:	2100      	movs	r1, #0
100014d8:	4443      	add	r3, r8
100014da:	7099      	strb	r1, [r3, #2]
100014dc:	2300      	movs	r3, #0
100014de:	0030      	movs	r0, r6
100014e0:	7053      	strb	r3, [r2, #1]
100014e2:	736f      	strb	r7, [r5, #13]
100014e4:	b003      	add	sp, #12
100014e6:	bc3c      	pop	{r2, r3, r4, r5}
100014e8:	4690      	mov	r8, r2
100014ea:	4699      	mov	r9, r3
100014ec:	46a2      	mov	sl, r4
100014ee:	46ab      	mov	fp, r5
100014f0:	bdf0      	pop	{r4, r5, r6, r7, pc}
100014f2:	0079      	lsls	r1, r7, #1
100014f4:	19c9      	adds	r1, r1, r7
100014f6:	3903      	subs	r1, #3
100014f8:	4688      	mov	r8, r1
100014fa:	1859      	adds	r1, r3, r1
100014fc:	7848      	ldrb	r0, [r1, #1]
100014fe:	4682      	mov	sl, r0
10001500:	2800      	cmp	r0, #0
10001502:	d109      	bne.n	10001518 <ph_remove_head+0x88>
10001504:	4649      	mov	r1, r9
10001506:	2900      	cmp	r1, #0
10001508:	d0e5      	beq.n	100014d6 <ph_remove_head+0x46>
1000150a:	7be8      	ldrb	r0, [r5, #15]
1000150c:	2800      	cmp	r0, #0
1000150e:	d1d6      	bne.n	100014be <ph_remove_head+0x2e>
10001510:	73ee      	strb	r6, [r5, #15]
10001512:	e7dc      	b.n	100014ce <ph_remove_head+0x3e>
10001514:	73ee      	strb	r6, [r5, #15]
10001516:	e7e1      	b.n	100014dc <ph_remove_head+0x4c>
10001518:	0042      	lsls	r2, r0, #1
1000151a:	4452      	add	r2, sl
1000151c:	3a03      	subs	r2, #3
1000151e:	4693      	mov	fp, r2
10001520:	445b      	add	r3, fp
10001522:	785a      	ldrb	r2, [r3, #1]
10001524:	9201      	str	r2, [sp, #4]
10001526:	2200      	movs	r2, #0
10001528:	705a      	strb	r2, [r3, #1]
1000152a:	704a      	strb	r2, [r1, #1]
1000152c:	686b      	ldr	r3, [r5, #4]
1000152e:	0002      	movs	r2, r0
10001530:	0039      	movs	r1, r7
10001532:	68a8      	ldr	r0, [r5, #8]
10001534:	4798      	blx	r3
10001536:	682b      	ldr	r3, [r5, #0]
10001538:	2800      	cmp	r0, #0
1000153a:	d130      	bne.n	1000159e <ph_remove_head+0x10e>
1000153c:	4641      	mov	r1, r8
1000153e:	4650      	mov	r0, sl
10001540:	465a      	mov	r2, fp
10001542:	1859      	adds	r1, r3, r1
10001544:	189a      	adds	r2, r3, r2
10001546:	7088      	strb	r0, [r1, #2]
10001548:	7810      	ldrb	r0, [r2, #0]
1000154a:	2800      	cmp	r0, #0
1000154c:	d000      	beq.n	10001550 <ph_remove_head+0xc0>
1000154e:	7048      	strb	r0, [r1, #1]
10001550:	7017      	strb	r7, [r2, #0]
10001552:	46d8      	mov	r8, fp
10001554:	4657      	mov	r7, sl
10001556:	9a01      	ldr	r2, [sp, #4]
10001558:	2a00      	cmp	r2, #0
1000155a:	d02d      	beq.n	100015b8 <ph_remove_head+0x128>
1000155c:	0011      	movs	r1, r2
1000155e:	0028      	movs	r0, r5
10001560:	f7ff ff12 	bl	10001388 <ph_merge_two_pass.part.3>
10001564:	4682      	mov	sl, r0
10001566:	2800      	cmp	r0, #0
10001568:	d025      	beq.n	100015b6 <ph_remove_head+0x126>
1000156a:	0002      	movs	r2, r0
1000156c:	0039      	movs	r1, r7
1000156e:	686b      	ldr	r3, [r5, #4]
10001570:	68a8      	ldr	r0, [r5, #8]
10001572:	4798      	blx	r3
10001574:	4653      	mov	r3, sl
10001576:	0059      	lsls	r1, r3, #1
10001578:	4451      	add	r1, sl
1000157a:	3903      	subs	r1, #3
1000157c:	682b      	ldr	r3, [r5, #0]
1000157e:	2800      	cmp	r0, #0
10001580:	d01c      	beq.n	100015bc <ph_remove_head+0x12c>
10001582:	4642      	mov	r2, r8
10001584:	1859      	adds	r1, r3, r1
10001586:	1898      	adds	r0, r3, r2
10001588:	708f      	strb	r7, [r1, #2]
1000158a:	7802      	ldrb	r2, [r0, #0]
1000158c:	4694      	mov	ip, r2
1000158e:	191a      	adds	r2, r3, r4
10001590:	4664      	mov	r4, ip
10001592:	2c00      	cmp	r4, #0
10001594:	d000      	beq.n	10001598 <ph_remove_head+0x108>
10001596:	704c      	strb	r4, [r1, #1]
10001598:	4651      	mov	r1, sl
1000159a:	7001      	strb	r1, [r0, #0]
1000159c:	e7b2      	b.n	10001504 <ph_remove_head+0x74>
1000159e:	4659      	mov	r1, fp
100015a0:	4642      	mov	r2, r8
100015a2:	1859      	adds	r1, r3, r1
100015a4:	189a      	adds	r2, r3, r2
100015a6:	708f      	strb	r7, [r1, #2]
100015a8:	7810      	ldrb	r0, [r2, #0]
100015aa:	2800      	cmp	r0, #0
100015ac:	d000      	beq.n	100015b0 <ph_remove_head+0x120>
100015ae:	7048      	strb	r0, [r1, #1]
100015b0:	4651      	mov	r1, sl
100015b2:	7011      	strb	r1, [r2, #0]
100015b4:	e7cf      	b.n	10001556 <ph_remove_head+0xc6>
100015b6:	682b      	ldr	r3, [r5, #0]
100015b8:	191a      	adds	r2, r3, r4
100015ba:	e7a3      	b.n	10001504 <ph_remove_head+0x74>
100015bc:	185a      	adds	r2, r3, r1
100015be:	4498      	add	r8, r3
100015c0:	4693      	mov	fp, r2
100015c2:	4650      	mov	r0, sl
100015c4:	4642      	mov	r2, r8
100015c6:	7090      	strb	r0, [r2, #2]
100015c8:	465a      	mov	r2, fp
100015ca:	7812      	ldrb	r2, [r2, #0]
100015cc:	4694      	mov	ip, r2
100015ce:	4660      	mov	r0, ip
100015d0:	191a      	adds	r2, r3, r4
100015d2:	2800      	cmp	r0, #0
100015d4:	d002      	beq.n	100015dc <ph_remove_head+0x14c>
100015d6:	4640      	mov	r0, r8
100015d8:	4664      	mov	r4, ip
100015da:	7044      	strb	r4, [r0, #1]
100015dc:	4658      	mov	r0, fp
100015de:	4688      	mov	r8, r1
100015e0:	7007      	strb	r7, [r0, #0]
100015e2:	4657      	mov	r7, sl
100015e4:	e78e      	b.n	10001504 <ph_remove_head+0x74>
100015e6:	46c0      	nop			; (mov r8, r8)

100015e8 <ph_remove_and_free_node>:
100015e8:	b5f0      	push	{r4, r5, r6, r7, lr}
100015ea:	4645      	mov	r5, r8
100015ec:	46de      	mov	lr, fp
100015ee:	4657      	mov	r7, sl
100015f0:	464e      	mov	r6, r9
100015f2:	b5e0      	push	{r5, r6, r7, lr}
100015f4:	000c      	movs	r4, r1
100015f6:	b083      	sub	sp, #12
100015f8:	0005      	movs	r5, r0
100015fa:	2300      	movs	r3, #0
100015fc:	2900      	cmp	r1, #0
100015fe:	d027      	beq.n	10001650 <ph_remove_and_free_node+0x68>
10001600:	0066      	lsls	r6, r4, #1
10001602:	7b47      	ldrb	r7, [r0, #13]
10001604:	6801      	ldr	r1, [r0, #0]
10001606:	1936      	adds	r6, r6, r4
10001608:	3e03      	subs	r6, #3
1000160a:	1988      	adds	r0, r1, r6
1000160c:	42a7      	cmp	r7, r4
1000160e:	d033      	beq.n	10001678 <ph_remove_and_free_node+0x90>
10001610:	7882      	ldrb	r2, [r0, #2]
10001612:	2a00      	cmp	r2, #0
10001614:	d01c      	beq.n	10001650 <ph_remove_and_free_node+0x68>
10001616:	0053      	lsls	r3, r2, #1
10001618:	189b      	adds	r3, r3, r2
1000161a:	3b03      	subs	r3, #3
1000161c:	18cb      	adds	r3, r1, r3
1000161e:	781a      	ldrb	r2, [r3, #0]
10001620:	42a2      	cmp	r2, r4
10001622:	d11f      	bne.n	10001664 <ph_remove_and_free_node+0x7c>
10001624:	7842      	ldrb	r2, [r0, #1]
10001626:	701a      	strb	r2, [r3, #0]
10001628:	2300      	movs	r3, #0
1000162a:	7802      	ldrb	r2, [r0, #0]
1000162c:	7083      	strb	r3, [r0, #2]
1000162e:	7043      	strb	r3, [r0, #1]
10001630:	4691      	mov	r9, r2
10001632:	2a00      	cmp	r2, #0
10001634:	d133      	bne.n	1000169e <ph_remove_and_free_node+0xb6>
10001636:	7bea      	ldrb	r2, [r5, #15]
10001638:	2a00      	cmp	r2, #0
1000163a:	d066      	beq.n	1000170a <ph_remove_and_free_node+0x122>
1000163c:	0053      	lsls	r3, r2, #1
1000163e:	189b      	adds	r3, r3, r2
10001640:	18c9      	adds	r1, r1, r3
10001642:	3903      	subs	r1, #3
10001644:	704c      	strb	r4, [r1, #1]
10001646:	73ec      	strb	r4, [r5, #15]
10001648:	2300      	movs	r3, #0
1000164a:	7043      	strb	r3, [r0, #1]
1000164c:	2301      	movs	r3, #1
1000164e:	736f      	strb	r7, [r5, #13]
10001650:	0018      	movs	r0, r3
10001652:	b003      	add	sp, #12
10001654:	bc3c      	pop	{r2, r3, r4, r5}
10001656:	4690      	mov	r8, r2
10001658:	4699      	mov	r9, r3
1000165a:	46a2      	mov	sl, r4
1000165c:	46ab      	mov	fp, r5
1000165e:	bdf0      	pop	{r4, r5, r6, r7, pc}
10001660:	2a00      	cmp	r2, #0
10001662:	d0e1      	beq.n	10001628 <ph_remove_and_free_node+0x40>
10001664:	0053      	lsls	r3, r2, #1
10001666:	189b      	adds	r3, r3, r2
10001668:	3b03      	subs	r3, #3
1000166a:	18cb      	adds	r3, r1, r3
1000166c:	785a      	ldrb	r2, [r3, #1]
1000166e:	42a2      	cmp	r2, r4
10001670:	d1f6      	bne.n	10001660 <ph_remove_and_free_node+0x78>
10001672:	7842      	ldrb	r2, [r0, #1]
10001674:	705a      	strb	r2, [r3, #1]
10001676:	e7d7      	b.n	10001628 <ph_remove_and_free_node+0x40>
10001678:	7802      	ldrb	r2, [r0, #0]
1000167a:	9201      	str	r2, [sp, #4]
1000167c:	2a00      	cmp	r2, #0
1000167e:	d146      	bne.n	1000170e <ph_remove_and_free_node+0x126>
10001680:	7bea      	ldrb	r2, [r5, #15]
10001682:	2a00      	cmp	r2, #0
10001684:	d03f      	beq.n	10001706 <ph_remove_and_free_node+0x11e>
10001686:	0053      	lsls	r3, r2, #1
10001688:	189b      	adds	r3, r3, r2
1000168a:	18c9      	adds	r1, r1, r3
1000168c:	3903      	subs	r1, #3
1000168e:	704f      	strb	r7, [r1, #1]
10001690:	73ef      	strb	r7, [r5, #15]
10001692:	2300      	movs	r3, #0
10001694:	7043      	strb	r3, [r0, #1]
10001696:	9b01      	ldr	r3, [sp, #4]
10001698:	736b      	strb	r3, [r5, #13]
1000169a:	2301      	movs	r3, #1
1000169c:	e7d8      	b.n	10001650 <ph_remove_and_free_node+0x68>
1000169e:	0052      	lsls	r2, r2, #1
100016a0:	444a      	add	r2, r9
100016a2:	3a03      	subs	r2, #3
100016a4:	4690      	mov	r8, r2
100016a6:	188a      	adds	r2, r1, r2
100016a8:	7857      	ldrb	r7, [r2, #1]
100016aa:	2f00      	cmp	r7, #0
100016ac:	d142      	bne.n	10001734 <ph_remove_and_free_node+0x14c>
100016ae:	7beb      	ldrb	r3, [r5, #15]
100016b0:	2b00      	cmp	r3, #0
100016b2:	d000      	beq.n	100016b6 <ph_remove_and_free_node+0xce>
100016b4:	e129      	b.n	1000190a <ph_remove_and_free_node+0x322>
100016b6:	464f      	mov	r7, r9
100016b8:	7b6e      	ldrb	r6, [r5, #13]
100016ba:	73ec      	strb	r4, [r5, #15]
100016bc:	2300      	movs	r3, #0
100016be:	7093      	strb	r3, [r2, #2]
100016c0:	7043      	strb	r3, [r0, #1]
100016c2:	2e00      	cmp	r6, #0
100016c4:	d0c2      	beq.n	1000164c <ph_remove_and_free_node+0x64>
100016c6:	003a      	movs	r2, r7
100016c8:	686b      	ldr	r3, [r5, #4]
100016ca:	0031      	movs	r1, r6
100016cc:	68a8      	ldr	r0, [r5, #8]
100016ce:	4798      	blx	r3
100016d0:	0073      	lsls	r3, r6, #1
100016d2:	199b      	adds	r3, r3, r6
100016d4:	3b03      	subs	r3, #3
100016d6:	682a      	ldr	r2, [r5, #0]
100016d8:	2800      	cmp	r0, #0
100016da:	d008      	beq.n	100016ee <ph_remove_and_free_node+0x106>
100016dc:	18d3      	adds	r3, r2, r3
100016de:	4442      	add	r2, r8
100016e0:	7096      	strb	r6, [r2, #2]
100016e2:	7819      	ldrb	r1, [r3, #0]
100016e4:	2900      	cmp	r1, #0
100016e6:	d10c      	bne.n	10001702 <ph_remove_and_free_node+0x11a>
100016e8:	701f      	strb	r7, [r3, #0]
100016ea:	0037      	movs	r7, r6
100016ec:	e7ae      	b.n	1000164c <ph_remove_and_free_node+0x64>
100016ee:	4641      	mov	r1, r8
100016f0:	18d3      	adds	r3, r2, r3
100016f2:	1851      	adds	r1, r2, r1
100016f4:	709f      	strb	r7, [r3, #2]
100016f6:	780a      	ldrb	r2, [r1, #0]
100016f8:	2a00      	cmp	r2, #0
100016fa:	d000      	beq.n	100016fe <ph_remove_and_free_node+0x116>
100016fc:	705a      	strb	r2, [r3, #1]
100016fe:	700e      	strb	r6, [r1, #0]
10001700:	e7a4      	b.n	1000164c <ph_remove_and_free_node+0x64>
10001702:	7051      	strb	r1, [r2, #1]
10001704:	e7f0      	b.n	100016e8 <ph_remove_and_free_node+0x100>
10001706:	73ef      	strb	r7, [r5, #15]
10001708:	e7c3      	b.n	10001692 <ph_remove_and_free_node+0xaa>
1000170a:	73ec      	strb	r4, [r5, #15]
1000170c:	e79c      	b.n	10001648 <ph_remove_and_free_node+0x60>
1000170e:	0014      	movs	r4, r2
10001710:	46a4      	mov	ip, r4
10001712:	0052      	lsls	r2, r2, #1
10001714:	4462      	add	r2, ip
10001716:	3a03      	subs	r2, #3
10001718:	4690      	mov	r8, r2
1000171a:	188a      	adds	r2, r1, r2
1000171c:	7854      	ldrb	r4, [r2, #1]
1000171e:	46a1      	mov	r9, r4
10001720:	2c00      	cmp	r4, #0
10001722:	d158      	bne.n	100017d6 <ph_remove_and_free_node+0x1ee>
10001724:	7beb      	ldrb	r3, [r5, #15]
10001726:	2b00      	cmp	r3, #0
10001728:	d000      	beq.n	1000172c <ph_remove_and_free_node+0x144>
1000172a:	e0f7      	b.n	1000191c <ph_remove_and_free_node+0x334>
1000172c:	73ef      	strb	r7, [r5, #15]
1000172e:	2300      	movs	r3, #0
10001730:	7093      	strb	r3, [r2, #2]
10001732:	e7ae      	b.n	10001692 <ph_remove_and_free_node+0xaa>
10001734:	0078      	lsls	r0, r7, #1
10001736:	19c0      	adds	r0, r0, r7
10001738:	3803      	subs	r0, #3
1000173a:	4682      	mov	sl, r0
1000173c:	4451      	add	r1, sl
1000173e:	7848      	ldrb	r0, [r1, #1]
10001740:	704b      	strb	r3, [r1, #1]
10001742:	7053      	strb	r3, [r2, #1]
10001744:	686b      	ldr	r3, [r5, #4]
10001746:	4683      	mov	fp, r0
10001748:	003a      	movs	r2, r7
1000174a:	4649      	mov	r1, r9
1000174c:	68a8      	ldr	r0, [r5, #8]
1000174e:	4798      	blx	r3
10001750:	682b      	ldr	r3, [r5, #0]
10001752:	2800      	cmp	r0, #0
10001754:	d100      	bne.n	10001758 <ph_remove_and_free_node+0x170>
10001756:	e0a2      	b.n	1000189e <ph_remove_and_free_node+0x2b6>
10001758:	4642      	mov	r2, r8
1000175a:	1898      	adds	r0, r3, r2
1000175c:	4652      	mov	r2, sl
1000175e:	1899      	adds	r1, r3, r2
10001760:	464a      	mov	r2, r9
10001762:	708a      	strb	r2, [r1, #2]
10001764:	9001      	str	r0, [sp, #4]
10001766:	0002      	movs	r2, r0
10001768:	7800      	ldrb	r0, [r0, #0]
1000176a:	2800      	cmp	r0, #0
1000176c:	d001      	beq.n	10001772 <ph_remove_and_free_node+0x18a>
1000176e:	9a01      	ldr	r2, [sp, #4]
10001770:	7048      	strb	r0, [r1, #1]
10001772:	7017      	strb	r7, [r2, #0]
10001774:	464f      	mov	r7, r9
10001776:	465a      	mov	r2, fp
10001778:	2a00      	cmp	r2, #0
1000177a:	d028      	beq.n	100017ce <ph_remove_and_free_node+0x1e6>
1000177c:	4659      	mov	r1, fp
1000177e:	0028      	movs	r0, r5
10001780:	f7ff fe02 	bl	10001388 <ph_merge_two_pass.part.3>
10001784:	4681      	mov	r9, r0
10001786:	2800      	cmp	r0, #0
10001788:	d020      	beq.n	100017cc <ph_remove_and_free_node+0x1e4>
1000178a:	0002      	movs	r2, r0
1000178c:	686b      	ldr	r3, [r5, #4]
1000178e:	0039      	movs	r1, r7
10001790:	68a8      	ldr	r0, [r5, #8]
10001792:	4798      	blx	r3
10001794:	464b      	mov	r3, r9
10001796:	005b      	lsls	r3, r3, #1
10001798:	444b      	add	r3, r9
1000179a:	3b03      	subs	r3, #3
1000179c:	469c      	mov	ip, r3
1000179e:	2800      	cmp	r0, #0
100017a0:	d06d      	beq.n	1000187e <ph_remove_and_free_node+0x296>
100017a2:	4642      	mov	r2, r8
100017a4:	682b      	ldr	r3, [r5, #0]
100017a6:	1898      	adds	r0, r3, r2
100017a8:	4662      	mov	r2, ip
100017aa:	1899      	adds	r1, r3, r2
100017ac:	708f      	strb	r7, [r1, #2]
100017ae:	9001      	str	r0, [sp, #4]
100017b0:	7800      	ldrb	r0, [r0, #0]
100017b2:	2800      	cmp	r0, #0
100017b4:	d000      	beq.n	100017b8 <ph_remove_and_free_node+0x1d0>
100017b6:	e083      	b.n	100018c0 <ph_remove_and_free_node+0x2d8>
100017b8:	464a      	mov	r2, r9
100017ba:	9801      	ldr	r0, [sp, #4]
100017bc:	7002      	strb	r2, [r0, #0]
100017be:	7be9      	ldrb	r1, [r5, #15]
100017c0:	1998      	adds	r0, r3, r6
100017c2:	7b6e      	ldrb	r6, [r5, #13]
100017c4:	2900      	cmp	r1, #0
100017c6:	d151      	bne.n	1000186c <ph_remove_and_free_node+0x284>
100017c8:	9a01      	ldr	r2, [sp, #4]
100017ca:	e776      	b.n	100016ba <ph_remove_and_free_node+0xd2>
100017cc:	682b      	ldr	r3, [r5, #0]
100017ce:	4642      	mov	r2, r8
100017d0:	189a      	adds	r2, r3, r2
100017d2:	9201      	str	r2, [sp, #4]
100017d4:	e7f3      	b.n	100017be <ph_remove_and_free_node+0x1d6>
100017d6:	0060      	lsls	r0, r4, #1
100017d8:	4448      	add	r0, r9
100017da:	3803      	subs	r0, #3
100017dc:	4682      	mov	sl, r0
100017de:	4451      	add	r1, sl
100017e0:	7848      	ldrb	r0, [r1, #1]
100017e2:	704b      	strb	r3, [r1, #1]
100017e4:	7053      	strb	r3, [r2, #1]
100017e6:	4661      	mov	r1, ip
100017e8:	0022      	movs	r2, r4
100017ea:	4683      	mov	fp, r0
100017ec:	686b      	ldr	r3, [r5, #4]
100017ee:	68a8      	ldr	r0, [r5, #8]
100017f0:	4664      	mov	r4, ip
100017f2:	4798      	blx	r3
100017f4:	6829      	ldr	r1, [r5, #0]
100017f6:	2800      	cmp	r0, #0
100017f8:	d078      	beq.n	100018ec <ph_remove_and_free_node+0x304>
100017fa:	4652      	mov	r2, sl
100017fc:	4643      	mov	r3, r8
100017fe:	188a      	adds	r2, r1, r2
10001800:	18cb      	adds	r3, r1, r3
10001802:	7094      	strb	r4, [r2, #2]
10001804:	7818      	ldrb	r0, [r3, #0]
10001806:	2800      	cmp	r0, #0
10001808:	d000      	beq.n	1000180c <ph_remove_and_free_node+0x224>
1000180a:	7050      	strb	r0, [r2, #1]
1000180c:	464a      	mov	r2, r9
1000180e:	46c2      	mov	sl, r8
10001810:	701a      	strb	r2, [r3, #0]
10001812:	465b      	mov	r3, fp
10001814:	2b00      	cmp	r3, #0
10001816:	d050      	beq.n	100018ba <ph_remove_and_free_node+0x2d2>
10001818:	4659      	mov	r1, fp
1000181a:	0028      	movs	r0, r5
1000181c:	f7ff fdb4 	bl	10001388 <ph_merge_two_pass.part.3>
10001820:	4680      	mov	r8, r0
10001822:	2800      	cmp	r0, #0
10001824:	d048      	beq.n	100018b8 <ph_remove_and_free_node+0x2d0>
10001826:	9c01      	ldr	r4, [sp, #4]
10001828:	0002      	movs	r2, r0
1000182a:	0021      	movs	r1, r4
1000182c:	686b      	ldr	r3, [r5, #4]
1000182e:	68a8      	ldr	r0, [r5, #8]
10001830:	4798      	blx	r3
10001832:	4643      	mov	r3, r8
10001834:	005a      	lsls	r2, r3, #1
10001836:	4442      	add	r2, r8
10001838:	1ed3      	subs	r3, r2, #3
1000183a:	6829      	ldr	r1, [r5, #0]
1000183c:	2800      	cmp	r0, #0
1000183e:	d044      	beq.n	100018ca <ph_remove_and_free_node+0x2e2>
10001840:	4652      	mov	r2, sl
10001842:	18cb      	adds	r3, r1, r3
10001844:	188a      	adds	r2, r1, r2
10001846:	709c      	strb	r4, [r3, #2]
10001848:	7810      	ldrb	r0, [r2, #0]
1000184a:	2800      	cmp	r0, #0
1000184c:	d000      	beq.n	10001850 <ph_remove_and_free_node+0x268>
1000184e:	7058      	strb	r0, [r3, #1]
10001850:	4643      	mov	r3, r8
10001852:	7013      	strb	r3, [r2, #0]
10001854:	7beb      	ldrb	r3, [r5, #15]
10001856:	1988      	adds	r0, r1, r6
10001858:	2b00      	cmp	r3, #0
1000185a:	d100      	bne.n	1000185e <ph_remove_and_free_node+0x276>
1000185c:	e766      	b.n	1000172c <ph_remove_and_free_node+0x144>
1000185e:	005e      	lsls	r6, r3, #1
10001860:	18f3      	adds	r3, r6, r3
10001862:	18c9      	adds	r1, r1, r3
10001864:	3903      	subs	r1, #3
10001866:	704f      	strb	r7, [r1, #1]
10001868:	73ef      	strb	r7, [r5, #15]
1000186a:	e760      	b.n	1000172e <ph_remove_and_free_node+0x146>
1000186c:	004a      	lsls	r2, r1, #1
1000186e:	4694      	mov	ip, r2
10001870:	4461      	add	r1, ip
10001872:	185b      	adds	r3, r3, r1
10001874:	3b03      	subs	r3, #3
10001876:	705c      	strb	r4, [r3, #1]
10001878:	9a01      	ldr	r2, [sp, #4]
1000187a:	73ec      	strb	r4, [r5, #15]
1000187c:	e71e      	b.n	100016bc <ph_remove_and_free_node+0xd4>
1000187e:	6829      	ldr	r1, [r5, #0]
10001880:	4648      	mov	r0, r9
10001882:	18ca      	adds	r2, r1, r3
10001884:	4643      	mov	r3, r8
10001886:	18cb      	adds	r3, r1, r3
10001888:	7098      	strb	r0, [r3, #2]
1000188a:	7810      	ldrb	r0, [r2, #0]
1000188c:	4680      	mov	r8, r0
1000188e:	1988      	adds	r0, r1, r6
10001890:	4646      	mov	r6, r8
10001892:	2e00      	cmp	r6, #0
10001894:	d000      	beq.n	10001898 <ph_remove_and_free_node+0x2b0>
10001896:	705e      	strb	r6, [r3, #1]
10001898:	7017      	strb	r7, [r2, #0]
1000189a:	46e0      	mov	r8, ip
1000189c:	e707      	b.n	100016ae <ph_remove_and_free_node+0xc6>
1000189e:	4641      	mov	r1, r8
100018a0:	4652      	mov	r2, sl
100018a2:	1859      	adds	r1, r3, r1
100018a4:	189a      	adds	r2, r3, r2
100018a6:	708f      	strb	r7, [r1, #2]
100018a8:	7810      	ldrb	r0, [r2, #0]
100018aa:	2800      	cmp	r0, #0
100018ac:	d000      	beq.n	100018b0 <ph_remove_and_free_node+0x2c8>
100018ae:	7048      	strb	r0, [r1, #1]
100018b0:	4649      	mov	r1, r9
100018b2:	46d0      	mov	r8, sl
100018b4:	7011      	strb	r1, [r2, #0]
100018b6:	e75e      	b.n	10001776 <ph_remove_and_free_node+0x18e>
100018b8:	6829      	ldr	r1, [r5, #0]
100018ba:	4653      	mov	r3, sl
100018bc:	18ca      	adds	r2, r1, r3
100018be:	e7c9      	b.n	10001854 <ph_remove_and_free_node+0x26c>
100018c0:	464a      	mov	r2, r9
100018c2:	7048      	strb	r0, [r1, #1]
100018c4:	9901      	ldr	r1, [sp, #4]
100018c6:	700a      	strb	r2, [r1, #0]
100018c8:	e779      	b.n	100017be <ph_remove_and_free_node+0x1d6>
100018ca:	18ca      	adds	r2, r1, r3
100018cc:	4653      	mov	r3, sl
100018ce:	4640      	mov	r0, r8
100018d0:	18cb      	adds	r3, r1, r3
100018d2:	7098      	strb	r0, [r3, #2]
100018d4:	7810      	ldrb	r0, [r2, #0]
100018d6:	4684      	mov	ip, r0
100018d8:	4664      	mov	r4, ip
100018da:	1988      	adds	r0, r1, r6
100018dc:	2c00      	cmp	r4, #0
100018de:	d000      	beq.n	100018e2 <ph_remove_and_free_node+0x2fa>
100018e0:	705c      	strb	r4, [r3, #1]
100018e2:	9b01      	ldr	r3, [sp, #4]
100018e4:	7013      	strb	r3, [r2, #0]
100018e6:	4643      	mov	r3, r8
100018e8:	9301      	str	r3, [sp, #4]
100018ea:	e71b      	b.n	10001724 <ph_remove_and_free_node+0x13c>
100018ec:	4653      	mov	r3, sl
100018ee:	18ca      	adds	r2, r1, r3
100018f0:	4643      	mov	r3, r8
100018f2:	4648      	mov	r0, r9
100018f4:	18cb      	adds	r3, r1, r3
100018f6:	7098      	strb	r0, [r3, #2]
100018f8:	7810      	ldrb	r0, [r2, #0]
100018fa:	2800      	cmp	r0, #0
100018fc:	d000      	beq.n	10001900 <ph_remove_and_free_node+0x318>
100018fe:	7058      	strb	r0, [r3, #1]
10001900:	9b01      	ldr	r3, [sp, #4]
10001902:	7013      	strb	r3, [r2, #0]
10001904:	464b      	mov	r3, r9
10001906:	9301      	str	r3, [sp, #4]
10001908:	e783      	b.n	10001812 <ph_remove_and_free_node+0x22a>
1000190a:	2603      	movs	r6, #3
1000190c:	4373      	muls	r3, r6
1000190e:	18c9      	adds	r1, r1, r3
10001910:	3903      	subs	r1, #3
10001912:	704c      	strb	r4, [r1, #1]
10001914:	7b6e      	ldrb	r6, [r5, #13]
10001916:	73ec      	strb	r4, [r5, #15]
10001918:	464f      	mov	r7, r9
1000191a:	e6cf      	b.n	100016bc <ph_remove_and_free_node+0xd4>
1000191c:	2603      	movs	r6, #3
1000191e:	4373      	muls	r3, r6
10001920:	18c9      	adds	r1, r1, r3
10001922:	3903      	subs	r1, #3
10001924:	704f      	strb	r7, [r1, #1]
10001926:	e701      	b.n	1000172c <ph_remove_and_free_node+0x144>

10001928 <runtime_init>:
10001928:	4b2b      	ldr	r3, [pc, #172]	; (100019d8 <runtime_init+0xb0>)
1000192a:	4a2c      	ldr	r2, [pc, #176]	; (100019dc <runtime_init+0xb4>)
1000192c:	b570      	push	{r4, r5, r6, lr}
1000192e:	601a      	str	r2, [r3, #0]
10001930:	4a2b      	ldr	r2, [pc, #172]	; (100019e0 <runtime_init+0xb8>)
10001932:	4b2c      	ldr	r3, [pc, #176]	; (100019e4 <runtime_init+0xbc>)
10001934:	492c      	ldr	r1, [pc, #176]	; (100019e8 <runtime_init+0xc0>)
10001936:	601a      	str	r2, [r3, #0]
10001938:	0010      	movs	r0, r2
1000193a:	688b      	ldr	r3, [r1, #8]
1000193c:	4398      	bics	r0, r3
1000193e:	d1fb      	bne.n	10001938 <runtime_init+0x10>
10001940:	4c2a      	ldr	r4, [pc, #168]	; (100019ec <runtime_init+0xc4>)
10001942:	4d2b      	ldr	r5, [pc, #172]	; (100019f0 <runtime_init+0xc8>)
10001944:	42ac      	cmp	r4, r5
10001946:	d209      	bcs.n	1000195c <runtime_init+0x34>
10001948:	2203      	movs	r2, #3
1000194a:	1d23      	adds	r3, r4, #4
1000194c:	3503      	adds	r5, #3
1000194e:	1aed      	subs	r5, r5, r3
10001950:	4395      	bics	r5, r2
10001952:	18ed      	adds	r5, r5, r3
10001954:	cc08      	ldmia	r4!, {r3}
10001956:	4798      	blx	r3
10001958:	42ac      	cmp	r4, r5
1000195a:	d1fb      	bne.n	10001954 <runtime_init+0x2c>
1000195c:	f000 f87a 	bl	10001a54 <clocks_init>
10001960:	4a24      	ldr	r2, [pc, #144]	; (100019f4 <runtime_init+0xcc>)
10001962:	4b20      	ldr	r3, [pc, #128]	; (100019e4 <runtime_init+0xbc>)
10001964:	601a      	str	r2, [r3, #0]
10001966:	4a20      	ldr	r2, [pc, #128]	; (100019e8 <runtime_init+0xc0>)
10001968:	6893      	ldr	r3, [r2, #8]
1000196a:	01db      	lsls	r3, r3, #7
1000196c:	3380      	adds	r3, #128	; 0x80
1000196e:	d1fb      	bne.n	10001968 <runtime_init+0x40>
10001970:	2240      	movs	r2, #64	; 0x40
10001972:	4b21      	ldr	r3, [pc, #132]	; (100019f8 <runtime_init+0xd0>)
10001974:	4c21      	ldr	r4, [pc, #132]	; (100019fc <runtime_init+0xd4>)
10001976:	4d22      	ldr	r5, [pc, #136]	; (10001a00 <runtime_init+0xd8>)
10001978:	679a      	str	r2, [r3, #120]	; 0x78
1000197a:	675a      	str	r2, [r3, #116]	; 0x74
1000197c:	671a      	str	r2, [r3, #112]	; 0x70
1000197e:	66da      	str	r2, [r3, #108]	; 0x6c
10001980:	42ac      	cmp	r4, r5
10001982:	d20c      	bcs.n	1000199e <runtime_init+0x76>
10001984:	0023      	movs	r3, r4
10001986:	3507      	adds	r5, #7
10001988:	3308      	adds	r3, #8
1000198a:	1aed      	subs	r5, r5, r3
1000198c:	3a39      	subs	r2, #57	; 0x39
1000198e:	4395      	bics	r5, r2
10001990:	18ed      	adds	r5, r5, r3
10001992:	0020      	movs	r0, r4
10001994:	3408      	adds	r4, #8
10001996:	f7ff fcdd 	bl	10001354 <mutex_init>
1000199a:	42ac      	cmp	r4, r5
1000199c:	d1f9      	bne.n	10001992 <runtime_init+0x6a>
1000199e:	4d19      	ldr	r5, [pc, #100]	; (10001a04 <runtime_init+0xdc>)
100019a0:	4c19      	ldr	r4, [pc, #100]	; (10001a08 <runtime_init+0xe0>)
100019a2:	22c0      	movs	r2, #192	; 0xc0
100019a4:	68a1      	ldr	r1, [r4, #8]
100019a6:	0028      	movs	r0, r5
100019a8:	f003 fe2e 	bl	10005608 <__wrap___aeabi_memcpy>
100019ac:	60a5      	str	r5, [r4, #8]
100019ae:	f7fe fe45 	bl	1000063c <spin_locks_reset>
100019b2:	f000 fbdf 	bl	10002174 <irq_init_priorities>
100019b6:	f7ff f883 	bl	10000ac0 <alarm_pool_init_default>
100019ba:	4c14      	ldr	r4, [pc, #80]	; (10001a0c <runtime_init+0xe4>)
100019bc:	4d14      	ldr	r5, [pc, #80]	; (10001a10 <runtime_init+0xe8>)
100019be:	42ac      	cmp	r4, r5
100019c0:	d209      	bcs.n	100019d6 <runtime_init+0xae>
100019c2:	2203      	movs	r2, #3
100019c4:	1d23      	adds	r3, r4, #4
100019c6:	3503      	adds	r5, #3
100019c8:	1aed      	subs	r5, r5, r3
100019ca:	4395      	bics	r5, r2
100019cc:	18ed      	adds	r5, r5, r3
100019ce:	cc08      	ldmia	r4!, {r3}
100019d0:	4798      	blx	r3
100019d2:	42ac      	cmp	r4, r5
100019d4:	d1fb      	bne.n	100019ce <runtime_init+0xa6>
100019d6:	bd70      	pop	{r4, r5, r6, pc}
100019d8:	4000e000 	.word	0x4000e000
100019dc:	ffffcdbf 	.word	0xffffcdbf
100019e0:	003c7ffe 	.word	0x003c7ffe
100019e4:	4000f000 	.word	0x4000f000
100019e8:	4000c000 	.word	0x4000c000
100019ec:	20000338 	.word	0x20000338
100019f0:	20000348 	.word	0x20000348
100019f4:	01ffffff 	.word	0x01ffffff
100019f8:	4001f000 	.word	0x4001f000
100019fc:	20000330 	.word	0x20000330
10001a00:	20000338 	.word	0x20000338
10001a04:	20000000 	.word	0x20000000
10001a08:	e000ed00 	.word	0xe000ed00
10001a0c:	20000348 	.word	0x20000348
10001a10:	2000034c 	.word	0x2000034c

10001a14 <exit>:
10001a14:	be00      	bkpt	0x0000
10001a16:	e7fd      	b.n	10001a14 <exit>

10001a18 <panic>:
10001a18:	b40f      	push	{r0, r1, r2, r3}
10001a1a:	b500      	push	{lr}
10001a1c:	4808      	ldr	r0, [pc, #32]	; (10001a40 <panic+0x28>)
10001a1e:	b083      	sub	sp, #12
10001a20:	f003 fecc 	bl	100057bc <__wrap_puts>
10001a24:	9b04      	ldr	r3, [sp, #16]
10001a26:	2b00      	cmp	r3, #0
10001a28:	d007      	beq.n	10001a3a <panic+0x22>
10001a2a:	a905      	add	r1, sp, #20
10001a2c:	0018      	movs	r0, r3
10001a2e:	9101      	str	r1, [sp, #4]
10001a30:	f002 fedc 	bl	100047ec <weak_raw_vprintf>
10001a34:	4803      	ldr	r0, [pc, #12]	; (10001a44 <panic+0x2c>)
10001a36:	f003 fec1 	bl	100057bc <__wrap_puts>
10001a3a:	be00      	bkpt	0x0000
10001a3c:	e7fd      	b.n	10001a3a <panic+0x22>
10001a3e:	46c0      	nop			; (mov r8, r8)
10001a40:	10008074 	.word	0x10008074
10001a44:	10008084 	.word	0x10008084

10001a48 <hard_assertion_failure>:
10001a48:	b510      	push	{r4, lr}
10001a4a:	4801      	ldr	r0, [pc, #4]	; (10001a50 <hard_assertion_failure+0x8>)
10001a4c:	f7ff ffe4 	bl	10001a18 <panic>
10001a50:	10008068 	.word	0x10008068

10001a54 <clocks_init>:
10001a54:	b530      	push	{r4, r5, lr}
10001a56:	200c      	movs	r0, #12
10001a58:	b083      	sub	sp, #12
10001a5a:	f000 f977 	bl	10001d4c <watchdog_start_tick>
10001a5e:	f7fe fe17 	bl	10000690 <running_on_fpga>
10001a62:	2800      	cmp	r0, #0
10001a64:	d00e      	beq.n	10001a84 <clocks_init+0x30>
10001a66:	4b9c      	ldr	r3, [pc, #624]	; (10001cd8 <clocks_init+0x284>)
10001a68:	4a9c      	ldr	r2, [pc, #624]	; (10001cdc <clocks_init+0x288>)
10001a6a:	601a      	str	r2, [r3, #0]
10001a6c:	605a      	str	r2, [r3, #4]
10001a6e:	609a      	str	r2, [r3, #8]
10001a70:	60da      	str	r2, [r3, #12]
10001a72:	611a      	str	r2, [r3, #16]
10001a74:	615a      	str	r2, [r3, #20]
10001a76:	619a      	str	r2, [r3, #24]
10001a78:	61da      	str	r2, [r3, #28]
10001a7a:	621a      	str	r2, [r3, #32]
10001a7c:	4a98      	ldr	r2, [pc, #608]	; (10001ce0 <clocks_init+0x28c>)
10001a7e:	625a      	str	r2, [r3, #36]	; 0x24
10001a80:	b003      	add	sp, #12
10001a82:	bd30      	pop	{r4, r5, pc}
10001a84:	4c97      	ldr	r4, [pc, #604]	; (10001ce4 <clocks_init+0x290>)
10001a86:	67a0      	str	r0, [r4, #120]	; 0x78
10001a88:	f000 f9b2 	bl	10001df0 <xosc_init>
10001a8c:	2201      	movs	r2, #1
10001a8e:	4b96      	ldr	r3, [pc, #600]	; (10001ce8 <clocks_init+0x294>)
10001a90:	601a      	str	r2, [r3, #0]
10001a92:	6c63      	ldr	r3, [r4, #68]	; 0x44
10001a94:	2b01      	cmp	r3, #1
10001a96:	d1fc      	bne.n	10001a92 <clocks_init+0x3e>
10001a98:	2203      	movs	r2, #3
10001a9a:	4b94      	ldr	r3, [pc, #592]	; (10001cec <clocks_init+0x298>)
10001a9c:	601a      	str	r2, [r3, #0]
10001a9e:	4a91      	ldr	r2, [pc, #580]	; (10001ce4 <clocks_init+0x290>)
10001aa0:	6b93      	ldr	r3, [r2, #56]	; 0x38
10001aa2:	2b01      	cmp	r3, #1
10001aa4:	d1fc      	bne.n	10001aa0 <clocks_init+0x4c>
10001aa6:	22c0      	movs	r2, #192	; 0xc0
10001aa8:	4b91      	ldr	r3, [pc, #580]	; (10001cf0 <clocks_init+0x29c>)
10001aaa:	0192      	lsls	r2, r2, #6
10001aac:	601a      	str	r2, [r3, #0]
10001aae:	4b91      	ldr	r3, [pc, #580]	; (10001cf4 <clocks_init+0x2a0>)
10001ab0:	4991      	ldr	r1, [pc, #580]	; (10001cf8 <clocks_init+0x2a4>)
10001ab2:	601a      	str	r2, [r3, #0]
10001ab4:	0010      	movs	r0, r2
10001ab6:	688b      	ldr	r3, [r1, #8]
10001ab8:	4398      	bics	r0, r3
10001aba:	1e03      	subs	r3, r0, #0
10001abc:	d1fa      	bne.n	10001ab4 <clocks_init+0x60>
10001abe:	2402      	movs	r4, #2
10001ac0:	3306      	adds	r3, #6
10001ac2:	4a8e      	ldr	r2, [pc, #568]	; (10001cfc <clocks_init+0x2a8>)
10001ac4:	2101      	movs	r1, #1
10001ac6:	488e      	ldr	r0, [pc, #568]	; (10001d00 <clocks_init+0x2ac>)
10001ac8:	9400      	str	r4, [sp, #0]
10001aca:	f000 f9a5 	bl	10001e18 <pll_init>
10001ace:	2305      	movs	r3, #5
10001ad0:	4a8c      	ldr	r2, [pc, #560]	; (10001d04 <clocks_init+0x2b0>)
10001ad2:	9400      	str	r4, [sp, #0]
10001ad4:	2101      	movs	r1, #1
10001ad6:	488c      	ldr	r0, [pc, #560]	; (10001d08 <clocks_init+0x2b4>)
10001ad8:	f000 f99e 	bl	10001e18 <pll_init>
10001adc:	4b8b      	ldr	r3, [pc, #556]	; (10001d0c <clocks_init+0x2b8>)
10001ade:	685a      	ldr	r2, [r3, #4]
10001ae0:	2aff      	cmp	r2, #255	; 0xff
10001ae2:	d802      	bhi.n	10001aea <clocks_init+0x96>
10001ae4:	2280      	movs	r2, #128	; 0x80
10001ae6:	0052      	lsls	r2, r2, #1
10001ae8:	605a      	str	r2, [r3, #4]
10001aea:	2280      	movs	r2, #128	; 0x80
10001aec:	4c7a      	ldr	r4, [pc, #488]	; (10001cd8 <clocks_init+0x284>)
10001aee:	4b7f      	ldr	r3, [pc, #508]	; (10001cec <clocks_init+0x298>)
10001af0:	6921      	ldr	r1, [r4, #16]
10001af2:	0112      	lsls	r2, r2, #4
10001af4:	4d85      	ldr	r5, [pc, #532]	; (10001d0c <clocks_init+0x2b8>)
10001af6:	601a      	str	r2, [r3, #0]
10001af8:	2900      	cmp	r1, #0
10001afa:	d000      	beq.n	10001afe <clocks_init+0xaa>
10001afc:	e0e5      	b.n	10001cca <clocks_init+0x276>
10001afe:	21e0      	movs	r1, #224	; 0xe0
10001b00:	4b82      	ldr	r3, [pc, #520]	; (10001d0c <clocks_init+0x2b8>)
10001b02:	2002      	movs	r0, #2
10001b04:	681a      	ldr	r2, [r3, #0]
10001b06:	4011      	ands	r1, r2
10001b08:	2280      	movs	r2, #128	; 0x80
10001b0a:	0152      	lsls	r2, r2, #5
10001b0c:	432a      	orrs	r2, r5
10001b0e:	6011      	str	r1, [r2, #0]
10001b10:	6819      	ldr	r1, [r3, #0]
10001b12:	4048      	eors	r0, r1
10001b14:	2103      	movs	r1, #3
10001b16:	4001      	ands	r1, r0
10001b18:	6011      	str	r1, [r2, #0]
10001b1a:	2104      	movs	r1, #4
10001b1c:	689a      	ldr	r2, [r3, #8]
10001b1e:	4211      	tst	r1, r2
10001b20:	d0fc      	beq.n	10001b1c <clocks_init+0xc8>
10001b22:	2280      	movs	r2, #128	; 0x80
10001b24:	2180      	movs	r1, #128	; 0x80
10001b26:	0192      	lsls	r2, r2, #6
10001b28:	432a      	orrs	r2, r5
10001b2a:	0109      	lsls	r1, r1, #4
10001b2c:	6011      	str	r1, [r2, #0]
10001b2e:	2280      	movs	r2, #128	; 0x80
10001b30:	0052      	lsls	r2, r2, #1
10001b32:	605a      	str	r2, [r3, #4]
10001b34:	4b76      	ldr	r3, [pc, #472]	; (10001d10 <clocks_init+0x2bc>)
10001b36:	6123      	str	r3, [r4, #16]
10001b38:	4b76      	ldr	r3, [pc, #472]	; (10001d14 <clocks_init+0x2c0>)
10001b3a:	6859      	ldr	r1, [r3, #4]
10001b3c:	29ff      	cmp	r1, #255	; 0xff
10001b3e:	d800      	bhi.n	10001b42 <clocks_init+0xee>
10001b40:	e0c1      	b.n	10001cc6 <clocks_init+0x272>
10001b42:	2203      	movs	r2, #3
10001b44:	4b68      	ldr	r3, [pc, #416]	; (10001ce8 <clocks_init+0x294>)
10001b46:	4873      	ldr	r0, [pc, #460]	; (10001d14 <clocks_init+0x2c0>)
10001b48:	601a      	str	r2, [r3, #0]
10001b4a:	2101      	movs	r1, #1
10001b4c:	0003      	movs	r3, r0
10001b4e:	689a      	ldr	r2, [r3, #8]
10001b50:	4211      	tst	r1, r2
10001b52:	d0fc      	beq.n	10001b4e <clocks_init+0xfa>
10001b54:	25e0      	movs	r5, #224	; 0xe0
10001b56:	681a      	ldr	r2, [r3, #0]
10001b58:	4015      	ands	r5, r2
10001b5a:	2280      	movs	r2, #128	; 0x80
10001b5c:	0152      	lsls	r2, r2, #5
10001b5e:	4302      	orrs	r2, r0
10001b60:	6015      	str	r5, [r2, #0]
10001b62:	681b      	ldr	r3, [r3, #0]
10001b64:	404b      	eors	r3, r1
10001b66:	2103      	movs	r1, #3
10001b68:	4019      	ands	r1, r3
10001b6a:	6011      	str	r1, [r2, #0]
10001b6c:	2102      	movs	r1, #2
10001b6e:	4a69      	ldr	r2, [pc, #420]	; (10001d14 <clocks_init+0x2c0>)
10001b70:	6893      	ldr	r3, [r2, #8]
10001b72:	4219      	tst	r1, r3
10001b74:	d0fc      	beq.n	10001b70 <clocks_init+0x11c>
10001b76:	2380      	movs	r3, #128	; 0x80
10001b78:	2180      	movs	r1, #128	; 0x80
10001b7a:	019b      	lsls	r3, r3, #6
10001b7c:	4303      	orrs	r3, r0
10001b7e:	0109      	lsls	r1, r1, #4
10001b80:	6019      	str	r1, [r3, #0]
10001b82:	2180      	movs	r1, #128	; 0x80
10001b84:	4b64      	ldr	r3, [pc, #400]	; (10001d18 <clocks_init+0x2c4>)
10001b86:	0049      	lsls	r1, r1, #1
10001b88:	6051      	str	r1, [r2, #4]
10001b8a:	6163      	str	r3, [r4, #20]
10001b8c:	4b63      	ldr	r3, [pc, #396]	; (10001d1c <clocks_init+0x2c8>)
10001b8e:	685a      	ldr	r2, [r3, #4]
10001b90:	2aff      	cmp	r2, #255	; 0xff
10001b92:	d800      	bhi.n	10001b96 <clocks_init+0x142>
10001b94:	6059      	str	r1, [r3, #4]
10001b96:	2280      	movs	r2, #128	; 0x80
10001b98:	4b61      	ldr	r3, [pc, #388]	; (10001d20 <clocks_init+0x2cc>)
10001b9a:	69e1      	ldr	r1, [r4, #28]
10001b9c:	0112      	lsls	r2, r2, #4
10001b9e:	4d5f      	ldr	r5, [pc, #380]	; (10001d1c <clocks_init+0x2c8>)
10001ba0:	601a      	str	r2, [r3, #0]
10001ba2:	2900      	cmp	r1, #0
10001ba4:	d005      	beq.n	10001bb2 <clocks_init+0x15e>
10001ba6:	6960      	ldr	r0, [r4, #20]
10001ba8:	f002 fe9a 	bl	100048e0 <__wrap___aeabi_uidiv>
10001bac:	3001      	adds	r0, #1
10001bae:	3801      	subs	r0, #1
10001bb0:	d1fd      	bne.n	10001bae <clocks_init+0x15a>
10001bb2:	22e0      	movs	r2, #224	; 0xe0
10001bb4:	4959      	ldr	r1, [pc, #356]	; (10001d1c <clocks_init+0x2c8>)
10001bb6:	680b      	ldr	r3, [r1, #0]
10001bb8:	401a      	ands	r2, r3
10001bba:	2380      	movs	r3, #128	; 0x80
10001bbc:	015b      	lsls	r3, r3, #5
10001bbe:	432b      	orrs	r3, r5
10001bc0:	601a      	str	r2, [r3, #0]
10001bc2:	2380      	movs	r3, #128	; 0x80
10001bc4:	2280      	movs	r2, #128	; 0x80
10001bc6:	019b      	lsls	r3, r3, #6
10001bc8:	432b      	orrs	r3, r5
10001bca:	0112      	lsls	r2, r2, #4
10001bcc:	601a      	str	r2, [r3, #0]
10001bce:	2280      	movs	r2, #128	; 0x80
10001bd0:	4b42      	ldr	r3, [pc, #264]	; (10001cdc <clocks_init+0x288>)
10001bd2:	0052      	lsls	r2, r2, #1
10001bd4:	604a      	str	r2, [r1, #4]
10001bd6:	61e3      	str	r3, [r4, #28]
10001bd8:	4b52      	ldr	r3, [pc, #328]	; (10001d24 <clocks_init+0x2d0>)
10001bda:	6859      	ldr	r1, [r3, #4]
10001bdc:	29ff      	cmp	r1, #255	; 0xff
10001bde:	d800      	bhi.n	10001be2 <clocks_init+0x18e>
10001be0:	605a      	str	r2, [r3, #4]
10001be2:	2280      	movs	r2, #128	; 0x80
10001be4:	4b50      	ldr	r3, [pc, #320]	; (10001d28 <clocks_init+0x2d4>)
10001be6:	6a21      	ldr	r1, [r4, #32]
10001be8:	0112      	lsls	r2, r2, #4
10001bea:	4d4e      	ldr	r5, [pc, #312]	; (10001d24 <clocks_init+0x2d0>)
10001bec:	601a      	str	r2, [r3, #0]
10001bee:	2900      	cmp	r1, #0
10001bf0:	d005      	beq.n	10001bfe <clocks_init+0x1aa>
10001bf2:	6960      	ldr	r0, [r4, #20]
10001bf4:	f002 fe74 	bl	100048e0 <__wrap___aeabi_uidiv>
10001bf8:	3001      	adds	r0, #1
10001bfa:	3801      	subs	r0, #1
10001bfc:	d1fd      	bne.n	10001bfa <clocks_init+0x1a6>
10001bfe:	22e0      	movs	r2, #224	; 0xe0
10001c00:	4948      	ldr	r1, [pc, #288]	; (10001d24 <clocks_init+0x2d0>)
10001c02:	680b      	ldr	r3, [r1, #0]
10001c04:	401a      	ands	r2, r3
10001c06:	2380      	movs	r3, #128	; 0x80
10001c08:	015b      	lsls	r3, r3, #5
10001c0a:	432b      	orrs	r3, r5
10001c0c:	601a      	str	r2, [r3, #0]
10001c0e:	2380      	movs	r3, #128	; 0x80
10001c10:	2280      	movs	r2, #128	; 0x80
10001c12:	019b      	lsls	r3, r3, #6
10001c14:	432b      	orrs	r3, r5
10001c16:	0112      	lsls	r2, r2, #4
10001c18:	601a      	str	r2, [r3, #0]
10001c1a:	2380      	movs	r3, #128	; 0x80
10001c1c:	005b      	lsls	r3, r3, #1
10001c1e:	604b      	str	r3, [r1, #4]
10001c20:	4b2e      	ldr	r3, [pc, #184]	; (10001cdc <clocks_init+0x288>)
10001c22:	4a42      	ldr	r2, [pc, #264]	; (10001d2c <clocks_init+0x2d8>)
10001c24:	6223      	str	r3, [r4, #32]
10001c26:	4b42      	ldr	r3, [pc, #264]	; (10001d30 <clocks_init+0x2dc>)
10001c28:	6859      	ldr	r1, [r3, #4]
10001c2a:	4291      	cmp	r1, r2
10001c2c:	d801      	bhi.n	10001c32 <clocks_init+0x1de>
10001c2e:	3201      	adds	r2, #1
10001c30:	605a      	str	r2, [r3, #4]
10001c32:	2280      	movs	r2, #128	; 0x80
10001c34:	4b3f      	ldr	r3, [pc, #252]	; (10001d34 <clocks_init+0x2e0>)
10001c36:	6a61      	ldr	r1, [r4, #36]	; 0x24
10001c38:	0112      	lsls	r2, r2, #4
10001c3a:	4d3d      	ldr	r5, [pc, #244]	; (10001d30 <clocks_init+0x2dc>)
10001c3c:	601a      	str	r2, [r3, #0]
10001c3e:	2900      	cmp	r1, #0
10001c40:	d005      	beq.n	10001c4e <clocks_init+0x1fa>
10001c42:	6960      	ldr	r0, [r4, #20]
10001c44:	f002 fe4c 	bl	100048e0 <__wrap___aeabi_uidiv>
10001c48:	3001      	adds	r0, #1
10001c4a:	3801      	subs	r0, #1
10001c4c:	d1fd      	bne.n	10001c4a <clocks_init+0x1f6>
10001c4e:	22e0      	movs	r2, #224	; 0xe0
10001c50:	4937      	ldr	r1, [pc, #220]	; (10001d30 <clocks_init+0x2dc>)
10001c52:	680b      	ldr	r3, [r1, #0]
10001c54:	401a      	ands	r2, r3
10001c56:	2380      	movs	r3, #128	; 0x80
10001c58:	015b      	lsls	r3, r3, #5
10001c5a:	432b      	orrs	r3, r5
10001c5c:	601a      	str	r2, [r3, #0]
10001c5e:	2380      	movs	r3, #128	; 0x80
10001c60:	2280      	movs	r2, #128	; 0x80
10001c62:	019b      	lsls	r3, r3, #6
10001c64:	432b      	orrs	r3, r5
10001c66:	0112      	lsls	r2, r2, #4
10001c68:	601a      	str	r2, [r3, #0]
10001c6a:	2380      	movs	r3, #128	; 0x80
10001c6c:	02db      	lsls	r3, r3, #11
10001c6e:	604b      	str	r3, [r1, #4]
10001c70:	4b1b      	ldr	r3, [pc, #108]	; (10001ce0 <clocks_init+0x28c>)
10001c72:	6263      	str	r3, [r4, #36]	; 0x24
10001c74:	4b30      	ldr	r3, [pc, #192]	; (10001d38 <clocks_init+0x2e4>)
10001c76:	685a      	ldr	r2, [r3, #4]
10001c78:	2aff      	cmp	r2, #255	; 0xff
10001c7a:	d802      	bhi.n	10001c82 <clocks_init+0x22e>
10001c7c:	2280      	movs	r2, #128	; 0x80
10001c7e:	0052      	lsls	r2, r2, #1
10001c80:	605a      	str	r2, [r3, #4]
10001c82:	2280      	movs	r2, #128	; 0x80
10001c84:	4b2d      	ldr	r3, [pc, #180]	; (10001d3c <clocks_init+0x2e8>)
10001c86:	69a1      	ldr	r1, [r4, #24]
10001c88:	0112      	lsls	r2, r2, #4
10001c8a:	4d2b      	ldr	r5, [pc, #172]	; (10001d38 <clocks_init+0x2e4>)
10001c8c:	601a      	str	r2, [r3, #0]
10001c8e:	2900      	cmp	r1, #0
10001c90:	d005      	beq.n	10001c9e <clocks_init+0x24a>
10001c92:	6960      	ldr	r0, [r4, #20]
10001c94:	f002 fe24 	bl	100048e0 <__wrap___aeabi_uidiv>
10001c98:	3001      	adds	r0, #1
10001c9a:	3801      	subs	r0, #1
10001c9c:	d1fd      	bne.n	10001c9a <clocks_init+0x246>
10001c9e:	22e0      	movs	r2, #224	; 0xe0
10001ca0:	4925      	ldr	r1, [pc, #148]	; (10001d38 <clocks_init+0x2e4>)
10001ca2:	680b      	ldr	r3, [r1, #0]
10001ca4:	401a      	ands	r2, r3
10001ca6:	2380      	movs	r3, #128	; 0x80
10001ca8:	015b      	lsls	r3, r3, #5
10001caa:	432b      	orrs	r3, r5
10001cac:	601a      	str	r2, [r3, #0]
10001cae:	2380      	movs	r3, #128	; 0x80
10001cb0:	2280      	movs	r2, #128	; 0x80
10001cb2:	019b      	lsls	r3, r3, #6
10001cb4:	432b      	orrs	r3, r5
10001cb6:	0112      	lsls	r2, r2, #4
10001cb8:	601a      	str	r2, [r3, #0]
10001cba:	2380      	movs	r3, #128	; 0x80
10001cbc:	005b      	lsls	r3, r3, #1
10001cbe:	604b      	str	r3, [r1, #4]
10001cc0:	4b15      	ldr	r3, [pc, #84]	; (10001d18 <clocks_init+0x2c4>)
10001cc2:	61a3      	str	r3, [r4, #24]
10001cc4:	e6dc      	b.n	10001a80 <clocks_init+0x2c>
10001cc6:	605a      	str	r2, [r3, #4]
10001cc8:	e73b      	b.n	10001b42 <clocks_init+0xee>
10001cca:	6960      	ldr	r0, [r4, #20]
10001ccc:	f002 fe08 	bl	100048e0 <__wrap___aeabi_uidiv>
10001cd0:	3001      	adds	r0, #1
10001cd2:	3801      	subs	r0, #1
10001cd4:	d1fd      	bne.n	10001cd2 <clocks_init+0x27e>
10001cd6:	e712      	b.n	10001afe <clocks_init+0xaa>
10001cd8:	200007f8 	.word	0x200007f8
10001cdc:	02dc6c00 	.word	0x02dc6c00
10001ce0:	0000b71b 	.word	0x0000b71b
10001ce4:	40008000 	.word	0x40008000
10001ce8:	4000b03c 	.word	0x4000b03c
10001cec:	4000b030 	.word	0x4000b030
10001cf0:	4000e000 	.word	0x4000e000
10001cf4:	4000f000 	.word	0x4000f000
10001cf8:	4000c000 	.word	0x4000c000
10001cfc:	59682f00 	.word	0x59682f00
10001d00:	40028000 	.word	0x40028000
10001d04:	1c9c3800 	.word	0x1c9c3800
10001d08:	4002c000 	.word	0x4002c000
10001d0c:	40008030 	.word	0x40008030
10001d10:	00b71b00 	.word	0x00b71b00
10001d14:	4000803c 	.word	0x4000803c
10001d18:	07735940 	.word	0x07735940
10001d1c:	40008054 	.word	0x40008054
10001d20:	4000b054 	.word	0x4000b054
10001d24:	40008060 	.word	0x40008060
10001d28:	4000b060 	.word	0x4000b060
10001d2c:	0003ffff 	.word	0x0003ffff
10001d30:	4000806c 	.word	0x4000806c
10001d34:	4000b06c 	.word	0x4000b06c
10001d38:	40008048 	.word	0x40008048
10001d3c:	4000b048 	.word	0x4000b048

10001d40 <clock_get_hz>:
10001d40:	4b01      	ldr	r3, [pc, #4]	; (10001d48 <clock_get_hz+0x8>)
10001d42:	0080      	lsls	r0, r0, #2
10001d44:	58c0      	ldr	r0, [r0, r3]
10001d46:	4770      	bx	lr
10001d48:	200007f8 	.word	0x200007f8

10001d4c <watchdog_start_tick>:
10001d4c:	2380      	movs	r3, #128	; 0x80
10001d4e:	009b      	lsls	r3, r3, #2
10001d50:	4318      	orrs	r0, r3
10001d52:	4b01      	ldr	r3, [pc, #4]	; (10001d58 <watchdog_start_tick+0xc>)
10001d54:	62d8      	str	r0, [r3, #44]	; 0x2c
10001d56:	4770      	bx	lr
10001d58:	40058000 	.word	0x40058000

10001d5c <watchdog_reboot>:
10001d5c:	b510      	push	{r4, lr}
10001d5e:	2480      	movs	r4, #128	; 0x80
10001d60:	4b19      	ldr	r3, [pc, #100]	; (10001dc8 <watchdog_reboot+0x6c>)
10001d62:	05e4      	lsls	r4, r4, #23
10001d64:	601c      	str	r4, [r3, #0]
10001d66:	2800      	cmp	r0, #0
10001d68:	d027      	beq.n	10001dba <watchdog_reboot+0x5e>
10001d6a:	2301      	movs	r3, #1
10001d6c:	4c17      	ldr	r4, [pc, #92]	; (10001dcc <watchdog_reboot+0x70>)
10001d6e:	4318      	orrs	r0, r3
10001d70:	4b17      	ldr	r3, [pc, #92]	; (10001dd0 <watchdog_reboot+0x74>)
10001d72:	61dc      	str	r4, [r3, #28]
10001d74:	4c17      	ldr	r4, [pc, #92]	; (10001dd4 <watchdog_reboot+0x78>)
10001d76:	4044      	eors	r4, r0
10001d78:	621c      	str	r4, [r3, #32]
10001d7a:	6259      	str	r1, [r3, #36]	; 0x24
10001d7c:	6298      	str	r0, [r3, #40]	; 0x28
10001d7e:	2180      	movs	r1, #128	; 0x80
10001d80:	4b11      	ldr	r3, [pc, #68]	; (10001dc8 <watchdog_reboot+0x6c>)
10001d82:	05c9      	lsls	r1, r1, #23
10001d84:	6019      	str	r1, [r3, #0]
10001d86:	4814      	ldr	r0, [pc, #80]	; (10001dd8 <watchdog_reboot+0x7c>)
10001d88:	4914      	ldr	r1, [pc, #80]	; (10001ddc <watchdog_reboot+0x80>)
10001d8a:	6008      	str	r0, [r1, #0]
10001d8c:	21e0      	movs	r1, #224	; 0xe0
10001d8e:	04c9      	lsls	r1, r1, #19
10001d90:	6019      	str	r1, [r3, #0]
10001d92:	2a00      	cmp	r2, #0
10001d94:	d014      	beq.n	10001dc0 <watchdog_reboot+0x64>
10001d96:	0153      	lsls	r3, r2, #5
10001d98:	1a9b      	subs	r3, r3, r2
10001d9a:	009b      	lsls	r3, r3, #2
10001d9c:	189a      	adds	r2, r3, r2
10001d9e:	4b10      	ldr	r3, [pc, #64]	; (10001de0 <watchdog_reboot+0x84>)
10001da0:	0112      	lsls	r2, r2, #4
10001da2:	429a      	cmp	r2, r3
10001da4:	d90d      	bls.n	10001dc2 <watchdog_reboot+0x66>
10001da6:	4a0f      	ldr	r2, [pc, #60]	; (10001de4 <watchdog_reboot+0x88>)
10001da8:	6013      	str	r3, [r2, #0]
10001daa:	001a      	movs	r2, r3
10001dac:	4b08      	ldr	r3, [pc, #32]	; (10001dd0 <watchdog_reboot+0x74>)
10001dae:	605a      	str	r2, [r3, #4]
10001db0:	2280      	movs	r2, #128	; 0x80
10001db2:	4b0d      	ldr	r3, [pc, #52]	; (10001de8 <watchdog_reboot+0x8c>)
10001db4:	05d2      	lsls	r2, r2, #23
10001db6:	601a      	str	r2, [r3, #0]
10001db8:	bd10      	pop	{r4, pc}
10001dba:	4b05      	ldr	r3, [pc, #20]	; (10001dd0 <watchdog_reboot+0x74>)
10001dbc:	61d8      	str	r0, [r3, #28]
10001dbe:	e7de      	b.n	10001d7e <watchdog_reboot+0x22>
10001dc0:	4a0a      	ldr	r2, [pc, #40]	; (10001dec <watchdog_reboot+0x90>)
10001dc2:	4b08      	ldr	r3, [pc, #32]	; (10001de4 <watchdog_reboot+0x88>)
10001dc4:	601a      	str	r2, [r3, #0]
10001dc6:	e7f1      	b.n	10001dac <watchdog_reboot+0x50>
10001dc8:	4005b000 	.word	0x4005b000
10001dcc:	b007c0d3 	.word	0xb007c0d3
10001dd0:	40058000 	.word	0x40058000
10001dd4:	4ff83f2d 	.word	0x4ff83f2d
10001dd8:	0001fffc 	.word	0x0001fffc
10001ddc:	40012008 	.word	0x40012008
10001de0:	00ffffff 	.word	0x00ffffff
10001de4:	20000f70 	.word	0x20000f70
10001de8:	4005a000 	.word	0x4005a000
10001dec:	000186a0 	.word	0x000186a0

10001df0 <xosc_init>:
10001df0:	23aa      	movs	r3, #170	; 0xaa
10001df2:	4a06      	ldr	r2, [pc, #24]	; (10001e0c <xosc_init+0x1c>)
10001df4:	011b      	lsls	r3, r3, #4
10001df6:	6013      	str	r3, [r2, #0]
10001df8:	232f      	movs	r3, #47	; 0x2f
10001dfa:	4905      	ldr	r1, [pc, #20]	; (10001e10 <xosc_init+0x20>)
10001dfc:	60d3      	str	r3, [r2, #12]
10001dfe:	4b05      	ldr	r3, [pc, #20]	; (10001e14 <xosc_init+0x24>)
10001e00:	6019      	str	r1, [r3, #0]
10001e02:	6853      	ldr	r3, [r2, #4]
10001e04:	2b00      	cmp	r3, #0
10001e06:	dafc      	bge.n	10001e02 <xosc_init+0x12>
10001e08:	4770      	bx	lr
10001e0a:	46c0      	nop			; (mov r8, r8)
10001e0c:	40024000 	.word	0x40024000
10001e10:	00fab000 	.word	0x00fab000
10001e14:	40026000 	.word	0x40026000

10001e18 <pll_init>:
10001e18:	b570      	push	{r4, r5, r6, lr}
10001e1a:	001d      	movs	r5, r3
10001e1c:	2301      	movs	r3, #1
10001e1e:	425b      	negs	r3, r3
10001e20:	6043      	str	r3, [r0, #4]
10001e22:	2300      	movs	r3, #0
10001e24:	0004      	movs	r4, r0
10001e26:	6083      	str	r3, [r0, #8]
10001e28:	6001      	str	r1, [r0, #0]
10001e2a:	200c      	movs	r0, #12
10001e2c:	0016      	movs	r6, r2
10001e2e:	f002 fd57 	bl	100048e0 <__wrap___aeabi_uidiv>
10001e32:	0142      	lsls	r2, r0, #5
10001e34:	1a12      	subs	r2, r2, r0
10001e36:	0191      	lsls	r1, r2, #6
10001e38:	1a89      	subs	r1, r1, r2
10001e3a:	00c9      	lsls	r1, r1, #3
10001e3c:	1809      	adds	r1, r1, r0
10001e3e:	0189      	lsls	r1, r1, #6
10001e40:	0030      	movs	r0, r6
10001e42:	f002 fd4d 	bl	100048e0 <__wrap___aeabi_uidiv>
10001e46:	22c0      	movs	r2, #192	; 0xc0
10001e48:	1d23      	adds	r3, r4, #4
10001e4a:	0192      	lsls	r2, r2, #6
10001e4c:	431a      	orrs	r2, r3
10001e4e:	2321      	movs	r3, #33	; 0x21
10001e50:	60a0      	str	r0, [r4, #8]
10001e52:	6013      	str	r3, [r2, #0]
10001e54:	6823      	ldr	r3, [r4, #0]
10001e56:	2b00      	cmp	r3, #0
10001e58:	dafc      	bge.n	10001e54 <pll_init+0x3c>
10001e5a:	9b04      	ldr	r3, [sp, #16]
10001e5c:	042d      	lsls	r5, r5, #16
10001e5e:	031b      	lsls	r3, r3, #12
10001e60:	431d      	orrs	r5, r3
10001e62:	2308      	movs	r3, #8
10001e64:	60e5      	str	r5, [r4, #12]
10001e66:	6013      	str	r3, [r2, #0]
10001e68:	bd70      	pop	{r4, r5, r6, pc}
10001e6a:	46c0      	nop			; (mov r8, r8)

10001e6c <irq_set_enabled>:
10001e6c:	2301      	movs	r3, #1
10001e6e:	4083      	lsls	r3, r0
10001e70:	2900      	cmp	r1, #0
10001e72:	d102      	bne.n	10001e7a <irq_set_enabled+0xe>
10001e74:	4a03      	ldr	r2, [pc, #12]	; (10001e84 <irq_set_enabled+0x18>)
10001e76:	6013      	str	r3, [r2, #0]
10001e78:	4770      	bx	lr
10001e7a:	4a03      	ldr	r2, [pc, #12]	; (10001e88 <irq_set_enabled+0x1c>)
10001e7c:	6013      	str	r3, [r2, #0]
10001e7e:	4a03      	ldr	r2, [pc, #12]	; (10001e8c <irq_set_enabled+0x20>)
10001e80:	6013      	str	r3, [r2, #0]
10001e82:	e7f9      	b.n	10001e78 <irq_set_enabled+0xc>
10001e84:	e000e180 	.word	0xe000e180
10001e88:	e000e280 	.word	0xe000e280
10001e8c:	e000e100 	.word	0xe000e100

10001e90 <irq_set_pending>:
10001e90:	2301      	movs	r3, #1
10001e92:	4083      	lsls	r3, r0
10001e94:	4a01      	ldr	r2, [pc, #4]	; (10001e9c <irq_set_pending+0xc>)
10001e96:	6013      	str	r3, [r2, #0]
10001e98:	4770      	bx	lr
10001e9a:	46c0      	nop			; (mov r8, r8)
10001e9c:	e000e200 	.word	0xe000e200

10001ea0 <irq_get_vtable_handler>:
10001ea0:	4b02      	ldr	r3, [pc, #8]	; (10001eac <irq_get_vtable_handler+0xc>)
10001ea2:	3010      	adds	r0, #16
10001ea4:	689b      	ldr	r3, [r3, #8]
10001ea6:	0080      	lsls	r0, r0, #2
10001ea8:	58c0      	ldr	r0, [r0, r3]
10001eaa:	4770      	bx	lr
10001eac:	e000ed00 	.word	0xe000ed00

10001eb0 <irq_set_exclusive_handler>:
10001eb0:	b570      	push	{r4, r5, r6, lr}
10001eb2:	000d      	movs	r5, r1
10001eb4:	f3ef 8610 	mrs	r6, PRIMASK
10001eb8:	b672      	cpsid	i
10001eba:	4a0f      	ldr	r2, [pc, #60]	; (10001ef8 <irq_set_exclusive_handler+0x48>)
10001ebc:	6813      	ldr	r3, [r2, #0]
10001ebe:	2b00      	cmp	r3, #0
10001ec0:	d0fc      	beq.n	10001ebc <irq_set_exclusive_handler+0xc>
10001ec2:	f3bf 8f5f 	dmb	sy
10001ec6:	4b0d      	ldr	r3, [pc, #52]	; (10001efc <irq_set_exclusive_handler+0x4c>)
10001ec8:	3010      	adds	r0, #16
10001eca:	689b      	ldr	r3, [r3, #8]
10001ecc:	0084      	lsls	r4, r0, #2
10001ece:	591b      	ldr	r3, [r3, r4]
10001ed0:	4a0b      	ldr	r2, [pc, #44]	; (10001f00 <irq_set_exclusive_handler+0x50>)
10001ed2:	4293      	cmp	r3, r2
10001ed4:	d003      	beq.n	10001ede <irq_set_exclusive_handler+0x2e>
10001ed6:	429d      	cmp	r5, r3
10001ed8:	d001      	beq.n	10001ede <irq_set_exclusive_handler+0x2e>
10001eda:	f7ff fdb5 	bl	10001a48 <hard_assertion_failure>
10001ede:	4b07      	ldr	r3, [pc, #28]	; (10001efc <irq_set_exclusive_handler+0x4c>)
10001ee0:	689b      	ldr	r3, [r3, #8]
10001ee2:	511d      	str	r5, [r3, r4]
10001ee4:	f3bf 8f5f 	dmb	sy
10001ee8:	f3bf 8f5f 	dmb	sy
10001eec:	2200      	movs	r2, #0
10001eee:	4b02      	ldr	r3, [pc, #8]	; (10001ef8 <irq_set_exclusive_handler+0x48>)
10001ef0:	601a      	str	r2, [r3, #0]
10001ef2:	f386 8810 	msr	PRIMASK, r6
10001ef6:	bd70      	pop	{r4, r5, r6, pc}
10001ef8:	d0000124 	.word	0xd0000124
10001efc:	e000ed00 	.word	0xe000ed00
10001f00:	100001cd 	.word	0x100001cd

10001f04 <irq_remove_handler>:
10001f04:	b5f0      	push	{r4, r5, r6, r7, lr}
10001f06:	4645      	mov	r5, r8
10001f08:	46de      	mov	lr, fp
10001f0a:	4657      	mov	r7, sl
10001f0c:	464e      	mov	r6, r9
10001f0e:	b5e0      	push	{r5, r6, r7, lr}
10001f10:	000d      	movs	r5, r1
10001f12:	b083      	sub	sp, #12
10001f14:	f3ef 8a10 	mrs	sl, PRIMASK
10001f18:	b672      	cpsid	i
10001f1a:	4a5c      	ldr	r2, [pc, #368]	; (1000208c <irq_remove_handler+0x188>)
10001f1c:	6813      	ldr	r3, [r2, #0]
10001f1e:	2b00      	cmp	r3, #0
10001f20:	d0fc      	beq.n	10001f1c <irq_remove_handler+0x18>
10001f22:	f3bf 8f5f 	dmb	sy
10001f26:	2210      	movs	r2, #16
10001f28:	4691      	mov	r9, r2
10001f2a:	4481      	add	r9, r0
10001f2c:	464a      	mov	r2, r9
10001f2e:	4b58      	ldr	r3, [pc, #352]	; (10002090 <irq_remove_handler+0x18c>)
10001f30:	0096      	lsls	r6, r2, #2
10001f32:	689b      	ldr	r3, [r3, #8]
10001f34:	599c      	ldr	r4, [r3, r6]
10001f36:	4b57      	ldr	r3, [pc, #348]	; (10002094 <irq_remove_handler+0x190>)
10001f38:	4698      	mov	r8, r3
10001f3a:	429c      	cmp	r4, r3
10001f3c:	d005      	beq.n	10001f4a <irq_remove_handler+0x46>
10001f3e:	42ac      	cmp	r4, r5
10001f40:	d04f      	beq.n	10001fe2 <irq_remove_handler+0xde>
10001f42:	4f55      	ldr	r7, [pc, #340]	; (10002098 <irq_remove_handler+0x194>)
10001f44:	1be3      	subs	r3, r4, r7
10001f46:	2b2f      	cmp	r3, #47	; 0x2f
10001f48:	d912      	bls.n	10001f70 <irq_remove_handler+0x6c>
10001f4a:	4b51      	ldr	r3, [pc, #324]	; (10002090 <irq_remove_handler+0x18c>)
10001f4c:	689b      	ldr	r3, [r3, #8]
10001f4e:	519c      	str	r4, [r3, r6]
10001f50:	f3bf 8f5f 	dmb	sy
10001f54:	f3bf 8f5f 	dmb	sy
10001f58:	2200      	movs	r2, #0
10001f5a:	4b4c      	ldr	r3, [pc, #304]	; (1000208c <irq_remove_handler+0x188>)
10001f5c:	601a      	str	r2, [r3, #0]
10001f5e:	f38a 8810 	msr	PRIMASK, sl
10001f62:	b003      	add	sp, #12
10001f64:	bc3c      	pop	{r2, r3, r4, r5}
10001f66:	4690      	mov	r8, r2
10001f68:	4699      	mov	r9, r3
10001f6a:	46a2      	mov	sl, r4
10001f6c:	46ab      	mov	fp, r5
10001f6e:	bdf0      	pop	{r4, r5, r6, r7, pc}
10001f70:	2301      	movs	r3, #1
10001f72:	4083      	lsls	r3, r0
10001f74:	469b      	mov	fp, r3
10001f76:	465a      	mov	r2, fp
10001f78:	4b48      	ldr	r3, [pc, #288]	; (1000209c <irq_remove_handler+0x198>)
10001f7a:	681b      	ldr	r3, [r3, #0]
10001f7c:	401a      	ands	r2, r3
10001f7e:	9200      	str	r2, [sp, #0]
10001f80:	465a      	mov	r2, fp
10001f82:	4b47      	ldr	r3, [pc, #284]	; (100020a0 <irq_remove_handler+0x19c>)
10001f84:	601a      	str	r2, [r3, #0]
10001f86:	f3bf 8f5f 	dmb	sy
10001f8a:	f7fe f96c 	bl	10000266 <__get_current_exception>
10001f8e:	9001      	str	r0, [sp, #4]
10001f90:	2800      	cmp	r0, #0
10001f92:	d003      	beq.n	10001f9c <irq_remove_handler+0x98>
10001f94:	4581      	cmp	r9, r0
10001f96:	d001      	beq.n	10001f9c <irq_remove_handler+0x98>
10001f98:	f7ff fd56 	bl	10001a48 <hard_assertion_failure>
10001f9c:	2301      	movs	r3, #1
10001f9e:	0022      	movs	r2, r4
10001fa0:	2006      	movs	r0, #6
10001fa2:	439a      	bics	r2, r3
10001fa4:	0013      	movs	r3, r2
10001fa6:	1bdb      	subs	r3, r3, r7
10001fa8:	415b      	adcs	r3, r3
10001faa:	4944      	ldr	r1, [pc, #272]	; (100020bc <irq_remove_handler+0x1b8>)
10001fac:	4359      	muls	r1, r3
10001fae:	0d09      	lsrs	r1, r1, #20
10001fb0:	6893      	ldr	r3, [r2, #8]
10001fb2:	468c      	mov	ip, r1
10001fb4:	5610      	ldrsb	r0, [r2, r0]
10001fb6:	429d      	cmp	r5, r3
10001fb8:	d10a      	bne.n	10001fd0 <irq_remove_handler+0xcc>
10001fba:	e051      	b.n	10002060 <irq_remove_handler+0x15c>
10001fbc:	0043      	lsls	r3, r0, #1
10001fbe:	181b      	adds	r3, r3, r0
10001fc0:	2006      	movs	r0, #6
10001fc2:	009b      	lsls	r3, r3, #2
10001fc4:	18fb      	adds	r3, r7, r3
10001fc6:	6899      	ldr	r1, [r3, #8]
10001fc8:	5618      	ldrsb	r0, [r3, r0]
10001fca:	42a9      	cmp	r1, r5
10001fcc:	d011      	beq.n	10001ff2 <irq_remove_handler+0xee>
10001fce:	001a      	movs	r2, r3
10001fd0:	2800      	cmp	r0, #0
10001fd2:	daf3      	bge.n	10001fbc <irq_remove_handler+0xb8>
10001fd4:	9b00      	ldr	r3, [sp, #0]
10001fd6:	2b00      	cmp	r3, #0
10001fd8:	d105      	bne.n	10001fe6 <irq_remove_handler+0xe2>
10001fda:	465a      	mov	r2, fp
10001fdc:	4b30      	ldr	r3, [pc, #192]	; (100020a0 <irq_remove_handler+0x19c>)
10001fde:	601a      	str	r2, [r3, #0]
10001fe0:	e7b3      	b.n	10001f4a <irq_remove_handler+0x46>
10001fe2:	001c      	movs	r4, r3
10001fe4:	e7b1      	b.n	10001f4a <irq_remove_handler+0x46>
10001fe6:	465a      	mov	r2, fp
10001fe8:	4b2e      	ldr	r3, [pc, #184]	; (100020a4 <irq_remove_handler+0x1a0>)
10001fea:	601a      	str	r2, [r3, #0]
10001fec:	4b2b      	ldr	r3, [pc, #172]	; (1000209c <irq_remove_handler+0x198>)
10001fee:	601a      	str	r2, [r3, #0]
10001ff0:	e7ab      	b.n	10001f4a <irq_remove_handler+0x46>
10001ff2:	2800      	cmp	r0, #0
10001ff4:	db25      	blt.n	10002042 <irq_remove_handler+0x13e>
10001ff6:	0042      	lsls	r2, r0, #1
10001ff8:	1811      	adds	r1, r2, r0
10001ffa:	0089      	lsls	r1, r1, #2
10001ffc:	187d      	adds	r5, r7, r1
10001ffe:	4688      	mov	r8, r1
10002000:	68a9      	ldr	r1, [r5, #8]
10002002:	6099      	str	r1, [r3, #8]
10002004:	79e9      	ldrb	r1, [r5, #7]
10002006:	71d9      	strb	r1, [r3, #7]
10002008:	2106      	movs	r1, #6
1000200a:	5669      	ldrsb	r1, [r5, r1]
1000200c:	7199      	strb	r1, [r3, #6]
1000200e:	79a9      	ldrb	r1, [r5, #6]
10002010:	297f      	cmp	r1, #127	; 0x7f
10002012:	d813      	bhi.n	1000203c <irq_remove_handler+0x138>
10002014:	88ad      	ldrh	r5, [r5, #4]
10002016:	1af9      	subs	r1, r7, r3
10002018:	056d      	lsls	r5, r5, #21
1000201a:	152d      	asrs	r5, r5, #20
1000201c:	4445      	add	r5, r8
1000201e:	1949      	adds	r1, r1, r5
10002020:	25e0      	movs	r5, #224	; 0xe0
10002022:	0509      	lsls	r1, r1, #20
10002024:	0d49      	lsrs	r1, r1, #21
10002026:	022d      	lsls	r5, r5, #8
10002028:	4329      	orrs	r1, r5
1000202a:	8099      	strh	r1, [r3, #4]
1000202c:	1812      	adds	r2, r2, r0
1000202e:	4b1e      	ldr	r3, [pc, #120]	; (100020a8 <irq_remove_handler+0x1a4>)
10002030:	0092      	lsls	r2, r2, #2
10002032:	18bf      	adds	r7, r7, r2
10002034:	781a      	ldrb	r2, [r3, #0]
10002036:	7018      	strb	r0, [r3, #0]
10002038:	71ba      	strb	r2, [r7, #6]
1000203a:	e7cb      	b.n	10001fd4 <irq_remove_handler+0xd0>
1000203c:	21bd      	movs	r1, #189	; 0xbd
1000203e:	0209      	lsls	r1, r1, #8
10002040:	e7f3      	b.n	1000202a <irq_remove_handler+0x126>
10002042:	9901      	ldr	r1, [sp, #4]
10002044:	2900      	cmp	r1, #0
10002046:	d113      	bne.n	10002070 <irq_remove_handler+0x16c>
10002048:	2a00      	cmp	r2, #0
1000204a:	d00f      	beq.n	1000206c <irq_remove_handler+0x168>
1000204c:	20ff      	movs	r0, #255	; 0xff
1000204e:	7190      	strb	r0, [r2, #6]
10002050:	4816      	ldr	r0, [pc, #88]	; (100020ac <irq_remove_handler+0x1a8>)
10002052:	8090      	strh	r0, [r2, #4]
10002054:	4a14      	ldr	r2, [pc, #80]	; (100020a8 <irq_remove_handler+0x1a4>)
10002056:	7810      	ldrb	r0, [r2, #0]
10002058:	7198      	strb	r0, [r3, #6]
1000205a:	4663      	mov	r3, ip
1000205c:	7013      	strb	r3, [r2, #0]
1000205e:	e7b9      	b.n	10001fd4 <irq_remove_handler+0xd0>
10002060:	0013      	movs	r3, r2
10002062:	2800      	cmp	r0, #0
10002064:	dac7      	bge.n	10001ff6 <irq_remove_handler+0xf2>
10002066:	9a01      	ldr	r2, [sp, #4]
10002068:	2a00      	cmp	r2, #0
1000206a:	d101      	bne.n	10002070 <irq_remove_handler+0x16c>
1000206c:	4644      	mov	r4, r8
1000206e:	e7f1      	b.n	10002054 <irq_remove_handler+0x150>
10002070:	4a0f      	ldr	r2, [pc, #60]	; (100020b0 <irq_remove_handler+0x1ac>)
10002072:	4910      	ldr	r1, [pc, #64]	; (100020b4 <irq_remove_handler+0x1b0>)
10002074:	1ad2      	subs	r2, r2, r3
10002076:	3a08      	subs	r2, #8
10002078:	0250      	lsls	r0, r2, #9
1000207a:	0d40      	lsrs	r0, r0, #21
1000207c:	4301      	orrs	r1, r0
1000207e:	8099      	strh	r1, [r3, #4]
10002080:	490d      	ldr	r1, [pc, #52]	; (100020b8 <irq_remove_handler+0x1b4>)
10002082:	0852      	lsrs	r2, r2, #1
10002084:	430a      	orrs	r2, r1
10002086:	80da      	strh	r2, [r3, #6]
10002088:	e7a4      	b.n	10001fd4 <irq_remove_handler+0xd0>
1000208a:	46c0      	nop			; (mov r8, r8)
1000208c:	d0000124 	.word	0xd0000124
10002090:	e000ed00 	.word	0xe000ed00
10002094:	100001cd 	.word	0x100001cd
10002098:	20000278 	.word	0x20000278
1000209c:	e000e100 	.word	0xe000e100
100020a0:	e000e180 	.word	0xe000e180
100020a4:	e000e280 	.word	0xe000e280
100020a8:	20000fa8 	.word	0x20000fa8
100020ac:	ffffbd00 	.word	0xffffbd00
100020b0:	200002b2 	.word	0x200002b2
100020b4:	fffff000 	.word	0xfffff000
100020b8:	fffff800 	.word	0xfffff800
100020bc:	0000aaaa 	.word	0x0000aaaa

100020c0 <irq_add_tail_to_free_list>:
100020c0:	b5f8      	push	{r3, r4, r5, r6, r7, lr}
100020c2:	2501      	movs	r5, #1
100020c4:	0004      	movs	r4, r0
100020c6:	4305      	orrs	r5, r0
100020c8:	f7fe f8cd 	bl	10000266 <__get_current_exception>
100020cc:	f3ef 8610 	mrs	r6, PRIMASK
100020d0:	b672      	cpsid	i
100020d2:	4a21      	ldr	r2, [pc, #132]	; (10002158 <irq_add_tail_to_free_list+0x98>)
100020d4:	6813      	ldr	r3, [r2, #0]
100020d6:	2b00      	cmp	r3, #0
100020d8:	d0fc      	beq.n	100020d4 <irq_add_tail_to_free_list+0x14>
100020da:	f3bf 8f5f 	dmb	sy
100020de:	4a1f      	ldr	r2, [pc, #124]	; (1000215c <irq_add_tail_to_free_list+0x9c>)
100020e0:	0021      	movs	r1, r4
100020e2:	1a89      	subs	r1, r1, r2
100020e4:	4149      	adcs	r1, r1
100020e6:	4b22      	ldr	r3, [pc, #136]	; (10002170 <irq_add_tail_to_free_list+0xb0>)
100020e8:	434b      	muls	r3, r1
100020ea:	0d1b      	lsrs	r3, r3, #20
100020ec:	491c      	ldr	r1, [pc, #112]	; (10002160 <irq_add_tail_to_free_list+0xa0>)
100020ee:	0080      	lsls	r0, r0, #2
100020f0:	688f      	ldr	r7, [r1, #8]
100020f2:	b25b      	sxtb	r3, r3
100020f4:	583f      	ldr	r7, [r7, r0]
100020f6:	42af      	cmp	r7, r5
100020f8:	d01c      	beq.n	10002134 <irq_add_tail_to_free_list+0x74>
100020fa:	2106      	movs	r1, #6
100020fc:	5651      	ldrsb	r1, [r2, r1]
100020fe:	4299      	cmp	r1, r3
10002100:	d026      	beq.n	10002150 <irq_add_tail_to_free_list+0x90>
10002102:	2112      	movs	r1, #18
10002104:	5651      	ldrsb	r1, [r2, r1]
10002106:	4299      	cmp	r1, r3
10002108:	d024      	beq.n	10002154 <irq_add_tail_to_free_list+0x94>
1000210a:	211e      	movs	r1, #30
1000210c:	5651      	ldrsb	r1, [r2, r1]
1000210e:	4299      	cmp	r1, r3
10002110:	d014      	beq.n	1000213c <irq_add_tail_to_free_list+0x7c>
10002112:	212a      	movs	r1, #42	; 0x2a
10002114:	5651      	ldrsb	r1, [r2, r1]
10002116:	2003      	movs	r0, #3
10002118:	4299      	cmp	r1, r3
1000211a:	d010      	beq.n	1000213e <irq_add_tail_to_free_list+0x7e>
1000211c:	4a11      	ldr	r2, [pc, #68]	; (10002164 <irq_add_tail_to_free_list+0xa4>)
1000211e:	7811      	ldrb	r1, [r2, #0]
10002120:	7013      	strb	r3, [r2, #0]
10002122:	71a1      	strb	r1, [r4, #6]
10002124:	f3bf 8f5f 	dmb	sy
10002128:	2200      	movs	r2, #0
1000212a:	4b0b      	ldr	r3, [pc, #44]	; (10002158 <irq_add_tail_to_free_list+0x98>)
1000212c:	601a      	str	r2, [r3, #0]
1000212e:	f386 8810 	msr	PRIMASK, r6
10002132:	bdf8      	pop	{r3, r4, r5, r6, r7, pc}
10002134:	688a      	ldr	r2, [r1, #8]
10002136:	490c      	ldr	r1, [pc, #48]	; (10002168 <irq_add_tail_to_free_list+0xa8>)
10002138:	5011      	str	r1, [r2, r0]
1000213a:	e7ef      	b.n	1000211c <irq_add_tail_to_free_list+0x5c>
1000213c:	2002      	movs	r0, #2
1000213e:	0041      	lsls	r1, r0, #1
10002140:	1809      	adds	r1, r1, r0
10002142:	0089      	lsls	r1, r1, #2
10002144:	1852      	adds	r2, r2, r1
10002146:	21ff      	movs	r1, #255	; 0xff
10002148:	7191      	strb	r1, [r2, #6]
1000214a:	4908      	ldr	r1, [pc, #32]	; (1000216c <irq_add_tail_to_free_list+0xac>)
1000214c:	8091      	strh	r1, [r2, #4]
1000214e:	e7e5      	b.n	1000211c <irq_add_tail_to_free_list+0x5c>
10002150:	2000      	movs	r0, #0
10002152:	e7f4      	b.n	1000213e <irq_add_tail_to_free_list+0x7e>
10002154:	2001      	movs	r0, #1
10002156:	e7f2      	b.n	1000213e <irq_add_tail_to_free_list+0x7e>
10002158:	d0000124 	.word	0xd0000124
1000215c:	20000278 	.word	0x20000278
10002160:	e000ed00 	.word	0xe000ed00
10002164:	20000fa8 	.word	0x20000fa8
10002168:	100001cd 	.word	0x100001cd
1000216c:	ffffbd00 	.word	0xffffbd00
10002170:	0000aaaa 	.word	0x0000aaaa

10002174 <irq_init_priorities>:
10002174:	b5f0      	push	{r4, r5, r6, r7, lr}
10002176:	2200      	movs	r2, #0
10002178:	2403      	movs	r4, #3
1000217a:	27ff      	movs	r7, #255	; 0xff
1000217c:	2680      	movs	r6, #128	; 0x80
1000217e:	0020      	movs	r0, r4
10002180:	003d      	movs	r5, r7
10002182:	4b09      	ldr	r3, [pc, #36]	; (100021a8 <irq_init_priorities+0x34>)
10002184:	0011      	movs	r1, r2
10002186:	469c      	mov	ip, r3
10002188:	4010      	ands	r0, r2
1000218a:	00c0      	lsls	r0, r0, #3
1000218c:	4085      	lsls	r5, r0
1000218e:	43a1      	bics	r1, r4
10002190:	4461      	add	r1, ip
10002192:	680b      	ldr	r3, [r1, #0]
10002194:	3201      	adds	r2, #1
10002196:	43ab      	bics	r3, r5
10002198:	0035      	movs	r5, r6
1000219a:	4085      	lsls	r5, r0
1000219c:	432b      	orrs	r3, r5
1000219e:	600b      	str	r3, [r1, #0]
100021a0:	2a20      	cmp	r2, #32
100021a2:	d1ec      	bne.n	1000217e <irq_init_priorities+0xa>
100021a4:	bdf0      	pop	{r4, r5, r6, r7, pc}
100021a6:	46c0      	nop			; (mov r8, r8)
100021a8:	e000e400 	.word	0xe000e400

100021ac <_out_null>:
100021ac:	4770      	bx	lr
100021ae:	46c0      	nop			; (mov r8, r8)

100021b0 <_out_fct>:
100021b0:	b510      	push	{r4, lr}
100021b2:	2800      	cmp	r0, #0
100021b4:	d003      	beq.n	100021be <_out_fct+0xe>
100021b6:	684a      	ldr	r2, [r1, #4]
100021b8:	680b      	ldr	r3, [r1, #0]
100021ba:	0011      	movs	r1, r2
100021bc:	4798      	blx	r3
100021be:	bd10      	pop	{r4, pc}

100021c0 <_out_char>:
100021c0:	b510      	push	{r4, lr}
100021c2:	2800      	cmp	r0, #0
100021c4:	d001      	beq.n	100021ca <_out_char+0xa>
100021c6:	f003 faa3 	bl	10005710 <__wrap_putchar>
100021ca:	bd10      	pop	{r4, pc}

100021cc <_ntoa_format>:
100021cc:	b5f0      	push	{r4, r5, r6, r7, lr}
100021ce:	4657      	mov	r7, sl
100021d0:	4645      	mov	r5, r8
100021d2:	46de      	mov	lr, fp
100021d4:	464e      	mov	r6, r9
100021d6:	b5e0      	push	{r5, r6, r7, lr}
100021d8:	b085      	sub	sp, #20
100021da:	4698      	mov	r8, r3
100021dc:	ab10      	add	r3, sp, #64	; 0x40
100021de:	781d      	ldrb	r5, [r3, #0]
100021e0:	9b13      	ldr	r3, [sp, #76]	; 0x4c
100021e2:	4693      	mov	fp, r2
100021e4:	469a      	mov	sl, r3
100021e6:	2302      	movs	r3, #2
100021e8:	9a14      	ldr	r2, [sp, #80]	; 0x50
100021ea:	000f      	movs	r7, r1
100021ec:	4013      	ands	r3, r2
100021ee:	0006      	movs	r6, r0
100021f0:	9c0f      	ldr	r4, [sp, #60]	; 0x3c
100021f2:	9912      	ldr	r1, [sp, #72]	; 0x48
100021f4:	9301      	str	r3, [sp, #4]
100021f6:	2b00      	cmp	r3, #0
100021f8:	d12d      	bne.n	10002256 <_ntoa_format+0x8a>
100021fa:	3301      	adds	r3, #1
100021fc:	4013      	ands	r3, r2
100021fe:	469c      	mov	ip, r3
10002200:	4653      	mov	r3, sl
10002202:	2b00      	cmp	r3, #0
10002204:	d166      	bne.n	100022d4 <_ntoa_format+0x108>
10002206:	428c      	cmp	r4, r1
10002208:	d20d      	bcs.n	10002226 <_ntoa_format+0x5a>
1000220a:	2c1f      	cmp	r4, #31
1000220c:	d900      	bls.n	10002210 <_ntoa_format+0x44>
1000220e:	e112      	b.n	10002436 <_ntoa_format+0x26a>
10002210:	9b0e      	ldr	r3, [sp, #56]	; 0x38
10002212:	2030      	movs	r0, #48	; 0x30
10002214:	191b      	adds	r3, r3, r4
10002216:	e002      	b.n	1000221e <_ntoa_format+0x52>
10002218:	3301      	adds	r3, #1
1000221a:	2c20      	cmp	r4, #32
1000221c:	d003      	beq.n	10002226 <_ntoa_format+0x5a>
1000221e:	3401      	adds	r4, #1
10002220:	7018      	strb	r0, [r3, #0]
10002222:	42a1      	cmp	r1, r4
10002224:	d8f8      	bhi.n	10002218 <_ntoa_format+0x4c>
10002226:	4663      	mov	r3, ip
10002228:	2b00      	cmp	r3, #0
1000222a:	d014      	beq.n	10002256 <_ntoa_format+0x8a>
1000222c:	45a2      	cmp	sl, r4
1000222e:	d912      	bls.n	10002256 <_ntoa_format+0x8a>
10002230:	9b0e      	ldr	r3, [sp, #56]	; 0x38
10002232:	2030      	movs	r0, #48	; 0x30
10002234:	191b      	adds	r3, r3, r4
10002236:	2c1f      	cmp	r4, #31
10002238:	d821      	bhi.n	1000227e <_ntoa_format+0xb2>
1000223a:	46ac      	mov	ip, r5
1000223c:	0015      	movs	r5, r2
1000223e:	4652      	mov	r2, sl
10002240:	e002      	b.n	10002248 <_ntoa_format+0x7c>
10002242:	3301      	adds	r3, #1
10002244:	2c20      	cmp	r4, #32
10002246:	d017      	beq.n	10002278 <_ntoa_format+0xac>
10002248:	3401      	adds	r4, #1
1000224a:	7018      	strb	r0, [r3, #0]
1000224c:	4294      	cmp	r4, r2
1000224e:	d1f8      	bne.n	10002242 <_ntoa_format+0x76>
10002250:	4692      	mov	sl, r2
10002252:	002a      	movs	r2, r5
10002254:	4665      	mov	r5, ip
10002256:	06d3      	lsls	r3, r2, #27
10002258:	d52e      	bpl.n	100022b8 <_ntoa_format+0xec>
1000225a:	0553      	lsls	r3, r2, #21
1000225c:	d419      	bmi.n	10002292 <_ntoa_format+0xc6>
1000225e:	2c00      	cmp	r4, #0
10002260:	d111      	bne.n	10002286 <_ntoa_format+0xba>
10002262:	9b11      	ldr	r3, [sp, #68]	; 0x44
10002264:	2b10      	cmp	r3, #16
10002266:	d100      	bne.n	1000226a <_ntoa_format+0x9e>
10002268:	e0d9      	b.n	1000241e <_ntoa_format+0x252>
1000226a:	2b02      	cmp	r3, #2
1000226c:	d11f      	bne.n	100022ae <_ntoa_format+0xe2>
1000226e:	990e      	ldr	r1, [sp, #56]	; 0x38
10002270:	3360      	adds	r3, #96	; 0x60
10002272:	700b      	strb	r3, [r1, #0]
10002274:	2401      	movs	r4, #1
10002276:	e01a      	b.n	100022ae <_ntoa_format+0xe2>
10002278:	4692      	mov	sl, r2
1000227a:	002a      	movs	r2, r5
1000227c:	4665      	mov	r5, ip
1000227e:	06d3      	lsls	r3, r2, #27
10002280:	d53e      	bpl.n	10002300 <_ntoa_format+0x134>
10002282:	0553      	lsls	r3, r2, #21
10002284:	d405      	bmi.n	10002292 <_ntoa_format+0xc6>
10002286:	42a1      	cmp	r1, r4
10002288:	d100      	bne.n	1000228c <_ntoa_format+0xc0>
1000228a:	e09f      	b.n	100023cc <_ntoa_format+0x200>
1000228c:	4554      	cmp	r4, sl
1000228e:	d100      	bne.n	10002292 <_ntoa_format+0xc6>
10002290:	e09c      	b.n	100023cc <_ntoa_format+0x200>
10002292:	9b11      	ldr	r3, [sp, #68]	; 0x44
10002294:	2b10      	cmp	r3, #16
10002296:	d065      	beq.n	10002364 <_ntoa_format+0x198>
10002298:	2b02      	cmp	r3, #2
1000229a:	d106      	bne.n	100022aa <_ntoa_format+0xde>
1000229c:	2c1f      	cmp	r4, #31
1000229e:	d865      	bhi.n	1000236c <_ntoa_format+0x1a0>
100022a0:	2162      	movs	r1, #98	; 0x62
100022a2:	9b0e      	ldr	r3, [sp, #56]	; 0x38
100022a4:	191b      	adds	r3, r3, r4
100022a6:	7019      	strb	r1, [r3, #0]
100022a8:	3401      	adds	r4, #1
100022aa:	2c1f      	cmp	r4, #31
100022ac:	d85e      	bhi.n	1000236c <_ntoa_format+0x1a0>
100022ae:	2130      	movs	r1, #48	; 0x30
100022b0:	9b0e      	ldr	r3, [sp, #56]	; 0x38
100022b2:	191b      	adds	r3, r3, r4
100022b4:	7019      	strb	r1, [r3, #0]
100022b6:	3401      	adds	r4, #1
100022b8:	2c1f      	cmp	r4, #31
100022ba:	d857      	bhi.n	1000236c <_ntoa_format+0x1a0>
100022bc:	2d00      	cmp	r5, #0
100022be:	d11b      	bne.n	100022f8 <_ntoa_format+0x12c>
100022c0:	0753      	lsls	r3, r2, #29
100022c2:	d500      	bpl.n	100022c6 <_ntoa_format+0xfa>
100022c4:	e070      	b.n	100023a8 <_ntoa_format+0x1dc>
100022c6:	0713      	lsls	r3, r2, #28
100022c8:	d550      	bpl.n	1000236c <_ntoa_format+0x1a0>
100022ca:	2320      	movs	r3, #32
100022cc:	990e      	ldr	r1, [sp, #56]	; 0x38
100022ce:	550b      	strb	r3, [r1, r4]
100022d0:	3401      	adds	r4, #1
100022d2:	e015      	b.n	10002300 <_ntoa_format+0x134>
100022d4:	4663      	mov	r3, ip
100022d6:	2b00      	cmp	r3, #0
100022d8:	d06b      	beq.n	100023b2 <_ntoa_format+0x1e6>
100022da:	2d00      	cmp	r5, #0
100022dc:	d000      	beq.n	100022e0 <_ntoa_format+0x114>
100022de:	e070      	b.n	100023c2 <_ntoa_format+0x1f6>
100022e0:	230c      	movs	r3, #12
100022e2:	4213      	tst	r3, r2
100022e4:	d16d      	bne.n	100023c2 <_ntoa_format+0x1f6>
100022e6:	428c      	cmp	r4, r1
100022e8:	d2a0      	bcs.n	1000222c <_ntoa_format+0x60>
100022ea:	2c1f      	cmp	r4, #31
100022ec:	d990      	bls.n	10002210 <_ntoa_format+0x44>
100022ee:	4653      	mov	r3, sl
100022f0:	2420      	movs	r4, #32
100022f2:	2b20      	cmp	r3, #32
100022f4:	d8c3      	bhi.n	1000227e <_ntoa_format+0xb2>
100022f6:	e7ae      	b.n	10002256 <_ntoa_format+0x8a>
100022f8:	232d      	movs	r3, #45	; 0x2d
100022fa:	990e      	ldr	r1, [sp, #56]	; 0x38
100022fc:	550b      	strb	r3, [r1, r4]
100022fe:	3401      	adds	r4, #1
10002300:	0793      	lsls	r3, r2, #30
10002302:	d036      	beq.n	10002372 <_ntoa_format+0x1a6>
10002304:	465b      	mov	r3, fp
10002306:	9303      	str	r3, [sp, #12]
10002308:	001a      	movs	r2, r3
1000230a:	9b0e      	ldr	r3, [sp, #56]	; 0x38
1000230c:	9402      	str	r4, [sp, #8]
1000230e:	4699      	mov	r9, r3
10002310:	464b      	mov	r3, r9
10002312:	3c01      	subs	r4, #1
10002314:	1c55      	adds	r5, r2, #1
10002316:	5d18      	ldrb	r0, [r3, r4]
10002318:	0039      	movs	r1, r7
1000231a:	4643      	mov	r3, r8
1000231c:	47b0      	blx	r6
1000231e:	002a      	movs	r2, r5
10002320:	2c00      	cmp	r4, #0
10002322:	d1f5      	bne.n	10002310 <_ntoa_format+0x144>
10002324:	9a03      	ldr	r2, [sp, #12]
10002326:	9b02      	ldr	r3, [sp, #8]
10002328:	4694      	mov	ip, r2
1000232a:	4463      	add	r3, ip
1000232c:	001d      	movs	r5, r3
1000232e:	9b01      	ldr	r3, [sp, #4]
10002330:	2b00      	cmp	r3, #0
10002332:	d00f      	beq.n	10002354 <_ntoa_format+0x188>
10002334:	465b      	mov	r3, fp
10002336:	1aeb      	subs	r3, r5, r3
10002338:	4553      	cmp	r3, sl
1000233a:	d20b      	bcs.n	10002354 <_ntoa_format+0x188>
1000233c:	002a      	movs	r2, r5
1000233e:	465d      	mov	r5, fp
10002340:	1c54      	adds	r4, r2, #1
10002342:	4643      	mov	r3, r8
10002344:	0039      	movs	r1, r7
10002346:	2020      	movs	r0, #32
10002348:	47b0      	blx	r6
1000234a:	0022      	movs	r2, r4
1000234c:	1b63      	subs	r3, r4, r5
1000234e:	4553      	cmp	r3, sl
10002350:	d3f6      	bcc.n	10002340 <_ntoa_format+0x174>
10002352:	0025      	movs	r5, r4
10002354:	0028      	movs	r0, r5
10002356:	b005      	add	sp, #20
10002358:	bc3c      	pop	{r2, r3, r4, r5}
1000235a:	4690      	mov	r8, r2
1000235c:	4699      	mov	r9, r3
1000235e:	46a2      	mov	sl, r4
10002360:	46ab      	mov	fp, r5
10002362:	bdf0      	pop	{r4, r5, r6, r7, pc}
10002364:	0693      	lsls	r3, r2, #26
10002366:	d541      	bpl.n	100023ec <_ntoa_format+0x220>
10002368:	2c1f      	cmp	r4, #31
1000236a:	d952      	bls.n	10002412 <_ntoa_format+0x246>
1000236c:	465d      	mov	r5, fp
1000236e:	0793      	lsls	r3, r2, #30
10002370:	d112      	bne.n	10002398 <_ntoa_format+0x1cc>
10002372:	4554      	cmp	r4, sl
10002374:	d238      	bcs.n	100023e8 <_ntoa_format+0x21c>
10002376:	465b      	mov	r3, fp
10002378:	4453      	add	r3, sl
1000237a:	1b1b      	subs	r3, r3, r4
1000237c:	940f      	str	r4, [sp, #60]	; 0x3c
1000237e:	001c      	movs	r4, r3
10002380:	9b0f      	ldr	r3, [sp, #60]	; 0x3c
10002382:	465a      	mov	r2, fp
10002384:	4699      	mov	r9, r3
10002386:	1c55      	adds	r5, r2, #1
10002388:	4643      	mov	r3, r8
1000238a:	0039      	movs	r1, r7
1000238c:	2020      	movs	r0, #32
1000238e:	47b0      	blx	r6
10002390:	002a      	movs	r2, r5
10002392:	42a5      	cmp	r5, r4
10002394:	d1f7      	bne.n	10002386 <_ntoa_format+0x1ba>
10002396:	464c      	mov	r4, r9
10002398:	2c00      	cmp	r4, #0
1000239a:	d0c8      	beq.n	1000232e <_ntoa_format+0x162>
1000239c:	9b0e      	ldr	r3, [sp, #56]	; 0x38
1000239e:	9503      	str	r5, [sp, #12]
100023a0:	9402      	str	r4, [sp, #8]
100023a2:	002a      	movs	r2, r5
100023a4:	4699      	mov	r9, r3
100023a6:	e7b3      	b.n	10002310 <_ntoa_format+0x144>
100023a8:	232b      	movs	r3, #43	; 0x2b
100023aa:	990e      	ldr	r1, [sp, #56]	; 0x38
100023ac:	550b      	strb	r3, [r1, r4]
100023ae:	3401      	adds	r4, #1
100023b0:	e7a6      	b.n	10002300 <_ntoa_format+0x134>
100023b2:	428c      	cmp	r4, r1
100023b4:	d300      	bcc.n	100023b8 <_ntoa_format+0x1ec>
100023b6:	e74e      	b.n	10002256 <_ntoa_format+0x8a>
100023b8:	2c1f      	cmp	r4, #31
100023ba:	d800      	bhi.n	100023be <_ntoa_format+0x1f2>
100023bc:	e728      	b.n	10002210 <_ntoa_format+0x44>
100023be:	2420      	movs	r4, #32
100023c0:	e749      	b.n	10002256 <_ntoa_format+0x8a>
100023c2:	2301      	movs	r3, #1
100023c4:	425b      	negs	r3, r3
100023c6:	4699      	mov	r9, r3
100023c8:	44ca      	add	sl, r9
100023ca:	e78c      	b.n	100022e6 <_ntoa_format+0x11a>
100023cc:	1e63      	subs	r3, r4, #1
100023ce:	2b00      	cmp	r3, #0
100023d0:	d115      	bne.n	100023fe <_ntoa_format+0x232>
100023d2:	9b11      	ldr	r3, [sp, #68]	; 0x44
100023d4:	2b10      	cmp	r3, #16
100023d6:	d019      	beq.n	1000240c <_ntoa_format+0x240>
100023d8:	2b02      	cmp	r3, #2
100023da:	d100      	bne.n	100023de <_ntoa_format+0x212>
100023dc:	e747      	b.n	1000226e <_ntoa_format+0xa2>
100023de:	2330      	movs	r3, #48	; 0x30
100023e0:	990e      	ldr	r1, [sp, #56]	; 0x38
100023e2:	2401      	movs	r4, #1
100023e4:	700b      	strb	r3, [r1, #0]
100023e6:	e769      	b.n	100022bc <_ntoa_format+0xf0>
100023e8:	465d      	mov	r5, fp
100023ea:	e7d5      	b.n	10002398 <_ntoa_format+0x1cc>
100023ec:	2c1f      	cmp	r4, #31
100023ee:	d900      	bls.n	100023f2 <_ntoa_format+0x226>
100023f0:	e786      	b.n	10002300 <_ntoa_format+0x134>
100023f2:	2178      	movs	r1, #120	; 0x78
100023f4:	9b0e      	ldr	r3, [sp, #56]	; 0x38
100023f6:	191b      	adds	r3, r3, r4
100023f8:	7019      	strb	r1, [r3, #0]
100023fa:	3401      	adds	r4, #1
100023fc:	e755      	b.n	100022aa <_ntoa_format+0xde>
100023fe:	9911      	ldr	r1, [sp, #68]	; 0x44
10002400:	3c02      	subs	r4, #2
10002402:	2910      	cmp	r1, #16
10002404:	d0ae      	beq.n	10002364 <_ntoa_format+0x198>
10002406:	001c      	movs	r4, r3
10002408:	000b      	movs	r3, r1
1000240a:	e745      	b.n	10002298 <_ntoa_format+0xcc>
1000240c:	0693      	lsls	r3, r2, #26
1000240e:	d50d      	bpl.n	1000242c <_ntoa_format+0x260>
10002410:	2400      	movs	r4, #0
10002412:	2158      	movs	r1, #88	; 0x58
10002414:	9b0e      	ldr	r3, [sp, #56]	; 0x38
10002416:	191b      	adds	r3, r3, r4
10002418:	7019      	strb	r1, [r3, #0]
1000241a:	3401      	adds	r4, #1
1000241c:	e745      	b.n	100022aa <_ntoa_format+0xde>
1000241e:	0693      	lsls	r3, r2, #26
10002420:	d504      	bpl.n	1000242c <_ntoa_format+0x260>
10002422:	2358      	movs	r3, #88	; 0x58
10002424:	990e      	ldr	r1, [sp, #56]	; 0x38
10002426:	2401      	movs	r4, #1
10002428:	700b      	strb	r3, [r1, #0]
1000242a:	e740      	b.n	100022ae <_ntoa_format+0xe2>
1000242c:	2378      	movs	r3, #120	; 0x78
1000242e:	990e      	ldr	r1, [sp, #56]	; 0x38
10002430:	2401      	movs	r4, #1
10002432:	700b      	strb	r3, [r1, #0]
10002434:	e73b      	b.n	100022ae <_ntoa_format+0xe2>
10002436:	2420      	movs	r4, #32
10002438:	e6f5      	b.n	10002226 <_ntoa_format+0x5a>
1000243a:	46c0      	nop			; (mov r8, r8)

1000243c <_etoa.part.0>:
1000243c:	b5f0      	push	{r4, r5, r6, r7, lr}
1000243e:	4645      	mov	r5, r8
10002440:	46de      	mov	lr, fp
10002442:	4657      	mov	r7, sl
10002444:	464e      	mov	r6, r9
10002446:	b5e0      	push	{r5, r6, r7, lr}
10002448:	b09b      	sub	sp, #108	; 0x6c
1000244a:	4698      	mov	r8, r3
1000244c:	9b25      	ldr	r3, [sp, #148]	; 0x94
1000244e:	9c24      	ldr	r4, [sp, #144]	; 0x90
10002450:	001d      	movs	r5, r3
10002452:	9008      	str	r0, [sp, #32]
10002454:	9109      	str	r1, [sp, #36]	; 0x24
10002456:	920a      	str	r2, [sp, #40]	; 0x28
10002458:	930c      	str	r3, [sp, #48]	; 0x30
1000245a:	2200      	movs	r2, #0
1000245c:	2300      	movs	r3, #0
1000245e:	0020      	movs	r0, r4
10002460:	0029      	movs	r1, r5
10002462:	940b      	str	r4, [sp, #44]	; 0x2c
10002464:	f002 fcde 	bl	10004e24 <__wrap___aeabi_dcmplt>
10002468:	2800      	cmp	r0, #0
1000246a:	d000      	beq.n	1000246e <_etoa.part.0+0x32>
1000246c:	e1a7      	b.n	100027be <_etoa.part.0+0x382>
1000246e:	9a0b      	ldr	r2, [sp, #44]	; 0x2c
10002470:	9b0c      	ldr	r3, [sp, #48]	; 0x30
10002472:	4692      	mov	sl, r2
10002474:	469b      	mov	fp, r3
10002476:	2380      	movs	r3, #128	; 0x80
10002478:	9a28      	ldr	r2, [sp, #160]	; 0xa0
1000247a:	00db      	lsls	r3, r3, #3
1000247c:	401a      	ands	r2, r3
1000247e:	920e      	str	r2, [sp, #56]	; 0x38
10002480:	d101      	bne.n	10002486 <_etoa.part.0+0x4a>
10002482:	2306      	movs	r3, #6
10002484:	9326      	str	r3, [sp, #152]	; 0x98
10002486:	2380      	movs	r3, #128	; 0x80
10002488:	9a28      	ldr	r2, [sp, #160]	; 0xa0
1000248a:	011b      	lsls	r3, r3, #4
1000248c:	401a      	ands	r2, r3
1000248e:	4656      	mov	r6, sl
10002490:	465b      	mov	r3, fp
10002492:	920d      	str	r2, [sp, #52]	; 0x34
10002494:	4333      	orrs	r3, r6
10002496:	d100      	bne.n	1000249a <_etoa.part.0+0x5e>
10002498:	e161      	b.n	1000275e <_etoa.part.0+0x322>
1000249a:	465b      	mov	r3, fp
1000249c:	0058      	lsls	r0, r3, #1
1000249e:	4bcc      	ldr	r3, [pc, #816]	; (100027d0 <_etoa.part.0+0x394>)
100024a0:	0d40      	lsrs	r0, r0, #21
100024a2:	469c      	mov	ip, r3
100024a4:	4460      	add	r0, ip
100024a6:	f002 fce3 	bl	10004e70 <__wrap___aeabi_i2d>
100024aa:	4aca      	ldr	r2, [pc, #808]	; (100027d4 <_etoa.part.0+0x398>)
100024ac:	4bca      	ldr	r3, [pc, #808]	; (100027d8 <_etoa.part.0+0x39c>)
100024ae:	f002 fc77 	bl	10004da0 <__wrap___aeabi_dmul>
100024b2:	4aca      	ldr	r2, [pc, #808]	; (100027dc <_etoa.part.0+0x3a0>)
100024b4:	4bca      	ldr	r3, [pc, #808]	; (100027e0 <_etoa.part.0+0x3a4>)
100024b6:	f002 fc61 	bl	10004d7c <__wrap___aeabi_dadd>
100024ba:	465b      	mov	r3, fp
100024bc:	4ac9      	ldr	r2, [pc, #804]	; (100027e4 <_etoa.part.0+0x3a8>)
100024be:	031b      	lsls	r3, r3, #12
100024c0:	0b1b      	lsrs	r3, r3, #12
100024c2:	431a      	orrs	r2, r3
100024c4:	0004      	movs	r4, r0
100024c6:	000d      	movs	r5, r1
100024c8:	4bc7      	ldr	r3, [pc, #796]	; (100027e8 <_etoa.part.0+0x3ac>)
100024ca:	0011      	movs	r1, r2
100024cc:	4650      	mov	r0, sl
100024ce:	2200      	movs	r2, #0
100024d0:	f002 fc4b 	bl	10004d6a <__wrap___aeabi_dsub>
100024d4:	4ac5      	ldr	r2, [pc, #788]	; (100027ec <_etoa.part.0+0x3b0>)
100024d6:	4bc6      	ldr	r3, [pc, #792]	; (100027f0 <_etoa.part.0+0x3b4>)
100024d8:	f002 fc62 	bl	10004da0 <__wrap___aeabi_dmul>
100024dc:	0002      	movs	r2, r0
100024de:	000b      	movs	r3, r1
100024e0:	0020      	movs	r0, r4
100024e2:	0029      	movs	r1, r5
100024e4:	f002 fc4a 	bl	10004d7c <__wrap___aeabi_dadd>
100024e8:	f002 fcda 	bl	10004ea0 <__wrap___aeabi_d2iz>
100024ec:	4681      	mov	r9, r0
100024ee:	f002 fcbf 	bl	10004e70 <__wrap___aeabi_i2d>
100024f2:	4ac0      	ldr	r2, [pc, #768]	; (100027f4 <_etoa.part.0+0x3b8>)
100024f4:	4bc0      	ldr	r3, [pc, #768]	; (100027f8 <_etoa.part.0+0x3bc>)
100024f6:	0004      	movs	r4, r0
100024f8:	000d      	movs	r5, r1
100024fa:	f002 fc51 	bl	10004da0 <__wrap___aeabi_dmul>
100024fe:	2200      	movs	r2, #0
10002500:	4bbe      	ldr	r3, [pc, #760]	; (100027fc <_etoa.part.0+0x3c0>)
10002502:	f002 fc3b 	bl	10004d7c <__wrap___aeabi_dadd>
10002506:	f002 fccb 	bl	10004ea0 <__wrap___aeabi_d2iz>
1000250a:	4abd      	ldr	r2, [pc, #756]	; (10002800 <_etoa.part.0+0x3c4>)
1000250c:	0006      	movs	r6, r0
1000250e:	4bbd      	ldr	r3, [pc, #756]	; (10002804 <_etoa.part.0+0x3c8>)
10002510:	0020      	movs	r0, r4
10002512:	0029      	movs	r1, r5
10002514:	f002 fc44 	bl	10004da0 <__wrap___aeabi_dmul>
10002518:	0004      	movs	r4, r0
1000251a:	0030      	movs	r0, r6
1000251c:	000d      	movs	r5, r1
1000251e:	960f      	str	r6, [sp, #60]	; 0x3c
10002520:	f002 fca6 	bl	10004e70 <__wrap___aeabi_i2d>
10002524:	4ab8      	ldr	r2, [pc, #736]	; (10002808 <_etoa.part.0+0x3cc>)
10002526:	4bb9      	ldr	r3, [pc, #740]	; (1000280c <_etoa.part.0+0x3d0>)
10002528:	f002 fc3a 	bl	10004da0 <__wrap___aeabi_dmul>
1000252c:	0002      	movs	r2, r0
1000252e:	000b      	movs	r3, r1
10002530:	0020      	movs	r0, r4
10002532:	0029      	movs	r1, r5
10002534:	f002 fc19 	bl	10004d6a <__wrap___aeabi_dsub>
10002538:	0002      	movs	r2, r0
1000253a:	000b      	movs	r3, r1
1000253c:	0006      	movs	r6, r0
1000253e:	000f      	movs	r7, r1
10002540:	f002 fc2e 	bl	10004da0 <__wrap___aeabi_dmul>
10002544:	0032      	movs	r2, r6
10002546:	0004      	movs	r4, r0
10002548:	000d      	movs	r5, r1
1000254a:	003b      	movs	r3, r7
1000254c:	0030      	movs	r0, r6
1000254e:	0039      	movs	r1, r7
10002550:	f002 fc14 	bl	10004d7c <__wrap___aeabi_dadd>
10002554:	2200      	movs	r2, #0
10002556:	9010      	str	r0, [sp, #64]	; 0x40
10002558:	9111      	str	r1, [sp, #68]	; 0x44
1000255a:	4bad      	ldr	r3, [pc, #692]	; (10002810 <_etoa.part.0+0x3d4>)
1000255c:	0020      	movs	r0, r4
1000255e:	0029      	movs	r1, r5
10002560:	f002 fc15 	bl	10004d8e <__wrap___aeabi_ddiv>
10002564:	2200      	movs	r2, #0
10002566:	4bab      	ldr	r3, [pc, #684]	; (10002814 <_etoa.part.0+0x3d8>)
10002568:	f002 fc08 	bl	10004d7c <__wrap___aeabi_dadd>
1000256c:	0002      	movs	r2, r0
1000256e:	000b      	movs	r3, r1
10002570:	0020      	movs	r0, r4
10002572:	0029      	movs	r1, r5
10002574:	f002 fc0b 	bl	10004d8e <__wrap___aeabi_ddiv>
10002578:	2200      	movs	r2, #0
1000257a:	4ba7      	ldr	r3, [pc, #668]	; (10002818 <_etoa.part.0+0x3dc>)
1000257c:	f002 fbfe 	bl	10004d7c <__wrap___aeabi_dadd>
10002580:	0002      	movs	r2, r0
10002582:	000b      	movs	r3, r1
10002584:	0020      	movs	r0, r4
10002586:	0029      	movs	r1, r5
10002588:	f002 fc01 	bl	10004d8e <__wrap___aeabi_ddiv>
1000258c:	000d      	movs	r5, r1
1000258e:	2180      	movs	r1, #128	; 0x80
10002590:	0004      	movs	r4, r0
10002592:	0032      	movs	r2, r6
10002594:	003b      	movs	r3, r7
10002596:	2000      	movs	r0, #0
10002598:	05c9      	lsls	r1, r1, #23
1000259a:	f002 fbe6 	bl	10004d6a <__wrap___aeabi_dsub>
1000259e:	0002      	movs	r2, r0
100025a0:	000b      	movs	r3, r1
100025a2:	0020      	movs	r0, r4
100025a4:	0029      	movs	r1, r5
100025a6:	f002 fbe9 	bl	10004d7c <__wrap___aeabi_dadd>
100025aa:	0002      	movs	r2, r0
100025ac:	000b      	movs	r3, r1
100025ae:	9810      	ldr	r0, [sp, #64]	; 0x40
100025b0:	9911      	ldr	r1, [sp, #68]	; 0x44
100025b2:	f002 fbec 	bl	10004d8e <__wrap___aeabi_ddiv>
100025b6:	2200      	movs	r2, #0
100025b8:	4b8a      	ldr	r3, [pc, #552]	; (100027e4 <_etoa.part.0+0x3a8>)
100025ba:	f002 fbdf 	bl	10004d7c <__wrap___aeabi_dadd>
100025be:	4a97      	ldr	r2, [pc, #604]	; (1000281c <_etoa.part.0+0x3e0>)
100025c0:	9b0f      	ldr	r3, [sp, #60]	; 0x3c
100025c2:	4694      	mov	ip, r2
100025c4:	4463      	add	r3, ip
100025c6:	2200      	movs	r2, #0
100025c8:	051b      	lsls	r3, r3, #20
100025ca:	f002 fbe9 	bl	10004da0 <__wrap___aeabi_dmul>
100025ce:	0005      	movs	r5, r0
100025d0:	000c      	movs	r4, r1
100025d2:	0002      	movs	r2, r0
100025d4:	000b      	movs	r3, r1
100025d6:	4650      	mov	r0, sl
100025d8:	4659      	mov	r1, fp
100025da:	f002 fc23 	bl	10004e24 <__wrap___aeabi_dcmplt>
100025de:	2800      	cmp	r0, #0
100025e0:	d00b      	beq.n	100025fa <_etoa.part.0+0x1be>
100025e2:	2301      	movs	r3, #1
100025e4:	425b      	negs	r3, r3
100025e6:	469c      	mov	ip, r3
100025e8:	0028      	movs	r0, r5
100025ea:	0021      	movs	r1, r4
100025ec:	2200      	movs	r2, #0
100025ee:	4b89      	ldr	r3, [pc, #548]	; (10002814 <_etoa.part.0+0x3d8>)
100025f0:	44e1      	add	r9, ip
100025f2:	f002 fbcc 	bl	10004d8e <__wrap___aeabi_ddiv>
100025f6:	0005      	movs	r5, r0
100025f8:	000c      	movs	r4, r1
100025fa:	464b      	mov	r3, r9
100025fc:	26c6      	movs	r6, #198	; 0xc6
100025fe:	3363      	adds	r3, #99	; 0x63
10002600:	429e      	cmp	r6, r3
10002602:	41b6      	sbcs	r6, r6
10002604:	9b0d      	ldr	r3, [sp, #52]	; 0x34
10002606:	4276      	negs	r6, r6
10002608:	3604      	adds	r6, #4
1000260a:	2b00      	cmp	r3, #0
1000260c:	d000      	beq.n	10002610 <_etoa.part.0+0x1d4>
1000260e:	e0bc      	b.n	1000278a <_etoa.part.0+0x34e>
10002610:	9b27      	ldr	r3, [sp, #156]	; 0x9c
10002612:	2700      	movs	r7, #0
10002614:	429e      	cmp	r6, r3
10002616:	d200      	bcs.n	1000261a <_etoa.part.0+0x1de>
10002618:	1b9f      	subs	r7, r3, r6
1000261a:	2302      	movs	r3, #2
1000261c:	9a28      	ldr	r2, [sp, #160]	; 0xa0
1000261e:	401a      	ands	r2, r3
10002620:	920d      	str	r2, [sp, #52]	; 0x34
10002622:	d003      	beq.n	1000262c <_etoa.part.0+0x1f0>
10002624:	4273      	negs	r3, r6
10002626:	4173      	adcs	r3, r6
10002628:	425b      	negs	r3, r3
1000262a:	401f      	ands	r7, r3
1000262c:	464b      	mov	r3, r9
1000262e:	2b00      	cmp	r3, #0
10002630:	d007      	beq.n	10002642 <_etoa.part.0+0x206>
10002632:	4650      	mov	r0, sl
10002634:	4659      	mov	r1, fp
10002636:	002a      	movs	r2, r5
10002638:	0023      	movs	r3, r4
1000263a:	f002 fba8 	bl	10004d8e <__wrap___aeabi_ddiv>
1000263e:	4682      	mov	sl, r0
10002640:	468b      	mov	fp, r1
10002642:	2200      	movs	r2, #0
10002644:	2300      	movs	r3, #0
10002646:	980b      	ldr	r0, [sp, #44]	; 0x2c
10002648:	990c      	ldr	r1, [sp, #48]	; 0x30
1000264a:	f002 fbeb 	bl	10004e24 <__wrap___aeabi_dcmplt>
1000264e:	2800      	cmp	r0, #0
10002650:	d003      	beq.n	1000265a <_etoa.part.0+0x21e>
10002652:	2180      	movs	r1, #128	; 0x80
10002654:	0609      	lsls	r1, r1, #24
10002656:	4459      	add	r1, fp
10002658:	468b      	mov	fp, r1
1000265a:	4652      	mov	r2, sl
1000265c:	465b      	mov	r3, fp
1000265e:	4650      	mov	r0, sl
10002660:	4659      	mov	r1, fp
10002662:	f002 fbf2 	bl	10004e4a <__wrap___aeabi_dcmpun>
10002666:	2800      	cmp	r0, #0
10002668:	d000      	beq.n	1000266c <_etoa.part.0+0x230>
1000266a:	e144      	b.n	100028f6 <_etoa.part.0+0x4ba>
1000266c:	2201      	movs	r2, #1
1000266e:	4b6c      	ldr	r3, [pc, #432]	; (10002820 <_etoa.part.0+0x3e4>)
10002670:	4252      	negs	r2, r2
10002672:	4650      	mov	r0, sl
10002674:	4659      	mov	r1, fp
10002676:	f002 fbd5 	bl	10004e24 <__wrap___aeabi_dcmplt>
1000267a:	2800      	cmp	r0, #0
1000267c:	d000      	beq.n	10002680 <_etoa.part.0+0x244>
1000267e:	e0d7      	b.n	10002830 <_etoa.part.0+0x3f4>
10002680:	9a28      	ldr	r2, [sp, #160]	; 0xa0
10002682:	4b68      	ldr	r3, [pc, #416]	; (10002824 <_etoa.part.0+0x3e8>)
10002684:	9703      	str	r7, [sp, #12]
10002686:	4013      	ands	r3, r2
10002688:	9304      	str	r3, [sp, #16]
1000268a:	9b26      	ldr	r3, [sp, #152]	; 0x98
1000268c:	4652      	mov	r2, sl
1000268e:	9302      	str	r3, [sp, #8]
10002690:	465b      	mov	r3, fp
10002692:	9909      	ldr	r1, [sp, #36]	; 0x24
10002694:	9200      	str	r2, [sp, #0]
10002696:	9301      	str	r3, [sp, #4]
10002698:	9808      	ldr	r0, [sp, #32]
1000269a:	9a0a      	ldr	r2, [sp, #40]	; 0x28
1000269c:	4643      	mov	r3, r8
1000269e:	f000 fcff 	bl	100030a0 <_ftoa.part.1>
100026a2:	0002      	movs	r2, r0
100026a4:	2e00      	cmp	r6, #0
100026a6:	d052      	beq.n	1000274e <_etoa.part.0+0x312>
100026a8:	2020      	movs	r0, #32
100026aa:	9b28      	ldr	r3, [sp, #160]	; 0xa0
100026ac:	9c08      	ldr	r4, [sp, #32]
100026ae:	4003      	ands	r3, r0
100026b0:	4259      	negs	r1, r3
100026b2:	414b      	adcs	r3, r1
100026b4:	425b      	negs	r3, r3
100026b6:	4018      	ands	r0, r3
100026b8:	1c53      	adds	r3, r2, #1
100026ba:	3045      	adds	r0, #69	; 0x45
100026bc:	469a      	mov	sl, r3
100026be:	9909      	ldr	r1, [sp, #36]	; 0x24
100026c0:	4643      	mov	r3, r8
100026c2:	47a0      	blx	r4
100026c4:	464b      	mov	r3, r9
100026c6:	17da      	asrs	r2, r3, #31
100026c8:	189d      	adds	r5, r3, r2
100026ca:	0fdb      	lsrs	r3, r3, #31
100026cc:	4699      	mov	r9, r3
100026ce:	1e73      	subs	r3, r6, #1
100026d0:	4055      	eors	r5, r2
100026d2:	469b      	mov	fp, r3
100026d4:	2400      	movs	r4, #0
100026d6:	ae12      	add	r6, sp, #72	; 0x48
100026d8:	e002      	b.n	100026e0 <_etoa.part.0+0x2a4>
100026da:	003c      	movs	r4, r7
100026dc:	2f20      	cmp	r7, #32
100026de:	d00d      	beq.n	100026fc <_etoa.part.0+0x2c0>
100026e0:	0028      	movs	r0, r5
100026e2:	210a      	movs	r1, #10
100026e4:	f002 f8fc 	bl	100048e0 <__wrap___aeabi_uidiv>
100026e8:	1c67      	adds	r7, r4, #1
100026ea:	3130      	adds	r1, #48	; 0x30
100026ec:	1934      	adds	r4, r6, r4
100026ee:	7021      	strb	r1, [r4, #0]
100026f0:	0028      	movs	r0, r5
100026f2:	210a      	movs	r1, #10
100026f4:	f002 f8f4 	bl	100048e0 <__wrap___aeabi_uidiv>
100026f8:	1e05      	subs	r5, r0, #0
100026fa:	d1ee      	bne.n	100026da <_etoa.part.0+0x29e>
100026fc:	2305      	movs	r3, #5
100026fe:	9306      	str	r3, [sp, #24]
10002700:	465b      	mov	r3, fp
10002702:	9305      	str	r3, [sp, #20]
10002704:	2300      	movs	r3, #0
10002706:	9304      	str	r3, [sp, #16]
10002708:	330a      	adds	r3, #10
1000270a:	9303      	str	r3, [sp, #12]
1000270c:	464b      	mov	r3, r9
1000270e:	9701      	str	r7, [sp, #4]
10002710:	9600      	str	r6, [sp, #0]
10002712:	9f09      	ldr	r7, [sp, #36]	; 0x24
10002714:	9e08      	ldr	r6, [sp, #32]
10002716:	9302      	str	r3, [sp, #8]
10002718:	4652      	mov	r2, sl
1000271a:	4643      	mov	r3, r8
1000271c:	0039      	movs	r1, r7
1000271e:	0030      	movs	r0, r6
10002720:	f7ff fd54 	bl	100021cc <_ntoa_format>
10002724:	9b0d      	ldr	r3, [sp, #52]	; 0x34
10002726:	0002      	movs	r2, r0
10002728:	2b00      	cmp	r3, #0
1000272a:	d010      	beq.n	1000274e <_etoa.part.0+0x312>
1000272c:	990a      	ldr	r1, [sp, #40]	; 0x28
1000272e:	1a43      	subs	r3, r0, r1
10002730:	9827      	ldr	r0, [sp, #156]	; 0x9c
10002732:	4298      	cmp	r0, r3
10002734:	d90b      	bls.n	1000274e <_etoa.part.0+0x312>
10002736:	4689      	mov	r9, r1
10002738:	0005      	movs	r5, r0
1000273a:	4643      	mov	r3, r8
1000273c:	0039      	movs	r1, r7
1000273e:	2020      	movs	r0, #32
10002740:	1c54      	adds	r4, r2, #1
10002742:	47b0      	blx	r6
10002744:	464b      	mov	r3, r9
10002746:	0022      	movs	r2, r4
10002748:	1ae3      	subs	r3, r4, r3
1000274a:	429d      	cmp	r5, r3
1000274c:	d8f5      	bhi.n	1000273a <_etoa.part.0+0x2fe>
1000274e:	0010      	movs	r0, r2
10002750:	b01b      	add	sp, #108	; 0x6c
10002752:	bc3c      	pop	{r2, r3, r4, r5}
10002754:	4690      	mov	r8, r2
10002756:	4699      	mov	r9, r3
10002758:	46a2      	mov	sl, r4
1000275a:	46ab      	mov	fp, r5
1000275c:	bdf0      	pop	{r4, r5, r6, r7, pc}
1000275e:	9b0d      	ldr	r3, [sp, #52]	; 0x34
10002760:	4655      	mov	r5, sl
10002762:	465c      	mov	r4, fp
10002764:	2b00      	cmp	r3, #0
10002766:	d027      	beq.n	100027b8 <_etoa.part.0+0x37c>
10002768:	2300      	movs	r3, #0
1000276a:	4699      	mov	r9, r3
1000276c:	9b26      	ldr	r3, [sp, #152]	; 0x98
1000276e:	454b      	cmp	r3, r9
10002770:	dd00      	ble.n	10002774 <_etoa.part.0+0x338>
10002772:	e0b1      	b.n	100028d8 <_etoa.part.0+0x49c>
10002774:	2300      	movs	r3, #0
10002776:	9326      	str	r3, [sp, #152]	; 0x98
10002778:	2380      	movs	r3, #128	; 0x80
1000277a:	9a28      	ldr	r2, [sp, #160]	; 0xa0
1000277c:	00db      	lsls	r3, r3, #3
1000277e:	431a      	orrs	r2, r3
10002780:	2300      	movs	r3, #0
10002782:	9228      	str	r2, [sp, #160]	; 0xa0
10002784:	2600      	movs	r6, #0
10002786:	4699      	mov	r9, r3
10002788:	e742      	b.n	10002610 <_etoa.part.0+0x1d4>
1000278a:	0023      	movs	r3, r4
1000278c:	432b      	orrs	r3, r5
1000278e:	d0ed      	beq.n	1000276c <_etoa.part.0+0x330>
10002790:	4a25      	ldr	r2, [pc, #148]	; (10002828 <_etoa.part.0+0x3ec>)
10002792:	4b26      	ldr	r3, [pc, #152]	; (1000282c <_etoa.part.0+0x3f0>)
10002794:	4650      	mov	r0, sl
10002796:	4659      	mov	r1, fp
10002798:	f002 fb4a 	bl	10004e30 <__wrap___aeabi_dcmpge>
1000279c:	2800      	cmp	r0, #0
1000279e:	d000      	beq.n	100027a2 <_etoa.part.0+0x366>
100027a0:	e09f      	b.n	100028e2 <_etoa.part.0+0x4a6>
100027a2:	9b26      	ldr	r3, [sp, #152]	; 0x98
100027a4:	2b00      	cmp	r3, #0
100027a6:	d100      	bne.n	100027aa <_etoa.part.0+0x36e>
100027a8:	e732      	b.n	10002610 <_etoa.part.0+0x1d4>
100027aa:	9b0e      	ldr	r3, [sp, #56]	; 0x38
100027ac:	1e5a      	subs	r2, r3, #1
100027ae:	4193      	sbcs	r3, r2
100027b0:	9a26      	ldr	r2, [sp, #152]	; 0x98
100027b2:	1ad3      	subs	r3, r2, r3
100027b4:	9326      	str	r3, [sp, #152]	; 0x98
100027b6:	e72b      	b.n	10002610 <_etoa.part.0+0x1d4>
100027b8:	2604      	movs	r6, #4
100027ba:	4699      	mov	r9, r3
100027bc:	e728      	b.n	10002610 <_etoa.part.0+0x1d4>
100027be:	2280      	movs	r2, #128	; 0x80
100027c0:	0612      	lsls	r2, r2, #24
100027c2:	4694      	mov	ip, r2
100027c4:	9b0c      	ldr	r3, [sp, #48]	; 0x30
100027c6:	46a2      	mov	sl, r4
100027c8:	4463      	add	r3, ip
100027ca:	469b      	mov	fp, r3
100027cc:	e653      	b.n	10002476 <_etoa.part.0+0x3a>
100027ce:	46c0      	nop			; (mov r8, r8)
100027d0:	fffffc01 	.word	0xfffffc01
100027d4:	509f79fb 	.word	0x509f79fb
100027d8:	3fd34413 	.word	0x3fd34413
100027dc:	8b60c8b3 	.word	0x8b60c8b3
100027e0:	3fc68a28 	.word	0x3fc68a28
100027e4:	3ff00000 	.word	0x3ff00000
100027e8:	3ff80000 	.word	0x3ff80000
100027ec:	636f4361 	.word	0x636f4361
100027f0:	3fd287a7 	.word	0x3fd287a7
100027f4:	0979a371 	.word	0x0979a371
100027f8:	400a934f 	.word	0x400a934f
100027fc:	3fe00000 	.word	0x3fe00000
10002800:	bbb55516 	.word	0xbbb55516
10002804:	40026bb1 	.word	0x40026bb1
10002808:	fefa39ef 	.word	0xfefa39ef
1000280c:	3fe62e42 	.word	0x3fe62e42
10002810:	402c0000 	.word	0x402c0000
10002814:	40240000 	.word	0x40240000
10002818:	40180000 	.word	0x40180000
1000281c:	000003ff 	.word	0x000003ff
10002820:	ffefffff 	.word	0xffefffff
10002824:	fffff7ff 	.word	0xfffff7ff
10002828:	eb1c432d 	.word	0xeb1c432d
1000282c:	3f1a36e2 	.word	0x3f1a36e2
10002830:	9a0a      	ldr	r2, [sp, #40]	; 0x28
10002832:	9b28      	ldr	r3, [sp, #160]	; 0xa0
10002834:	0014      	movs	r4, r2
10002836:	079b      	lsls	r3, r3, #30
10002838:	d115      	bne.n	10002866 <_etoa.part.0+0x42a>
1000283a:	2f04      	cmp	r7, #4
1000283c:	d913      	bls.n	10002866 <_etoa.part.0+0x42a>
1000283e:	46b2      	mov	sl, r6
10002840:	4646      	mov	r6, r8
10002842:	1f15      	subs	r5, r2, #4
10002844:	19ed      	adds	r5, r5, r7
10002846:	46bb      	mov	fp, r7
10002848:	9f09      	ldr	r7, [sp, #36]	; 0x24
1000284a:	950b      	str	r5, [sp, #44]	; 0x2c
1000284c:	0033      	movs	r3, r6
1000284e:	0039      	movs	r1, r7
10002850:	2020      	movs	r0, #32
10002852:	9d08      	ldr	r5, [sp, #32]
10002854:	1c54      	adds	r4, r2, #1
10002856:	47a8      	blx	r5
10002858:	9b0b      	ldr	r3, [sp, #44]	; 0x2c
1000285a:	0022      	movs	r2, r4
1000285c:	429c      	cmp	r4, r3
1000285e:	d1f5      	bne.n	1000284c <_etoa.part.0+0x410>
10002860:	46b0      	mov	r8, r6
10002862:	465f      	mov	r7, fp
10002864:	4656      	mov	r6, sl
10002866:	4b4d      	ldr	r3, [pc, #308]	; (1000299c <_etoa.part.0+0x560>)
10002868:	4649      	mov	r1, r9
1000286a:	469a      	mov	sl, r3
1000286c:	4643      	mov	r3, r8
1000286e:	46b9      	mov	r9, r7
10002870:	0022      	movs	r2, r4
10002872:	2504      	movs	r5, #4
10002874:	46a3      	mov	fp, r4
10002876:	46b0      	mov	r8, r6
10002878:	001f      	movs	r7, r3
1000287a:	910b      	str	r1, [sp, #44]	; 0x2c
1000287c:	4653      	mov	r3, sl
1000287e:	3d01      	subs	r5, #1
10002880:	1c54      	adds	r4, r2, #1
10002882:	5d58      	ldrb	r0, [r3, r5]
10002884:	9909      	ldr	r1, [sp, #36]	; 0x24
10002886:	003b      	movs	r3, r7
10002888:	9e08      	ldr	r6, [sp, #32]
1000288a:	47b0      	blx	r6
1000288c:	0022      	movs	r2, r4
1000288e:	2d00      	cmp	r5, #0
10002890:	d1f4      	bne.n	1000287c <_etoa.part.0+0x440>
10002892:	003b      	movs	r3, r7
10002894:	465c      	mov	r4, fp
10002896:	9a0b      	ldr	r2, [sp, #44]	; 0x2c
10002898:	4646      	mov	r6, r8
1000289a:	4698      	mov	r8, r3
1000289c:	9b0d      	ldr	r3, [sp, #52]	; 0x34
1000289e:	464f      	mov	r7, r9
100028a0:	4691      	mov	r9, r2
100028a2:	1d22      	adds	r2, r4, #4
100028a4:	2b00      	cmp	r3, #0
100028a6:	d100      	bne.n	100028aa <_etoa.part.0+0x46e>
100028a8:	e6fc      	b.n	100026a4 <_etoa.part.0+0x268>
100028aa:	9b0a      	ldr	r3, [sp, #40]	; 0x28
100028ac:	1ad3      	subs	r3, r2, r3
100028ae:	429f      	cmp	r7, r3
100028b0:	d800      	bhi.n	100028b4 <_etoa.part.0+0x478>
100028b2:	e6f7      	b.n	100026a4 <_etoa.part.0+0x268>
100028b4:	46b3      	mov	fp, r6
100028b6:	4646      	mov	r6, r8
100028b8:	46ba      	mov	sl, r7
100028ba:	9f09      	ldr	r7, [sp, #36]	; 0x24
100028bc:	0033      	movs	r3, r6
100028be:	0039      	movs	r1, r7
100028c0:	2020      	movs	r0, #32
100028c2:	9d08      	ldr	r5, [sp, #32]
100028c4:	1c54      	adds	r4, r2, #1
100028c6:	47a8      	blx	r5
100028c8:	9b0a      	ldr	r3, [sp, #40]	; 0x28
100028ca:	0022      	movs	r2, r4
100028cc:	1ae3      	subs	r3, r4, r3
100028ce:	459a      	cmp	sl, r3
100028d0:	d8f4      	bhi.n	100028bc <_etoa.part.0+0x480>
100028d2:	46b0      	mov	r8, r6
100028d4:	465e      	mov	r6, fp
100028d6:	e6e5      	b.n	100026a4 <_etoa.part.0+0x268>
100028d8:	464a      	mov	r2, r9
100028da:	1a9b      	subs	r3, r3, r2
100028dc:	3b01      	subs	r3, #1
100028de:	9326      	str	r3, [sp, #152]	; 0x98
100028e0:	e74a      	b.n	10002778 <_etoa.part.0+0x33c>
100028e2:	2200      	movs	r2, #0
100028e4:	4b2e      	ldr	r3, [pc, #184]	; (100029a0 <_etoa.part.0+0x564>)
100028e6:	4650      	mov	r0, sl
100028e8:	4659      	mov	r1, fp
100028ea:	f002 fa9b 	bl	10004e24 <__wrap___aeabi_dcmplt>
100028ee:	2800      	cmp	r0, #0
100028f0:	d000      	beq.n	100028f4 <_etoa.part.0+0x4b8>
100028f2:	e73b      	b.n	1000276c <_etoa.part.0+0x330>
100028f4:	e755      	b.n	100027a2 <_etoa.part.0+0x366>
100028f6:	9b0a      	ldr	r3, [sp, #40]	; 0x28
100028f8:	9a28      	ldr	r2, [sp, #160]	; 0xa0
100028fa:	469a      	mov	sl, r3
100028fc:	0792      	lsls	r2, r2, #30
100028fe:	d117      	bne.n	10002930 <_etoa.part.0+0x4f4>
10002900:	2f03      	cmp	r7, #3
10002902:	d915      	bls.n	10002930 <_etoa.part.0+0x4f4>
10002904:	46b2      	mov	sl, r6
10002906:	001a      	movs	r2, r3
10002908:	4646      	mov	r6, r8
1000290a:	1edc      	subs	r4, r3, #3
1000290c:	19e4      	adds	r4, r4, r7
1000290e:	46bb      	mov	fp, r7
10002910:	9f09      	ldr	r7, [sp, #36]	; 0x24
10002912:	940b      	str	r4, [sp, #44]	; 0x2c
10002914:	0033      	movs	r3, r6
10002916:	0039      	movs	r1, r7
10002918:	2020      	movs	r0, #32
1000291a:	9c08      	ldr	r4, [sp, #32]
1000291c:	1c55      	adds	r5, r2, #1
1000291e:	47a0      	blx	r4
10002920:	9b0b      	ldr	r3, [sp, #44]	; 0x2c
10002922:	002a      	movs	r2, r5
10002924:	429d      	cmp	r5, r3
10002926:	d1f5      	bne.n	10002914 <_etoa.part.0+0x4d8>
10002928:	46b0      	mov	r8, r6
1000292a:	465f      	mov	r7, fp
1000292c:	4656      	mov	r6, sl
1000292e:	46aa      	mov	sl, r5
10002930:	4b1c      	ldr	r3, [pc, #112]	; (100029a4 <_etoa.part.0+0x568>)
10002932:	4649      	mov	r1, r9
10002934:	469b      	mov	fp, r3
10002936:	4643      	mov	r3, r8
10002938:	46b9      	mov	r9, r7
1000293a:	4652      	mov	r2, sl
1000293c:	2403      	movs	r4, #3
1000293e:	46b0      	mov	r8, r6
10002940:	001f      	movs	r7, r3
10002942:	910b      	str	r1, [sp, #44]	; 0x2c
10002944:	465b      	mov	r3, fp
10002946:	3c01      	subs	r4, #1
10002948:	1c55      	adds	r5, r2, #1
1000294a:	5d18      	ldrb	r0, [r3, r4]
1000294c:	9909      	ldr	r1, [sp, #36]	; 0x24
1000294e:	003b      	movs	r3, r7
10002950:	9e08      	ldr	r6, [sp, #32]
10002952:	47b0      	blx	r6
10002954:	002a      	movs	r2, r5
10002956:	2c00      	cmp	r4, #0
10002958:	d1f4      	bne.n	10002944 <_etoa.part.0+0x508>
1000295a:	003b      	movs	r3, r7
1000295c:	9a0b      	ldr	r2, [sp, #44]	; 0x2c
1000295e:	464f      	mov	r7, r9
10002960:	4691      	mov	r9, r2
10002962:	4652      	mov	r2, sl
10002964:	4646      	mov	r6, r8
10002966:	4698      	mov	r8, r3
10002968:	9b0d      	ldr	r3, [sp, #52]	; 0x34
1000296a:	3203      	adds	r2, #3
1000296c:	2b00      	cmp	r3, #0
1000296e:	d100      	bne.n	10002972 <_etoa.part.0+0x536>
10002970:	e698      	b.n	100026a4 <_etoa.part.0+0x268>
10002972:	9b0a      	ldr	r3, [sp, #40]	; 0x28
10002974:	1ad3      	subs	r3, r2, r3
10002976:	429f      	cmp	r7, r3
10002978:	d800      	bhi.n	1000297c <_etoa.part.0+0x540>
1000297a:	e693      	b.n	100026a4 <_etoa.part.0+0x268>
1000297c:	46b3      	mov	fp, r6
1000297e:	4646      	mov	r6, r8
10002980:	46ba      	mov	sl, r7
10002982:	9f09      	ldr	r7, [sp, #36]	; 0x24
10002984:	0033      	movs	r3, r6
10002986:	0039      	movs	r1, r7
10002988:	2020      	movs	r0, #32
1000298a:	9d08      	ldr	r5, [sp, #32]
1000298c:	1c54      	adds	r4, r2, #1
1000298e:	47a8      	blx	r5
10002990:	9b0a      	ldr	r3, [sp, #40]	; 0x28
10002992:	0022      	movs	r2, r4
10002994:	1ae3      	subs	r3, r4, r3
10002996:	459a      	cmp	sl, r3
10002998:	d8f4      	bhi.n	10002984 <_etoa.part.0+0x548>
1000299a:	e79a      	b.n	100028d2 <_etoa.part.0+0x496>
1000299c:	1000826c 	.word	0x1000826c
100029a0:	412e8480 	.word	0x412e8480
100029a4:	10008268 	.word	0x10008268

100029a8 <_ftoa>:
100029a8:	b5f0      	push	{r4, r5, r6, r7, lr}
100029aa:	46de      	mov	lr, fp
100029ac:	4657      	mov	r7, sl
100029ae:	464e      	mov	r6, r9
100029b0:	4645      	mov	r5, r8
100029b2:	b5e0      	push	{r5, r6, r7, lr}
100029b4:	b097      	sub	sp, #92	; 0x5c
100029b6:	0005      	movs	r5, r0
100029b8:	000e      	movs	r6, r1
100029ba:	4693      	mov	fp, r2
100029bc:	001f      	movs	r7, r3
100029be:	9a20      	ldr	r2, [sp, #128]	; 0x80
100029c0:	9b21      	ldr	r3, [sp, #132]	; 0x84
100029c2:	0010      	movs	r0, r2
100029c4:	0019      	movs	r1, r3
100029c6:	f002 fa40 	bl	10004e4a <__wrap___aeabi_dcmpun>
100029ca:	2800      	cmp	r0, #0
100029cc:	d000      	beq.n	100029d0 <_ftoa+0x28>
100029ce:	e2ae      	b.n	10002f2e <_ftoa+0x586>
100029d0:	9820      	ldr	r0, [sp, #128]	; 0x80
100029d2:	9921      	ldr	r1, [sp, #132]	; 0x84
100029d4:	2201      	movs	r2, #1
100029d6:	4bc5      	ldr	r3, [pc, #788]	; (10002cec <_ftoa+0x344>)
100029d8:	4252      	negs	r2, r2
100029da:	f002 fa23 	bl	10004e24 <__wrap___aeabi_dcmplt>
100029de:	2800      	cmp	r0, #0
100029e0:	d000      	beq.n	100029e4 <_ftoa+0x3c>
100029e2:	e134      	b.n	10002c4e <_ftoa+0x2a6>
100029e4:	9820      	ldr	r0, [sp, #128]	; 0x80
100029e6:	9921      	ldr	r1, [sp, #132]	; 0x84
100029e8:	2201      	movs	r2, #1
100029ea:	4bc1      	ldr	r3, [pc, #772]	; (10002cf0 <_ftoa+0x348>)
100029ec:	4252      	negs	r2, r2
100029ee:	f002 fa27 	bl	10004e40 <__wrap___aeabi_dcmpgt>
100029f2:	2800      	cmp	r0, #0
100029f4:	d000      	beq.n	100029f8 <_ftoa+0x50>
100029f6:	e0c1      	b.n	10002b7c <_ftoa+0x1d4>
100029f8:	9820      	ldr	r0, [sp, #128]	; 0x80
100029fa:	9921      	ldr	r1, [sp, #132]	; 0x84
100029fc:	2200      	movs	r2, #0
100029fe:	4bbd      	ldr	r3, [pc, #756]	; (10002cf4 <_ftoa+0x34c>)
10002a00:	f002 fa1e 	bl	10004e40 <__wrap___aeabi_dcmpgt>
10002a04:	2800      	cmp	r0, #0
10002a06:	d000      	beq.n	10002a0a <_ftoa+0x62>
10002a08:	e108      	b.n	10002c1c <_ftoa+0x274>
10002a0a:	9820      	ldr	r0, [sp, #128]	; 0x80
10002a0c:	9921      	ldr	r1, [sp, #132]	; 0x84
10002a0e:	2200      	movs	r2, #0
10002a10:	4bb9      	ldr	r3, [pc, #740]	; (10002cf8 <_ftoa+0x350>)
10002a12:	f002 fa07 	bl	10004e24 <__wrap___aeabi_dcmplt>
10002a16:	2800      	cmp	r0, #0
10002a18:	d000      	beq.n	10002a1c <_ftoa+0x74>
10002a1a:	e0ff      	b.n	10002c1c <_ftoa+0x274>
10002a1c:	9820      	ldr	r0, [sp, #128]	; 0x80
10002a1e:	9921      	ldr	r1, [sp, #132]	; 0x84
10002a20:	2200      	movs	r2, #0
10002a22:	2300      	movs	r3, #0
10002a24:	f002 f9fe 	bl	10004e24 <__wrap___aeabi_dcmplt>
10002a28:	2800      	cmp	r0, #0
10002a2a:	d000      	beq.n	10002a2e <_ftoa+0x86>
10002a2c:	e274      	b.n	10002f18 <_ftoa+0x570>
10002a2e:	2300      	movs	r3, #0
10002a30:	930d      	str	r3, [sp, #52]	; 0x34
10002a32:	2380      	movs	r3, #128	; 0x80
10002a34:	9a24      	ldr	r2, [sp, #144]	; 0x90
10002a36:	00db      	lsls	r3, r3, #3
10002a38:	401a      	ands	r2, r3
10002a3a:	4690      	mov	r8, r2
10002a3c:	d000      	beq.n	10002a40 <_ftoa+0x98>
10002a3e:	e1ba      	b.n	10002db6 <_ftoa+0x40e>
10002a40:	2300      	movs	r3, #0
10002a42:	4cae      	ldr	r4, [pc, #696]	; (10002cfc <_ftoa+0x354>)
10002a44:	9306      	str	r3, [sp, #24]
10002a46:	9407      	str	r4, [sp, #28]
10002a48:	ab0e      	add	r3, sp, #56	; 0x38
10002a4a:	2406      	movs	r4, #6
10002a4c:	469a      	mov	sl, r3
10002a4e:	9820      	ldr	r0, [sp, #128]	; 0x80
10002a50:	9921      	ldr	r1, [sp, #132]	; 0x84
10002a52:	f002 fa25 	bl	10004ea0 <__wrap___aeabi_d2iz>
10002a56:	9009      	str	r0, [sp, #36]	; 0x24
10002a58:	f002 fa0a 	bl	10004e70 <__wrap___aeabi_i2d>
10002a5c:	0002      	movs	r2, r0
10002a5e:	000b      	movs	r3, r1
10002a60:	9820      	ldr	r0, [sp, #128]	; 0x80
10002a62:	9921      	ldr	r1, [sp, #132]	; 0x84
10002a64:	f002 f981 	bl	10004d6a <__wrap___aeabi_dsub>
10002a68:	9a06      	ldr	r2, [sp, #24]
10002a6a:	9b07      	ldr	r3, [sp, #28]
10002a6c:	f002 f998 	bl	10004da0 <__wrap___aeabi_dmul>
10002a70:	900a      	str	r0, [sp, #40]	; 0x28
10002a72:	910b      	str	r1, [sp, #44]	; 0x2c
10002a74:	f002 fa38 	bl	10004ee8 <__wrap___aeabi_d2uiz>
10002a78:	4681      	mov	r9, r0
10002a7a:	900c      	str	r0, [sp, #48]	; 0x30
10002a7c:	f002 f9f4 	bl	10004e68 <__wrap___aeabi_ui2d>
10002a80:	0002      	movs	r2, r0
10002a82:	000b      	movs	r3, r1
10002a84:	980a      	ldr	r0, [sp, #40]	; 0x28
10002a86:	990b      	ldr	r1, [sp, #44]	; 0x2c
10002a88:	f002 f96f 	bl	10004d6a <__wrap___aeabi_dsub>
10002a8c:	2200      	movs	r2, #0
10002a8e:	4b9c      	ldr	r3, [pc, #624]	; (10002d00 <_ftoa+0x358>)
10002a90:	900a      	str	r0, [sp, #40]	; 0x28
10002a92:	910b      	str	r1, [sp, #44]	; 0x2c
10002a94:	f002 f9d4 	bl	10004e40 <__wrap___aeabi_dcmpgt>
10002a98:	2800      	cmp	r0, #0
10002a9a:	d100      	bne.n	10002a9e <_ftoa+0xf6>
10002a9c:	e1e5      	b.n	10002e6a <_ftoa+0x4c2>
10002a9e:	464b      	mov	r3, r9
10002aa0:	3301      	adds	r3, #1
10002aa2:	0018      	movs	r0, r3
10002aa4:	930c      	str	r3, [sp, #48]	; 0x30
10002aa6:	f002 f9df 	bl	10004e68 <__wrap___aeabi_ui2d>
10002aaa:	9a06      	ldr	r2, [sp, #24]
10002aac:	9b07      	ldr	r3, [sp, #28]
10002aae:	f002 f9bf 	bl	10004e30 <__wrap___aeabi_dcmpge>
10002ab2:	2800      	cmp	r0, #0
10002ab4:	d000      	beq.n	10002ab8 <_ftoa+0x110>
10002ab6:	e1fb      	b.n	10002eb0 <_ftoa+0x508>
10002ab8:	2c00      	cmp	r4, #0
10002aba:	d000      	beq.n	10002abe <_ftoa+0x116>
10002abc:	e19c      	b.n	10002df8 <_ftoa+0x450>
10002abe:	9c09      	ldr	r4, [sp, #36]	; 0x24
10002ac0:	0020      	movs	r0, r4
10002ac2:	f002 f9d5 	bl	10004e70 <__wrap___aeabi_i2d>
10002ac6:	0002      	movs	r2, r0
10002ac8:	000b      	movs	r3, r1
10002aca:	9820      	ldr	r0, [sp, #128]	; 0x80
10002acc:	9921      	ldr	r1, [sp, #132]	; 0x84
10002ace:	f002 f94c 	bl	10004d6a <__wrap___aeabi_dsub>
10002ad2:	2200      	movs	r2, #0
10002ad4:	4b8a      	ldr	r3, [pc, #552]	; (10002d00 <_ftoa+0x358>)
10002ad6:	9006      	str	r0, [sp, #24]
10002ad8:	9107      	str	r1, [sp, #28]
10002ada:	f002 f9a3 	bl	10004e24 <__wrap___aeabi_dcmplt>
10002ade:	2800      	cmp	r0, #0
10002ae0:	d100      	bne.n	10002ae4 <_ftoa+0x13c>
10002ae2:	e1d5      	b.n	10002e90 <_ftoa+0x4e8>
10002ae4:	4643      	mov	r3, r8
10002ae6:	2b20      	cmp	r3, #32
10002ae8:	d100      	bne.n	10002aec <_ftoa+0x144>
10002aea:	e112      	b.n	10002d12 <_ftoa+0x36a>
10002aec:	1c5c      	adds	r4, r3, #1
10002aee:	9b09      	ldr	r3, [sp, #36]	; 0x24
10002af0:	210a      	movs	r1, #10
10002af2:	0018      	movs	r0, r3
10002af4:	4699      	mov	r9, r3
10002af6:	f001 fec7 	bl	10004888 <__wrap___aeabi_idiv>
10002afa:	4642      	mov	r2, r8
10002afc:	4653      	mov	r3, sl
10002afe:	3130      	adds	r1, #48	; 0x30
10002b00:	5499      	strb	r1, [r3, r2]
10002b02:	4648      	mov	r0, r9
10002b04:	210a      	movs	r1, #10
10002b06:	f001 febf 	bl	10004888 <__wrap___aeabi_idiv>
10002b0a:	46a0      	mov	r8, r4
10002b0c:	4681      	mov	r9, r0
10002b0e:	2800      	cmp	r0, #0
10002b10:	d01e      	beq.n	10002b50 <_ftoa+0x1a8>
10002b12:	4653      	mov	r3, sl
10002b14:	46a8      	mov	r8, r5
10002b16:	46ba      	mov	sl, r7
10002b18:	464d      	mov	r5, r9
10002b1a:	001f      	movs	r7, r3
10002b1c:	46b1      	mov	r9, r6
10002b1e:	e000      	b.n	10002b22 <_ftoa+0x17a>
10002b20:	0034      	movs	r4, r6
10002b22:	2c20      	cmp	r4, #32
10002b24:	d100      	bne.n	10002b28 <_ftoa+0x180>
10002b26:	e262      	b.n	10002fee <_ftoa+0x646>
10002b28:	0028      	movs	r0, r5
10002b2a:	210a      	movs	r1, #10
10002b2c:	f001 feac 	bl	10004888 <__wrap___aeabi_idiv>
10002b30:	1c66      	adds	r6, r4, #1
10002b32:	3130      	adds	r1, #48	; 0x30
10002b34:	193c      	adds	r4, r7, r4
10002b36:	7021      	strb	r1, [r4, #0]
10002b38:	0028      	movs	r0, r5
10002b3a:	210a      	movs	r1, #10
10002b3c:	f001 fea4 	bl	10004888 <__wrap___aeabi_idiv>
10002b40:	1e05      	subs	r5, r0, #0
10002b42:	d1ed      	bne.n	10002b20 <_ftoa+0x178>
10002b44:	003b      	movs	r3, r7
10002b46:	4645      	mov	r5, r8
10002b48:	4657      	mov	r7, sl
10002b4a:	46b0      	mov	r8, r6
10002b4c:	469a      	mov	sl, r3
10002b4e:	464e      	mov	r6, r9
10002b50:	2303      	movs	r3, #3
10002b52:	9a24      	ldr	r2, [sp, #144]	; 0x90
10002b54:	4013      	ands	r3, r2
10002b56:	2b01      	cmp	r3, #1
10002b58:	d100      	bne.n	10002b5c <_ftoa+0x1b4>
10002b5a:	e1b1      	b.n	10002ec0 <_ftoa+0x518>
10002b5c:	4642      	mov	r2, r8
10002b5e:	2420      	movs	r4, #32
10002b60:	2a20      	cmp	r2, #32
10002b62:	d100      	bne.n	10002b66 <_ftoa+0x1be>
10002b64:	e0dc      	b.n	10002d20 <_ftoa+0x378>
10002b66:	9a0d      	ldr	r2, [sp, #52]	; 0x34
10002b68:	2a00      	cmp	r2, #0
10002b6a:	d100      	bne.n	10002b6e <_ftoa+0x1c6>
10002b6c:	e235      	b.n	10002fda <_ftoa+0x632>
10002b6e:	4642      	mov	r2, r8
10002b70:	4651      	mov	r1, sl
10002b72:	1c54      	adds	r4, r2, #1
10002b74:	4640      	mov	r0, r8
10002b76:	222d      	movs	r2, #45	; 0x2d
10002b78:	540a      	strb	r2, [r1, r0]
10002b7a:	e0d1      	b.n	10002d20 <_ftoa+0x378>
10002b7c:	9b24      	ldr	r3, [sp, #144]	; 0x90
10002b7e:	075b      	lsls	r3, r3, #29
10002b80:	d500      	bpl.n	10002b84 <_ftoa+0x1dc>
10002b82:	e0ad      	b.n	10002ce0 <_ftoa+0x338>
10002b84:	4b5f      	ldr	r3, [pc, #380]	; (10002d04 <_ftoa+0x35c>)
10002b86:	469a      	mov	sl, r3
10002b88:	2303      	movs	r3, #3
10002b8a:	4698      	mov	r8, r3
10002b8c:	465b      	mov	r3, fp
10002b8e:	9306      	str	r3, [sp, #24]
10002b90:	9b24      	ldr	r3, [sp, #144]	; 0x90
10002b92:	079b      	lsls	r3, r3, #30
10002b94:	d118      	bne.n	10002bc8 <_ftoa+0x220>
10002b96:	9b23      	ldr	r3, [sp, #140]	; 0x8c
10002b98:	4543      	cmp	r3, r8
10002b9a:	d800      	bhi.n	10002b9e <_ftoa+0x1f6>
10002b9c:	e24e      	b.n	1000303c <_ftoa+0x694>
10002b9e:	445b      	add	r3, fp
10002ba0:	001c      	movs	r4, r3
10002ba2:	4643      	mov	r3, r8
10002ba4:	1ae4      	subs	r4, r4, r3
10002ba6:	46b9      	mov	r9, r7
10002ba8:	465a      	mov	r2, fp
10002baa:	0037      	movs	r7, r6
10002bac:	002e      	movs	r6, r5
10002bae:	0025      	movs	r5, r4
10002bb0:	1c54      	adds	r4, r2, #1
10002bb2:	464b      	mov	r3, r9
10002bb4:	0039      	movs	r1, r7
10002bb6:	2020      	movs	r0, #32
10002bb8:	47b0      	blx	r6
10002bba:	0022      	movs	r2, r4
10002bbc:	42ac      	cmp	r4, r5
10002bbe:	d1f7      	bne.n	10002bb0 <_ftoa+0x208>
10002bc0:	0035      	movs	r5, r6
10002bc2:	003e      	movs	r6, r7
10002bc4:	464f      	mov	r7, r9
10002bc6:	9406      	str	r4, [sp, #24]
10002bc8:	46b1      	mov	r9, r6
10002bca:	4644      	mov	r4, r8
10002bcc:	4656      	mov	r6, sl
10002bce:	46ba      	mov	sl, r7
10002bd0:	002f      	movs	r7, r5
10002bd2:	9a06      	ldr	r2, [sp, #24]
10002bd4:	3c01      	subs	r4, #1
10002bd6:	1c55      	adds	r5, r2, #1
10002bd8:	5d30      	ldrb	r0, [r6, r4]
10002bda:	4653      	mov	r3, sl
10002bdc:	4649      	mov	r1, r9
10002bde:	47b8      	blx	r7
10002be0:	002a      	movs	r2, r5
10002be2:	2c00      	cmp	r4, #0
10002be4:	d1f6      	bne.n	10002bd4 <_ftoa+0x22c>
10002be6:	9b06      	ldr	r3, [sp, #24]
10002be8:	003d      	movs	r5, r7
10002bea:	4443      	add	r3, r8
10002bec:	001a      	movs	r2, r3
10002bee:	9b24      	ldr	r3, [sp, #144]	; 0x90
10002bf0:	079b      	lsls	r3, r3, #30
10002bf2:	d524      	bpl.n	10002c3e <_ftoa+0x296>
10002bf4:	465b      	mov	r3, fp
10002bf6:	9923      	ldr	r1, [sp, #140]	; 0x8c
10002bf8:	1ad3      	subs	r3, r2, r3
10002bfa:	4299      	cmp	r1, r3
10002bfc:	d91f      	bls.n	10002c3e <_ftoa+0x296>
10002bfe:	002e      	movs	r6, r5
10002c00:	46d0      	mov	r8, sl
10002c02:	464f      	mov	r7, r9
10002c04:	000d      	movs	r5, r1
10002c06:	4643      	mov	r3, r8
10002c08:	0039      	movs	r1, r7
10002c0a:	2020      	movs	r0, #32
10002c0c:	1c54      	adds	r4, r2, #1
10002c0e:	47b0      	blx	r6
10002c10:	465b      	mov	r3, fp
10002c12:	0022      	movs	r2, r4
10002c14:	1ae3      	subs	r3, r4, r3
10002c16:	429d      	cmp	r5, r3
10002c18:	d8f5      	bhi.n	10002c06 <_ftoa+0x25e>
10002c1a:	e010      	b.n	10002c3e <_ftoa+0x296>
10002c1c:	9b24      	ldr	r3, [sp, #144]	; 0x90
10002c1e:	465a      	mov	r2, fp
10002c20:	9304      	str	r3, [sp, #16]
10002c22:	9b23      	ldr	r3, [sp, #140]	; 0x8c
10002c24:	0031      	movs	r1, r6
10002c26:	9303      	str	r3, [sp, #12]
10002c28:	9b22      	ldr	r3, [sp, #136]	; 0x88
10002c2a:	0028      	movs	r0, r5
10002c2c:	9302      	str	r3, [sp, #8]
10002c2e:	9b20      	ldr	r3, [sp, #128]	; 0x80
10002c30:	9c21      	ldr	r4, [sp, #132]	; 0x84
10002c32:	9300      	str	r3, [sp, #0]
10002c34:	9401      	str	r4, [sp, #4]
10002c36:	003b      	movs	r3, r7
10002c38:	f7ff fc00 	bl	1000243c <_etoa.part.0>
10002c3c:	0002      	movs	r2, r0
10002c3e:	0010      	movs	r0, r2
10002c40:	b017      	add	sp, #92	; 0x5c
10002c42:	bc3c      	pop	{r2, r3, r4, r5}
10002c44:	4690      	mov	r8, r2
10002c46:	4699      	mov	r9, r3
10002c48:	46a2      	mov	sl, r4
10002c4a:	46ab      	mov	fp, r5
10002c4c:	bdf0      	pop	{r4, r5, r6, r7, pc}
10002c4e:	9b24      	ldr	r3, [sp, #144]	; 0x90
10002c50:	46d8      	mov	r8, fp
10002c52:	079b      	lsls	r3, r3, #30
10002c54:	d118      	bne.n	10002c88 <_ftoa+0x2e0>
10002c56:	9b23      	ldr	r3, [sp, #140]	; 0x8c
10002c58:	2b04      	cmp	r3, #4
10002c5a:	d915      	bls.n	10002c88 <_ftoa+0x2e0>
10002c5c:	465b      	mov	r3, fp
10002c5e:	1f1c      	subs	r4, r3, #4
10002c60:	9b23      	ldr	r3, [sp, #140]	; 0x8c
10002c62:	46b8      	mov	r8, r7
10002c64:	469c      	mov	ip, r3
10002c66:	4464      	add	r4, ip
10002c68:	0037      	movs	r7, r6
10002c6a:	465a      	mov	r2, fp
10002c6c:	002e      	movs	r6, r5
10002c6e:	0025      	movs	r5, r4
10002c70:	1c54      	adds	r4, r2, #1
10002c72:	4643      	mov	r3, r8
10002c74:	0039      	movs	r1, r7
10002c76:	2020      	movs	r0, #32
10002c78:	47b0      	blx	r6
10002c7a:	0022      	movs	r2, r4
10002c7c:	42ac      	cmp	r4, r5
10002c7e:	d1f7      	bne.n	10002c70 <_ftoa+0x2c8>
10002c80:	0035      	movs	r5, r6
10002c82:	003e      	movs	r6, r7
10002c84:	4647      	mov	r7, r8
10002c86:	46a0      	mov	r8, r4
10002c88:	4b1f      	ldr	r3, [pc, #124]	; (10002d08 <_ftoa+0x360>)
10002c8a:	46b9      	mov	r9, r7
10002c8c:	4642      	mov	r2, r8
10002c8e:	0037      	movs	r7, r6
10002c90:	2404      	movs	r4, #4
10002c92:	469a      	mov	sl, r3
10002c94:	002e      	movs	r6, r5
10002c96:	4653      	mov	r3, sl
10002c98:	3c01      	subs	r4, #1
10002c9a:	1c55      	adds	r5, r2, #1
10002c9c:	5d18      	ldrb	r0, [r3, r4]
10002c9e:	0039      	movs	r1, r7
10002ca0:	464b      	mov	r3, r9
10002ca2:	47b0      	blx	r6
10002ca4:	002a      	movs	r2, r5
10002ca6:	2c00      	cmp	r4, #0
10002ca8:	d1f5      	bne.n	10002c96 <_ftoa+0x2ee>
10002caa:	4642      	mov	r2, r8
10002cac:	9b24      	ldr	r3, [sp, #144]	; 0x90
10002cae:	0035      	movs	r5, r6
10002cb0:	3204      	adds	r2, #4
10002cb2:	003e      	movs	r6, r7
10002cb4:	079b      	lsls	r3, r3, #30
10002cb6:	d5c2      	bpl.n	10002c3e <_ftoa+0x296>
10002cb8:	465b      	mov	r3, fp
10002cba:	9923      	ldr	r1, [sp, #140]	; 0x8c
10002cbc:	1ad3      	subs	r3, r2, r3
10002cbe:	4299      	cmp	r1, r3
10002cc0:	d9bd      	bls.n	10002c3e <_ftoa+0x296>
10002cc2:	0037      	movs	r7, r6
10002cc4:	46c8      	mov	r8, r9
10002cc6:	002e      	movs	r6, r5
10002cc8:	000d      	movs	r5, r1
10002cca:	4643      	mov	r3, r8
10002ccc:	0039      	movs	r1, r7
10002cce:	2020      	movs	r0, #32
10002cd0:	1c54      	adds	r4, r2, #1
10002cd2:	47b0      	blx	r6
10002cd4:	465b      	mov	r3, fp
10002cd6:	0022      	movs	r2, r4
10002cd8:	1ae3      	subs	r3, r4, r3
10002cda:	429d      	cmp	r5, r3
10002cdc:	d8f5      	bhi.n	10002cca <_ftoa+0x322>
10002cde:	e7ae      	b.n	10002c3e <_ftoa+0x296>
10002ce0:	4b0a      	ldr	r3, [pc, #40]	; (10002d0c <_ftoa+0x364>)
10002ce2:	469a      	mov	sl, r3
10002ce4:	2304      	movs	r3, #4
10002ce6:	4698      	mov	r8, r3
10002ce8:	e750      	b.n	10002b8c <_ftoa+0x1e4>
10002cea:	46c0      	nop			; (mov r8, r8)
10002cec:	ffefffff 	.word	0xffefffff
10002cf0:	7fefffff 	.word	0x7fefffff
10002cf4:	41cdcd65 	.word	0x41cdcd65
10002cf8:	c1cdcd65 	.word	0xc1cdcd65
10002cfc:	412e8480 	.word	0x412e8480
10002d00:	3fe00000 	.word	0x3fe00000
10002d04:	1000827c 	.word	0x1000827c
10002d08:	1000826c 	.word	0x1000826c
10002d0c:	10008274 	.word	0x10008274
10002d10:	46a2      	mov	sl, r4
10002d12:	2303      	movs	r3, #3
10002d14:	9a24      	ldr	r2, [sp, #144]	; 0x90
10002d16:	4013      	ands	r3, r2
10002d18:	2b01      	cmp	r3, #1
10002d1a:	d100      	bne.n	10002d1e <_ftoa+0x376>
10002d1c:	e0ce      	b.n	10002ebc <_ftoa+0x514>
10002d1e:	2420      	movs	r4, #32
10002d20:	46d8      	mov	r8, fp
10002d22:	2b00      	cmp	r3, #0
10002d24:	d117      	bne.n	10002d56 <_ftoa+0x3ae>
10002d26:	9b23      	ldr	r3, [sp, #140]	; 0x8c
10002d28:	429c      	cmp	r4, r3
10002d2a:	d214      	bcs.n	10002d56 <_ftoa+0x3ae>
10002d2c:	445b      	add	r3, fp
10002d2e:	1b1b      	subs	r3, r3, r4
10002d30:	46b8      	mov	r8, r7
10002d32:	465a      	mov	r2, fp
10002d34:	0037      	movs	r7, r6
10002d36:	46a1      	mov	r9, r4
10002d38:	002e      	movs	r6, r5
10002d3a:	001d      	movs	r5, r3
10002d3c:	1c54      	adds	r4, r2, #1
10002d3e:	4643      	mov	r3, r8
10002d40:	0039      	movs	r1, r7
10002d42:	2020      	movs	r0, #32
10002d44:	47b0      	blx	r6
10002d46:	0022      	movs	r2, r4
10002d48:	42ac      	cmp	r4, r5
10002d4a:	d1f7      	bne.n	10002d3c <_ftoa+0x394>
10002d4c:	0035      	movs	r5, r6
10002d4e:	003e      	movs	r6, r7
10002d50:	4647      	mov	r7, r8
10002d52:	46a0      	mov	r8, r4
10002d54:	464c      	mov	r4, r9
10002d56:	4643      	mov	r3, r8
10002d58:	4642      	mov	r2, r8
10002d5a:	46a1      	mov	r9, r4
10002d5c:	46b8      	mov	r8, r7
10002d5e:	0037      	movs	r7, r6
10002d60:	002e      	movs	r6, r5
10002d62:	9306      	str	r3, [sp, #24]
10002d64:	4653      	mov	r3, sl
10002d66:	3c01      	subs	r4, #1
10002d68:	1c55      	adds	r5, r2, #1
10002d6a:	5d18      	ldrb	r0, [r3, r4]
10002d6c:	0039      	movs	r1, r7
10002d6e:	4643      	mov	r3, r8
10002d70:	47b0      	blx	r6
10002d72:	002a      	movs	r2, r5
10002d74:	2c00      	cmp	r4, #0
10002d76:	d1f5      	bne.n	10002d64 <_ftoa+0x3bc>
10002d78:	9906      	ldr	r1, [sp, #24]
10002d7a:	464b      	mov	r3, r9
10002d7c:	468c      	mov	ip, r1
10002d7e:	4463      	add	r3, ip
10002d80:	001a      	movs	r2, r3
10002d82:	9b24      	ldr	r3, [sp, #144]	; 0x90
10002d84:	0035      	movs	r5, r6
10002d86:	003e      	movs	r6, r7
10002d88:	079b      	lsls	r3, r3, #30
10002d8a:	d400      	bmi.n	10002d8e <_ftoa+0x3e6>
10002d8c:	e757      	b.n	10002c3e <_ftoa+0x296>
10002d8e:	465b      	mov	r3, fp
10002d90:	9923      	ldr	r1, [sp, #140]	; 0x8c
10002d92:	1ad3      	subs	r3, r2, r3
10002d94:	4299      	cmp	r1, r3
10002d96:	d800      	bhi.n	10002d9a <_ftoa+0x3f2>
10002d98:	e751      	b.n	10002c3e <_ftoa+0x296>
10002d9a:	0037      	movs	r7, r6
10002d9c:	002e      	movs	r6, r5
10002d9e:	000d      	movs	r5, r1
10002da0:	4643      	mov	r3, r8
10002da2:	0039      	movs	r1, r7
10002da4:	2020      	movs	r0, #32
10002da6:	1c54      	adds	r4, r2, #1
10002da8:	47b0      	blx	r6
10002daa:	465b      	mov	r3, fp
10002dac:	0022      	movs	r2, r4
10002dae:	1ae3      	subs	r3, r4, r3
10002db0:	429d      	cmp	r5, r3
10002db2:	d8f5      	bhi.n	10002da0 <_ftoa+0x3f8>
10002db4:	e743      	b.n	10002c3e <_ftoa+0x296>
10002db6:	9b22      	ldr	r3, [sp, #136]	; 0x88
10002db8:	2b09      	cmp	r3, #9
10002dba:	d800      	bhi.n	10002dbe <_ftoa+0x416>
10002dbc:	e15b      	b.n	10003076 <_ftoa+0x6ce>
10002dbe:	ab0e      	add	r3, sp, #56	; 0x38
10002dc0:	469a      	mov	sl, r3
10002dc2:	2330      	movs	r3, #48	; 0x30
10002dc4:	4652      	mov	r2, sl
10002dc6:	7013      	strb	r3, [r2, #0]
10002dc8:	2201      	movs	r2, #1
10002dca:	4690      	mov	r8, r2
10002dcc:	9b22      	ldr	r3, [sp, #136]	; 0x88
10002dce:	322f      	adds	r2, #47	; 0x2f
10002dd0:	1e5c      	subs	r4, r3, #1
10002dd2:	4641      	mov	r1, r8
10002dd4:	3b20      	subs	r3, #32
10002dd6:	4650      	mov	r0, sl
10002dd8:	e005      	b.n	10002de6 <_ftoa+0x43e>
10002dda:	3c01      	subs	r4, #1
10002ddc:	5442      	strb	r2, [r0, r1]
10002dde:	3101      	adds	r1, #1
10002de0:	429c      	cmp	r4, r3
10002de2:	d100      	bne.n	10002de6 <_ftoa+0x43e>
10002de4:	e0ee      	b.n	10002fc4 <_ftoa+0x61c>
10002de6:	2c09      	cmp	r4, #9
10002de8:	d1f7      	bne.n	10002dda <_ftoa+0x432>
10002dea:	2200      	movs	r2, #0
10002dec:	4ba8      	ldr	r3, [pc, #672]	; (10003090 <_ftoa+0x6e8>)
10002dee:	4688      	mov	r8, r1
10002df0:	4682      	mov	sl, r0
10002df2:	9206      	str	r2, [sp, #24]
10002df4:	9307      	str	r3, [sp, #28]
10002df6:	e62a      	b.n	10002a4e <_ftoa+0xa6>
10002df8:	4643      	mov	r3, r8
10002dfa:	2b20      	cmp	r3, #32
10002dfc:	d089      	beq.n	10002d12 <_ftoa+0x36a>
10002dfe:	1e63      	subs	r3, r4, #1
10002e00:	9306      	str	r3, [sp, #24]
10002e02:	2301      	movs	r3, #1
10002e04:	9c0c      	ldr	r4, [sp, #48]	; 0x30
10002e06:	4443      	add	r3, r8
10002e08:	0020      	movs	r0, r4
10002e0a:	210a      	movs	r1, #10
10002e0c:	4699      	mov	r9, r3
10002e0e:	f001 fd67 	bl	100048e0 <__wrap___aeabi_uidiv>
10002e12:	4653      	mov	r3, sl
10002e14:	4642      	mov	r2, r8
10002e16:	3130      	adds	r1, #48	; 0x30
10002e18:	5499      	strb	r1, [r3, r2]
10002e1a:	0020      	movs	r0, r4
10002e1c:	210a      	movs	r1, #10
10002e1e:	f001 fd5f 	bl	100048e0 <__wrap___aeabi_uidiv>
10002e22:	1e04      	subs	r4, r0, #0
10002e24:	d100      	bne.n	10002e28 <_ftoa+0x480>
10002e26:	e122      	b.n	1000306e <_ftoa+0x6c6>
10002e28:	46a8      	mov	r8, r5
10002e2a:	0025      	movs	r5, r4
10002e2c:	464c      	mov	r4, r9
10002e2e:	46b9      	mov	r9, r7
10002e30:	4657      	mov	r7, sl
10002e32:	46b2      	mov	sl, r6
10002e34:	e012      	b.n	10002e5c <_ftoa+0x4b4>
10002e36:	9b06      	ldr	r3, [sp, #24]
10002e38:	0028      	movs	r0, r5
10002e3a:	3b01      	subs	r3, #1
10002e3c:	210a      	movs	r1, #10
10002e3e:	9306      	str	r3, [sp, #24]
10002e40:	f001 fd4e 	bl	100048e0 <__wrap___aeabi_uidiv>
10002e44:	1c66      	adds	r6, r4, #1
10002e46:	3130      	adds	r1, #48	; 0x30
10002e48:	193c      	adds	r4, r7, r4
10002e4a:	7021      	strb	r1, [r4, #0]
10002e4c:	0028      	movs	r0, r5
10002e4e:	210a      	movs	r1, #10
10002e50:	f001 fd46 	bl	100048e0 <__wrap___aeabi_uidiv>
10002e54:	1e05      	subs	r5, r0, #0
10002e56:	d100      	bne.n	10002e5a <_ftoa+0x4b2>
10002e58:	e0cf      	b.n	10002ffa <_ftoa+0x652>
10002e5a:	0034      	movs	r4, r6
10002e5c:	2c20      	cmp	r4, #32
10002e5e:	d1ea      	bne.n	10002e36 <_ftoa+0x48e>
10002e60:	4656      	mov	r6, sl
10002e62:	4645      	mov	r5, r8
10002e64:	46ba      	mov	sl, r7
10002e66:	464f      	mov	r7, r9
10002e68:	e753      	b.n	10002d12 <_ftoa+0x36a>
10002e6a:	2200      	movs	r2, #0
10002e6c:	980a      	ldr	r0, [sp, #40]	; 0x28
10002e6e:	990b      	ldr	r1, [sp, #44]	; 0x2c
10002e70:	4b88      	ldr	r3, [pc, #544]	; (10003094 <_ftoa+0x6ec>)
10002e72:	f001 ffd7 	bl	10004e24 <__wrap___aeabi_dcmplt>
10002e76:	2800      	cmp	r0, #0
10002e78:	d000      	beq.n	10002e7c <_ftoa+0x4d4>
10002e7a:	e61d      	b.n	10002ab8 <_ftoa+0x110>
10002e7c:	9b0c      	ldr	r3, [sp, #48]	; 0x30
10002e7e:	2b00      	cmp	r3, #0
10002e80:	d002      	beq.n	10002e88 <_ftoa+0x4e0>
10002e82:	07db      	lsls	r3, r3, #31
10002e84:	d400      	bmi.n	10002e88 <_ftoa+0x4e0>
10002e86:	e617      	b.n	10002ab8 <_ftoa+0x110>
10002e88:	9b0c      	ldr	r3, [sp, #48]	; 0x30
10002e8a:	3301      	adds	r3, #1
10002e8c:	930c      	str	r3, [sp, #48]	; 0x30
10002e8e:	e613      	b.n	10002ab8 <_ftoa+0x110>
10002e90:	2200      	movs	r2, #0
10002e92:	9806      	ldr	r0, [sp, #24]
10002e94:	9907      	ldr	r1, [sp, #28]
10002e96:	4b7f      	ldr	r3, [pc, #508]	; (10003094 <_ftoa+0x6ec>)
10002e98:	f001 ffd2 	bl	10004e40 <__wrap___aeabi_dcmpgt>
10002e9c:	2800      	cmp	r0, #0
10002e9e:	d000      	beq.n	10002ea2 <_ftoa+0x4fa>
10002ea0:	e620      	b.n	10002ae4 <_ftoa+0x13c>
10002ea2:	2301      	movs	r3, #1
10002ea4:	46a4      	mov	ip, r4
10002ea6:	4023      	ands	r3, r4
10002ea8:	449c      	add	ip, r3
10002eaa:	4663      	mov	r3, ip
10002eac:	9309      	str	r3, [sp, #36]	; 0x24
10002eae:	e619      	b.n	10002ae4 <_ftoa+0x13c>
10002eb0:	9b09      	ldr	r3, [sp, #36]	; 0x24
10002eb2:	3301      	adds	r3, #1
10002eb4:	9309      	str	r3, [sp, #36]	; 0x24
10002eb6:	2300      	movs	r3, #0
10002eb8:	930c      	str	r3, [sp, #48]	; 0x30
10002eba:	e5fd      	b.n	10002ab8 <_ftoa+0x110>
10002ebc:	2320      	movs	r3, #32
10002ebe:	4698      	mov	r8, r3
10002ec0:	9b23      	ldr	r3, [sp, #140]	; 0x8c
10002ec2:	2b00      	cmp	r3, #0
10002ec4:	d100      	bne.n	10002ec8 <_ftoa+0x520>
10002ec6:	e0bf      	b.n	10003048 <_ftoa+0x6a0>
10002ec8:	9b0d      	ldr	r3, [sp, #52]	; 0x34
10002eca:	2b00      	cmp	r3, #0
10002ecc:	d103      	bne.n	10002ed6 <_ftoa+0x52e>
10002ece:	9a24      	ldr	r2, [sp, #144]	; 0x90
10002ed0:	330c      	adds	r3, #12
10002ed2:	4213      	tst	r3, r2
10002ed4:	d002      	beq.n	10002edc <_ftoa+0x534>
10002ed6:	9b23      	ldr	r3, [sp, #140]	; 0x8c
10002ed8:	3b01      	subs	r3, #1
10002eda:	9323      	str	r3, [sp, #140]	; 0x8c
10002edc:	9b23      	ldr	r3, [sp, #140]	; 0x8c
10002ede:	4543      	cmp	r3, r8
10002ee0:	d800      	bhi.n	10002ee4 <_ftoa+0x53c>
10002ee2:	e0b1      	b.n	10003048 <_ftoa+0x6a0>
10002ee4:	4642      	mov	r2, r8
10002ee6:	2330      	movs	r3, #48	; 0x30
10002ee8:	2a20      	cmp	r2, #32
10002eea:	d100      	bne.n	10002eee <_ftoa+0x546>
10002eec:	e0b1      	b.n	10003052 <_ftoa+0x6aa>
10002eee:	4642      	mov	r2, r8
10002ef0:	4650      	mov	r0, sl
10002ef2:	9923      	ldr	r1, [sp, #140]	; 0x8c
10002ef4:	1c54      	adds	r4, r2, #1
10002ef6:	5483      	strb	r3, [r0, r2]
10002ef8:	428c      	cmp	r4, r1
10002efa:	d100      	bne.n	10002efe <_ftoa+0x556>
10002efc:	e0a1      	b.n	10003042 <_ftoa+0x69a>
10002efe:	0022      	movs	r2, r4
10002f00:	2c20      	cmp	r4, #32
10002f02:	d1f7      	bne.n	10002ef4 <_ftoa+0x54c>
10002f04:	2320      	movs	r3, #32
10002f06:	4699      	mov	r9, r3
10002f08:	465b      	mov	r3, fp
10002f0a:	46b8      	mov	r8, r7
10002f0c:	4682      	mov	sl, r0
10002f0e:	0037      	movs	r7, r6
10002f10:	9306      	str	r3, [sp, #24]
10002f12:	465a      	mov	r2, fp
10002f14:	002e      	movs	r6, r5
10002f16:	e725      	b.n	10002d64 <_ftoa+0x3bc>
10002f18:	9a20      	ldr	r2, [sp, #128]	; 0x80
10002f1a:	9b21      	ldr	r3, [sp, #132]	; 0x84
10002f1c:	2000      	movs	r0, #0
10002f1e:	2100      	movs	r1, #0
10002f20:	f001 ff23 	bl	10004d6a <__wrap___aeabi_dsub>
10002f24:	2301      	movs	r3, #1
10002f26:	9020      	str	r0, [sp, #128]	; 0x80
10002f28:	9121      	str	r1, [sp, #132]	; 0x84
10002f2a:	930d      	str	r3, [sp, #52]	; 0x34
10002f2c:	e581      	b.n	10002a32 <_ftoa+0x8a>
10002f2e:	9b24      	ldr	r3, [sp, #144]	; 0x90
10002f30:	46d8      	mov	r8, fp
10002f32:	079b      	lsls	r3, r3, #30
10002f34:	d118      	bne.n	10002f68 <_ftoa+0x5c0>
10002f36:	9b23      	ldr	r3, [sp, #140]	; 0x8c
10002f38:	2b03      	cmp	r3, #3
10002f3a:	d915      	bls.n	10002f68 <_ftoa+0x5c0>
10002f3c:	465b      	mov	r3, fp
10002f3e:	1edc      	subs	r4, r3, #3
10002f40:	9b23      	ldr	r3, [sp, #140]	; 0x8c
10002f42:	46b8      	mov	r8, r7
10002f44:	469c      	mov	ip, r3
10002f46:	4464      	add	r4, ip
10002f48:	0037      	movs	r7, r6
10002f4a:	465a      	mov	r2, fp
10002f4c:	002e      	movs	r6, r5
10002f4e:	0025      	movs	r5, r4
10002f50:	1c54      	adds	r4, r2, #1
10002f52:	4643      	mov	r3, r8
10002f54:	0039      	movs	r1, r7
10002f56:	2020      	movs	r0, #32
10002f58:	47b0      	blx	r6
10002f5a:	0022      	movs	r2, r4
10002f5c:	42ac      	cmp	r4, r5
10002f5e:	d1f7      	bne.n	10002f50 <_ftoa+0x5a8>
10002f60:	0035      	movs	r5, r6
10002f62:	003e      	movs	r6, r7
10002f64:	4647      	mov	r7, r8
10002f66:	46a0      	mov	r8, r4
10002f68:	4b4b      	ldr	r3, [pc, #300]	; (10003098 <_ftoa+0x6f0>)
10002f6a:	46b9      	mov	r9, r7
10002f6c:	4642      	mov	r2, r8
10002f6e:	0037      	movs	r7, r6
10002f70:	2403      	movs	r4, #3
10002f72:	469a      	mov	sl, r3
10002f74:	002e      	movs	r6, r5
10002f76:	4653      	mov	r3, sl
10002f78:	3c01      	subs	r4, #1
10002f7a:	1c55      	adds	r5, r2, #1
10002f7c:	5d18      	ldrb	r0, [r3, r4]
10002f7e:	0039      	movs	r1, r7
10002f80:	464b      	mov	r3, r9
10002f82:	47b0      	blx	r6
10002f84:	002a      	movs	r2, r5
10002f86:	2c00      	cmp	r4, #0
10002f88:	d1f5      	bne.n	10002f76 <_ftoa+0x5ce>
10002f8a:	4642      	mov	r2, r8
10002f8c:	9b24      	ldr	r3, [sp, #144]	; 0x90
10002f8e:	0035      	movs	r5, r6
10002f90:	3203      	adds	r2, #3
10002f92:	003e      	movs	r6, r7
10002f94:	079b      	lsls	r3, r3, #30
10002f96:	d400      	bmi.n	10002f9a <_ftoa+0x5f2>
10002f98:	e651      	b.n	10002c3e <_ftoa+0x296>
10002f9a:	465b      	mov	r3, fp
10002f9c:	9923      	ldr	r1, [sp, #140]	; 0x8c
10002f9e:	1ad3      	subs	r3, r2, r3
10002fa0:	4299      	cmp	r1, r3
10002fa2:	d800      	bhi.n	10002fa6 <_ftoa+0x5fe>
10002fa4:	e64b      	b.n	10002c3e <_ftoa+0x296>
10002fa6:	0037      	movs	r7, r6
10002fa8:	46c8      	mov	r8, r9
10002faa:	002e      	movs	r6, r5
10002fac:	000d      	movs	r5, r1
10002fae:	4643      	mov	r3, r8
10002fb0:	0039      	movs	r1, r7
10002fb2:	2020      	movs	r0, #32
10002fb4:	1c54      	adds	r4, r2, #1
10002fb6:	47b0      	blx	r6
10002fb8:	465b      	mov	r3, fp
10002fba:	0022      	movs	r2, r4
10002fbc:	1ae3      	subs	r3, r4, r3
10002fbe:	429d      	cmp	r5, r3
10002fc0:	d8f5      	bhi.n	10002fae <_ftoa+0x606>
10002fc2:	e63c      	b.n	10002c3e <_ftoa+0x296>
10002fc4:	4b35      	ldr	r3, [pc, #212]	; (1000309c <_ftoa+0x6f4>)
10002fc6:	00e2      	lsls	r2, r4, #3
10002fc8:	189b      	adds	r3, r3, r2
10002fca:	681a      	ldr	r2, [r3, #0]
10002fcc:	685b      	ldr	r3, [r3, #4]
10002fce:	9206      	str	r2, [sp, #24]
10002fd0:	9307      	str	r3, [sp, #28]
10002fd2:	2320      	movs	r3, #32
10002fd4:	4682      	mov	sl, r0
10002fd6:	4698      	mov	r8, r3
10002fd8:	e539      	b.n	10002a4e <_ftoa+0xa6>
10002fda:	9a24      	ldr	r2, [sp, #144]	; 0x90
10002fdc:	0752      	lsls	r2, r2, #29
10002fde:	d53b      	bpl.n	10003058 <_ftoa+0x6b0>
10002fe0:	4642      	mov	r2, r8
10002fe2:	4651      	mov	r1, sl
10002fe4:	1c54      	adds	r4, r2, #1
10002fe6:	4640      	mov	r0, r8
10002fe8:	222b      	movs	r2, #43	; 0x2b
10002fea:	540a      	strb	r2, [r1, r0]
10002fec:	e698      	b.n	10002d20 <_ftoa+0x378>
10002fee:	003b      	movs	r3, r7
10002ff0:	4645      	mov	r5, r8
10002ff2:	4657      	mov	r7, sl
10002ff4:	464e      	mov	r6, r9
10002ff6:	469a      	mov	sl, r3
10002ff8:	e68b      	b.n	10002d12 <_ftoa+0x36a>
10002ffa:	4645      	mov	r5, r8
10002ffc:	46b0      	mov	r8, r6
10002ffe:	4656      	mov	r6, sl
10003000:	46ba      	mov	sl, r7
10003002:	464f      	mov	r7, r9
10003004:	4643      	mov	r3, r8
10003006:	2b20      	cmp	r3, #32
10003008:	d100      	bne.n	1000300c <_ftoa+0x664>
1000300a:	e682      	b.n	10002d12 <_ftoa+0x36a>
1000300c:	9b06      	ldr	r3, [sp, #24]
1000300e:	4640      	mov	r0, r8
10003010:	001a      	movs	r2, r3
10003012:	4442      	add	r2, r8
10003014:	0011      	movs	r1, r2
10003016:	4654      	mov	r4, sl
10003018:	2230      	movs	r2, #48	; 0x30
1000301a:	2b00      	cmp	r3, #0
1000301c:	d029      	beq.n	10003072 <_ftoa+0x6ca>
1000301e:	1c43      	adds	r3, r0, #1
10003020:	5422      	strb	r2, [r4, r0]
10003022:	2b20      	cmp	r3, #32
10003024:	d100      	bne.n	10003028 <_ftoa+0x680>
10003026:	e673      	b.n	10002d10 <_ftoa+0x368>
10003028:	0018      	movs	r0, r3
1000302a:	428b      	cmp	r3, r1
1000302c:	d1f7      	bne.n	1000301e <_ftoa+0x676>
1000302e:	46a2      	mov	sl, r4
10003030:	1c5a      	adds	r2, r3, #1
10003032:	4690      	mov	r8, r2
10003034:	4651      	mov	r1, sl
10003036:	222e      	movs	r2, #46	; 0x2e
10003038:	54ca      	strb	r2, [r1, r3]
1000303a:	e553      	b.n	10002ae4 <_ftoa+0x13c>
1000303c:	465b      	mov	r3, fp
1000303e:	9306      	str	r3, [sp, #24]
10003040:	e5c2      	b.n	10002bc8 <_ftoa+0x220>
10003042:	9b23      	ldr	r3, [sp, #140]	; 0x8c
10003044:	4682      	mov	sl, r0
10003046:	4698      	mov	r8, r3
10003048:	4642      	mov	r2, r8
1000304a:	2301      	movs	r3, #1
1000304c:	2a20      	cmp	r2, #32
1000304e:	d000      	beq.n	10003052 <_ftoa+0x6aa>
10003050:	e589      	b.n	10002b66 <_ftoa+0x1be>
10003052:	2420      	movs	r4, #32
10003054:	46d8      	mov	r8, fp
10003056:	e67e      	b.n	10002d56 <_ftoa+0x3ae>
10003058:	9a24      	ldr	r2, [sp, #144]	; 0x90
1000305a:	4644      	mov	r4, r8
1000305c:	0712      	lsls	r2, r2, #28
1000305e:	d400      	bmi.n	10003062 <_ftoa+0x6ba>
10003060:	e65e      	b.n	10002d20 <_ftoa+0x378>
10003062:	2220      	movs	r2, #32
10003064:	4651      	mov	r1, sl
10003066:	4640      	mov	r0, r8
10003068:	3401      	adds	r4, #1
1000306a:	540a      	strb	r2, [r1, r0]
1000306c:	e658      	b.n	10002d20 <_ftoa+0x378>
1000306e:	46c8      	mov	r8, r9
10003070:	e7c8      	b.n	10003004 <_ftoa+0x65c>
10003072:	4643      	mov	r3, r8
10003074:	e7dc      	b.n	10003030 <_ftoa+0x688>
10003076:	00da      	lsls	r2, r3, #3
10003078:	4b08      	ldr	r3, [pc, #32]	; (1000309c <_ftoa+0x6f4>)
1000307a:	189b      	adds	r3, r3, r2
1000307c:	685c      	ldr	r4, [r3, #4]
1000307e:	681b      	ldr	r3, [r3, #0]
10003080:	9306      	str	r3, [sp, #24]
10003082:	9407      	str	r4, [sp, #28]
10003084:	2300      	movs	r3, #0
10003086:	4698      	mov	r8, r3
10003088:	ab0e      	add	r3, sp, #56	; 0x38
1000308a:	9c22      	ldr	r4, [sp, #136]	; 0x88
1000308c:	469a      	mov	sl, r3
1000308e:	e4de      	b.n	10002a4e <_ftoa+0xa6>
10003090:	41cdcd65 	.word	0x41cdcd65
10003094:	3fe00000 	.word	0x3fe00000
10003098:	10008268 	.word	0x10008268
1000309c:	10008280 	.word	0x10008280

100030a0 <_ftoa.part.1>:
100030a0:	b5f0      	push	{r4, r5, r6, r7, lr}
100030a2:	4657      	mov	r7, sl
100030a4:	464e      	mov	r6, r9
100030a6:	4645      	mov	r5, r8
100030a8:	46de      	mov	lr, fp
100030aa:	b5e0      	push	{r5, r6, r7, lr}
100030ac:	b097      	sub	sp, #92	; 0x5c
100030ae:	9207      	str	r2, [sp, #28]
100030b0:	2201      	movs	r2, #1
100030b2:	0006      	movs	r6, r0
100030b4:	000f      	movs	r7, r1
100030b6:	9820      	ldr	r0, [sp, #128]	; 0x80
100030b8:	9921      	ldr	r1, [sp, #132]	; 0x84
100030ba:	4698      	mov	r8, r3
100030bc:	4252      	negs	r2, r2
100030be:	4bcf      	ldr	r3, [pc, #828]	; (100033fc <_ftoa.part.1+0x35c>)
100030c0:	f001 febe 	bl	10004e40 <__wrap___aeabi_dcmpgt>
100030c4:	2800      	cmp	r0, #0
100030c6:	d04d      	beq.n	10003164 <_ftoa.part.1+0xc4>
100030c8:	9b24      	ldr	r3, [sp, #144]	; 0x90
100030ca:	075b      	lsls	r3, r3, #29
100030cc:	d500      	bpl.n	100030d0 <_ftoa.part.1+0x30>
100030ce:	e141      	b.n	10003354 <_ftoa.part.1+0x2b4>
100030d0:	4bcb      	ldr	r3, [pc, #812]	; (10003400 <_ftoa.part.1+0x360>)
100030d2:	469a      	mov	sl, r3
100030d4:	2303      	movs	r3, #3
100030d6:	469b      	mov	fp, r3
100030d8:	9a07      	ldr	r2, [sp, #28]
100030da:	9b24      	ldr	r3, [sp, #144]	; 0x90
100030dc:	0014      	movs	r4, r2
100030de:	079b      	lsls	r3, r3, #30
100030e0:	d111      	bne.n	10003106 <_ftoa.part.1+0x66>
100030e2:	9b23      	ldr	r3, [sp, #140]	; 0x8c
100030e4:	459b      	cmp	fp, r3
100030e6:	d20e      	bcs.n	10003106 <_ftoa.part.1+0x66>
100030e8:	0019      	movs	r1, r3
100030ea:	0013      	movs	r3, r2
100030ec:	468c      	mov	ip, r1
100030ee:	4463      	add	r3, ip
100030f0:	001d      	movs	r5, r3
100030f2:	465b      	mov	r3, fp
100030f4:	1aed      	subs	r5, r5, r3
100030f6:	1c54      	adds	r4, r2, #1
100030f8:	4643      	mov	r3, r8
100030fa:	0039      	movs	r1, r7
100030fc:	2020      	movs	r0, #32
100030fe:	47b0      	blx	r6
10003100:	0022      	movs	r2, r4
10003102:	42ac      	cmp	r4, r5
10003104:	d1f7      	bne.n	100030f6 <_ftoa.part.1+0x56>
10003106:	46b9      	mov	r9, r7
10003108:	0022      	movs	r2, r4
1000310a:	0037      	movs	r7, r6
1000310c:	465d      	mov	r5, fp
1000310e:	4656      	mov	r6, sl
10003110:	46a2      	mov	sl, r4
10003112:	3d01      	subs	r5, #1
10003114:	1c54      	adds	r4, r2, #1
10003116:	5d70      	ldrb	r0, [r6, r5]
10003118:	4643      	mov	r3, r8
1000311a:	4649      	mov	r1, r9
1000311c:	47b8      	blx	r7
1000311e:	0022      	movs	r2, r4
10003120:	2d00      	cmp	r5, #0
10003122:	d1f6      	bne.n	10003112 <_ftoa.part.1+0x72>
10003124:	4652      	mov	r2, sl
10003126:	9b24      	ldr	r3, [sp, #144]	; 0x90
10003128:	003e      	movs	r6, r7
1000312a:	445a      	add	r2, fp
1000312c:	464f      	mov	r7, r9
1000312e:	079b      	lsls	r3, r3, #30
10003130:	d510      	bpl.n	10003154 <_ftoa.part.1+0xb4>
10003132:	9907      	ldr	r1, [sp, #28]
10003134:	9823      	ldr	r0, [sp, #140]	; 0x8c
10003136:	1a53      	subs	r3, r2, r1
10003138:	4298      	cmp	r0, r3
1000313a:	d90b      	bls.n	10003154 <_ftoa.part.1+0xb4>
1000313c:	4689      	mov	r9, r1
1000313e:	0005      	movs	r5, r0
10003140:	4643      	mov	r3, r8
10003142:	0039      	movs	r1, r7
10003144:	2020      	movs	r0, #32
10003146:	1c54      	adds	r4, r2, #1
10003148:	47b0      	blx	r6
1000314a:	464b      	mov	r3, r9
1000314c:	0022      	movs	r2, r4
1000314e:	1ae3      	subs	r3, r4, r3
10003150:	429d      	cmp	r5, r3
10003152:	d8f5      	bhi.n	10003140 <_ftoa.part.1+0xa0>
10003154:	0010      	movs	r0, r2
10003156:	b017      	add	sp, #92	; 0x5c
10003158:	bc3c      	pop	{r2, r3, r4, r5}
1000315a:	4690      	mov	r8, r2
1000315c:	4699      	mov	r9, r3
1000315e:	46a2      	mov	sl, r4
10003160:	46ab      	mov	fp, r5
10003162:	bdf0      	pop	{r4, r5, r6, r7, pc}
10003164:	2200      	movs	r2, #0
10003166:	9820      	ldr	r0, [sp, #128]	; 0x80
10003168:	9921      	ldr	r1, [sp, #132]	; 0x84
1000316a:	4ba6      	ldr	r3, [pc, #664]	; (10003404 <_ftoa.part.1+0x364>)
1000316c:	f001 fe68 	bl	10004e40 <__wrap___aeabi_dcmpgt>
10003170:	2800      	cmp	r0, #0
10003172:	d000      	beq.n	10003176 <_ftoa.part.1+0xd6>
10003174:	e0f3      	b.n	1000335e <_ftoa.part.1+0x2be>
10003176:	9820      	ldr	r0, [sp, #128]	; 0x80
10003178:	9921      	ldr	r1, [sp, #132]	; 0x84
1000317a:	2200      	movs	r2, #0
1000317c:	4ba2      	ldr	r3, [pc, #648]	; (10003408 <_ftoa.part.1+0x368>)
1000317e:	f001 fe51 	bl	10004e24 <__wrap___aeabi_dcmplt>
10003182:	2800      	cmp	r0, #0
10003184:	d000      	beq.n	10003188 <_ftoa.part.1+0xe8>
10003186:	e0ea      	b.n	1000335e <_ftoa.part.1+0x2be>
10003188:	9820      	ldr	r0, [sp, #128]	; 0x80
1000318a:	9921      	ldr	r1, [sp, #132]	; 0x84
1000318c:	2200      	movs	r2, #0
1000318e:	2300      	movs	r3, #0
10003190:	f001 fe48 	bl	10004e24 <__wrap___aeabi_dcmplt>
10003194:	2800      	cmp	r0, #0
10003196:	d000      	beq.n	1000319a <_ftoa.part.1+0xfa>
10003198:	e192      	b.n	100034c0 <_ftoa.part.1+0x420>
1000319a:	2300      	movs	r3, #0
1000319c:	930d      	str	r3, [sp, #52]	; 0x34
1000319e:	2580      	movs	r5, #128	; 0x80
100031a0:	9b24      	ldr	r3, [sp, #144]	; 0x90
100031a2:	00ed      	lsls	r5, r5, #3
100031a4:	401d      	ands	r5, r3
100031a6:	d000      	beq.n	100031aa <_ftoa.part.1+0x10a>
100031a8:	e117      	b.n	100033da <_ftoa.part.1+0x33a>
100031aa:	2300      	movs	r3, #0
100031ac:	4c97      	ldr	r4, [pc, #604]	; (1000340c <_ftoa.part.1+0x36c>)
100031ae:	9308      	str	r3, [sp, #32]
100031b0:	9409      	str	r4, [sp, #36]	; 0x24
100031b2:	ab0e      	add	r3, sp, #56	; 0x38
100031b4:	2406      	movs	r4, #6
100031b6:	469b      	mov	fp, r3
100031b8:	9820      	ldr	r0, [sp, #128]	; 0x80
100031ba:	9921      	ldr	r1, [sp, #132]	; 0x84
100031bc:	f001 fe70 	bl	10004ea0 <__wrap___aeabi_d2iz>
100031c0:	4681      	mov	r9, r0
100031c2:	900c      	str	r0, [sp, #48]	; 0x30
100031c4:	f001 fe54 	bl	10004e70 <__wrap___aeabi_i2d>
100031c8:	0002      	movs	r2, r0
100031ca:	000b      	movs	r3, r1
100031cc:	9820      	ldr	r0, [sp, #128]	; 0x80
100031ce:	9921      	ldr	r1, [sp, #132]	; 0x84
100031d0:	f001 fdcb 	bl	10004d6a <__wrap___aeabi_dsub>
100031d4:	9a08      	ldr	r2, [sp, #32]
100031d6:	9b09      	ldr	r3, [sp, #36]	; 0x24
100031d8:	f001 fde2 	bl	10004da0 <__wrap___aeabi_dmul>
100031dc:	900a      	str	r0, [sp, #40]	; 0x28
100031de:	910b      	str	r1, [sp, #44]	; 0x2c
100031e0:	f001 fe82 	bl	10004ee8 <__wrap___aeabi_d2uiz>
100031e4:	4682      	mov	sl, r0
100031e6:	f001 fe3f 	bl	10004e68 <__wrap___aeabi_ui2d>
100031ea:	0002      	movs	r2, r0
100031ec:	000b      	movs	r3, r1
100031ee:	980a      	ldr	r0, [sp, #40]	; 0x28
100031f0:	990b      	ldr	r1, [sp, #44]	; 0x2c
100031f2:	f001 fdba 	bl	10004d6a <__wrap___aeabi_dsub>
100031f6:	2200      	movs	r2, #0
100031f8:	4b85      	ldr	r3, [pc, #532]	; (10003410 <_ftoa.part.1+0x370>)
100031fa:	900a      	str	r0, [sp, #40]	; 0x28
100031fc:	910b      	str	r1, [sp, #44]	; 0x2c
100031fe:	f001 fe1f 	bl	10004e40 <__wrap___aeabi_dcmpgt>
10003202:	2800      	cmp	r0, #0
10003204:	d100      	bne.n	10003208 <_ftoa.part.1+0x168>
10003206:	e148      	b.n	1000349a <_ftoa.part.1+0x3fa>
10003208:	2301      	movs	r3, #1
1000320a:	469c      	mov	ip, r3
1000320c:	44e2      	add	sl, ip
1000320e:	4650      	mov	r0, sl
10003210:	f001 fe2a 	bl	10004e68 <__wrap___aeabi_ui2d>
10003214:	9a08      	ldr	r2, [sp, #32]
10003216:	9b09      	ldr	r3, [sp, #36]	; 0x24
10003218:	f001 fe0a 	bl	10004e30 <__wrap___aeabi_dcmpge>
1000321c:	2800      	cmp	r0, #0
1000321e:	d000      	beq.n	10003222 <_ftoa.part.1+0x182>
10003220:	e19c      	b.n	1000355c <_ftoa.part.1+0x4bc>
10003222:	2c00      	cmp	r4, #0
10003224:	d000      	beq.n	10003228 <_ftoa.part.1+0x188>
10003226:	e106      	b.n	10003436 <_ftoa.part.1+0x396>
10003228:	9c0c      	ldr	r4, [sp, #48]	; 0x30
1000322a:	0020      	movs	r0, r4
1000322c:	f001 fe20 	bl	10004e70 <__wrap___aeabi_i2d>
10003230:	0002      	movs	r2, r0
10003232:	000b      	movs	r3, r1
10003234:	9820      	ldr	r0, [sp, #128]	; 0x80
10003236:	9921      	ldr	r1, [sp, #132]	; 0x84
10003238:	f001 fd97 	bl	10004d6a <__wrap___aeabi_dsub>
1000323c:	2200      	movs	r2, #0
1000323e:	4b74      	ldr	r3, [pc, #464]	; (10003410 <_ftoa.part.1+0x370>)
10003240:	9008      	str	r0, [sp, #32]
10003242:	9109      	str	r1, [sp, #36]	; 0x24
10003244:	f001 fdee 	bl	10004e24 <__wrap___aeabi_dcmplt>
10003248:	2800      	cmp	r0, #0
1000324a:	d100      	bne.n	1000324e <_ftoa.part.1+0x1ae>
1000324c:	e176      	b.n	1000353c <_ftoa.part.1+0x49c>
1000324e:	2d20      	cmp	r5, #32
10003250:	d100      	bne.n	10003254 <_ftoa.part.1+0x1b4>
10003252:	e0ba      	b.n	100033ca <_ftoa.part.1+0x32a>
10003254:	9b0c      	ldr	r3, [sp, #48]	; 0x30
10003256:	210a      	movs	r1, #10
10003258:	0018      	movs	r0, r3
1000325a:	4699      	mov	r9, r3
1000325c:	f001 fb14 	bl	10004888 <__wrap___aeabi_idiv>
10003260:	465b      	mov	r3, fp
10003262:	3130      	adds	r1, #48	; 0x30
10003264:	5559      	strb	r1, [r3, r5]
10003266:	4648      	mov	r0, r9
10003268:	210a      	movs	r1, #10
1000326a:	f001 fb0d 	bl	10004888 <__wrap___aeabi_idiv>
1000326e:	1c6c      	adds	r4, r5, #1
10003270:	4681      	mov	r9, r0
10003272:	0025      	movs	r5, r4
10003274:	2800      	cmp	r0, #0
10003276:	d01a      	beq.n	100032ae <_ftoa.part.1+0x20e>
10003278:	464d      	mov	r5, r9
1000327a:	46ba      	mov	sl, r7
1000327c:	46b1      	mov	r9, r6
1000327e:	465f      	mov	r7, fp
10003280:	e000      	b.n	10003284 <_ftoa.part.1+0x1e4>
10003282:	0034      	movs	r4, r6
10003284:	2c20      	cmp	r4, #32
10003286:	d100      	bne.n	1000328a <_ftoa.part.1+0x1ea>
10003288:	e103      	b.n	10003492 <_ftoa.part.1+0x3f2>
1000328a:	0028      	movs	r0, r5
1000328c:	210a      	movs	r1, #10
1000328e:	f001 fafb 	bl	10004888 <__wrap___aeabi_idiv>
10003292:	1c66      	adds	r6, r4, #1
10003294:	3130      	adds	r1, #48	; 0x30
10003296:	193c      	adds	r4, r7, r4
10003298:	7021      	strb	r1, [r4, #0]
1000329a:	0028      	movs	r0, r5
1000329c:	210a      	movs	r1, #10
1000329e:	f001 faf3 	bl	10004888 <__wrap___aeabi_idiv>
100032a2:	1e05      	subs	r5, r0, #0
100032a4:	d1ed      	bne.n	10003282 <_ftoa.part.1+0x1e2>
100032a6:	0035      	movs	r5, r6
100032a8:	46bb      	mov	fp, r7
100032aa:	464e      	mov	r6, r9
100032ac:	4657      	mov	r7, sl
100032ae:	2303      	movs	r3, #3
100032b0:	9a24      	ldr	r2, [sp, #144]	; 0x90
100032b2:	4013      	ands	r3, r2
100032b4:	2b01      	cmp	r3, #1
100032b6:	d100      	bne.n	100032ba <_ftoa.part.1+0x21a>
100032b8:	e10e      	b.n	100034d8 <_ftoa.part.1+0x438>
100032ba:	2420      	movs	r4, #32
100032bc:	2d20      	cmp	r5, #32
100032be:	d00b      	beq.n	100032d8 <_ftoa.part.1+0x238>
100032c0:	9a0d      	ldr	r2, [sp, #52]	; 0x34
100032c2:	2a00      	cmp	r2, #0
100032c4:	d000      	beq.n	100032c8 <_ftoa.part.1+0x228>
100032c6:	e134      	b.n	10003532 <_ftoa.part.1+0x492>
100032c8:	9a24      	ldr	r2, [sp, #144]	; 0x90
100032ca:	0752      	lsls	r2, r2, #29
100032cc:	d400      	bmi.n	100032d0 <_ftoa.part.1+0x230>
100032ce:	e16f      	b.n	100035b0 <_ftoa.part.1+0x510>
100032d0:	222b      	movs	r2, #43	; 0x2b
100032d2:	4659      	mov	r1, fp
100032d4:	1c6c      	adds	r4, r5, #1
100032d6:	554a      	strb	r2, [r1, r5]
100032d8:	9a07      	ldr	r2, [sp, #28]
100032da:	0015      	movs	r5, r2
100032dc:	2b00      	cmp	r3, #0
100032de:	d112      	bne.n	10003306 <_ftoa.part.1+0x266>
100032e0:	9b23      	ldr	r3, [sp, #140]	; 0x8c
100032e2:	429c      	cmp	r4, r3
100032e4:	d20f      	bcs.n	10003306 <_ftoa.part.1+0x266>
100032e6:	0019      	movs	r1, r3
100032e8:	0013      	movs	r3, r2
100032ea:	468c      	mov	ip, r1
100032ec:	4463      	add	r3, ip
100032ee:	1b1b      	subs	r3, r3, r4
100032f0:	46a1      	mov	r9, r4
100032f2:	001c      	movs	r4, r3
100032f4:	1c55      	adds	r5, r2, #1
100032f6:	4643      	mov	r3, r8
100032f8:	0039      	movs	r1, r7
100032fa:	2020      	movs	r0, #32
100032fc:	47b0      	blx	r6
100032fe:	002a      	movs	r2, r5
10003300:	42a5      	cmp	r5, r4
10003302:	d1f7      	bne.n	100032f4 <_ftoa.part.1+0x254>
10003304:	464c      	mov	r4, r9
10003306:	46a2      	mov	sl, r4
10003308:	46a9      	mov	r9, r5
1000330a:	002a      	movs	r2, r5
1000330c:	465b      	mov	r3, fp
1000330e:	3c01      	subs	r4, #1
10003310:	1c55      	adds	r5, r2, #1
10003312:	5d18      	ldrb	r0, [r3, r4]
10003314:	0039      	movs	r1, r7
10003316:	4643      	mov	r3, r8
10003318:	47b0      	blx	r6
1000331a:	002a      	movs	r2, r5
1000331c:	2c00      	cmp	r4, #0
1000331e:	d1f5      	bne.n	1000330c <_ftoa.part.1+0x26c>
10003320:	464b      	mov	r3, r9
10003322:	4453      	add	r3, sl
10003324:	001a      	movs	r2, r3
10003326:	9b24      	ldr	r3, [sp, #144]	; 0x90
10003328:	079b      	lsls	r3, r3, #30
1000332a:	d400      	bmi.n	1000332e <_ftoa.part.1+0x28e>
1000332c:	e712      	b.n	10003154 <_ftoa.part.1+0xb4>
1000332e:	9907      	ldr	r1, [sp, #28]
10003330:	9823      	ldr	r0, [sp, #140]	; 0x8c
10003332:	1a53      	subs	r3, r2, r1
10003334:	4283      	cmp	r3, r0
10003336:	d300      	bcc.n	1000333a <_ftoa.part.1+0x29a>
10003338:	e70c      	b.n	10003154 <_ftoa.part.1+0xb4>
1000333a:	4689      	mov	r9, r1
1000333c:	0005      	movs	r5, r0
1000333e:	4643      	mov	r3, r8
10003340:	0039      	movs	r1, r7
10003342:	2020      	movs	r0, #32
10003344:	1c54      	adds	r4, r2, #1
10003346:	47b0      	blx	r6
10003348:	464b      	mov	r3, r9
1000334a:	0022      	movs	r2, r4
1000334c:	1ae3      	subs	r3, r4, r3
1000334e:	429d      	cmp	r5, r3
10003350:	d8f5      	bhi.n	1000333e <_ftoa.part.1+0x29e>
10003352:	e6ff      	b.n	10003154 <_ftoa.part.1+0xb4>
10003354:	4b2f      	ldr	r3, [pc, #188]	; (10003414 <_ftoa.part.1+0x374>)
10003356:	469a      	mov	sl, r3
10003358:	2304      	movs	r3, #4
1000335a:	469b      	mov	fp, r3
1000335c:	e6bc      	b.n	100030d8 <_ftoa.part.1+0x38>
1000335e:	9a20      	ldr	r2, [sp, #128]	; 0x80
10003360:	9b21      	ldr	r3, [sp, #132]	; 0x84
10003362:	0010      	movs	r0, r2
10003364:	0019      	movs	r1, r3
10003366:	f001 fd70 	bl	10004e4a <__wrap___aeabi_dcmpun>
1000336a:	2800      	cmp	r0, #0
1000336c:	d11a      	bne.n	100033a4 <_ftoa.part.1+0x304>
1000336e:	9820      	ldr	r0, [sp, #128]	; 0x80
10003370:	9921      	ldr	r1, [sp, #132]	; 0x84
10003372:	2201      	movs	r2, #1
10003374:	4b28      	ldr	r3, [pc, #160]	; (10003418 <_ftoa.part.1+0x378>)
10003376:	4252      	negs	r2, r2
10003378:	f001 fd54 	bl	10004e24 <__wrap___aeabi_dcmplt>
1000337c:	2800      	cmp	r0, #0
1000337e:	d111      	bne.n	100033a4 <_ftoa.part.1+0x304>
10003380:	9b24      	ldr	r3, [sp, #144]	; 0x90
10003382:	9a07      	ldr	r2, [sp, #28]
10003384:	9304      	str	r3, [sp, #16]
10003386:	9b23      	ldr	r3, [sp, #140]	; 0x8c
10003388:	0039      	movs	r1, r7
1000338a:	9303      	str	r3, [sp, #12]
1000338c:	9b22      	ldr	r3, [sp, #136]	; 0x88
1000338e:	0030      	movs	r0, r6
10003390:	9302      	str	r3, [sp, #8]
10003392:	9b20      	ldr	r3, [sp, #128]	; 0x80
10003394:	9c21      	ldr	r4, [sp, #132]	; 0x84
10003396:	9300      	str	r3, [sp, #0]
10003398:	9401      	str	r4, [sp, #4]
1000339a:	4643      	mov	r3, r8
1000339c:	f7ff f84e 	bl	1000243c <_etoa.part.0>
100033a0:	0002      	movs	r2, r0
100033a2:	e6d7      	b.n	10003154 <_ftoa.part.1+0xb4>
100033a4:	9b24      	ldr	r3, [sp, #144]	; 0x90
100033a6:	9a07      	ldr	r2, [sp, #28]
100033a8:	9304      	str	r3, [sp, #16]
100033aa:	9b23      	ldr	r3, [sp, #140]	; 0x8c
100033ac:	0039      	movs	r1, r7
100033ae:	9303      	str	r3, [sp, #12]
100033b0:	9b22      	ldr	r3, [sp, #136]	; 0x88
100033b2:	0030      	movs	r0, r6
100033b4:	9302      	str	r3, [sp, #8]
100033b6:	9b20      	ldr	r3, [sp, #128]	; 0x80
100033b8:	9c21      	ldr	r4, [sp, #132]	; 0x84
100033ba:	9300      	str	r3, [sp, #0]
100033bc:	9401      	str	r4, [sp, #4]
100033be:	4643      	mov	r3, r8
100033c0:	f7ff faf2 	bl	100029a8 <_ftoa>
100033c4:	0002      	movs	r2, r0
100033c6:	e6c5      	b.n	10003154 <_ftoa.part.1+0xb4>
100033c8:	4683      	mov	fp, r0
100033ca:	2303      	movs	r3, #3
100033cc:	9a24      	ldr	r2, [sp, #144]	; 0x90
100033ce:	4013      	ands	r3, r2
100033d0:	2b01      	cmp	r3, #1
100033d2:	d100      	bne.n	100033d6 <_ftoa.part.1+0x336>
100033d4:	e07f      	b.n	100034d6 <_ftoa.part.1+0x436>
100033d6:	2420      	movs	r4, #32
100033d8:	e77e      	b.n	100032d8 <_ftoa.part.1+0x238>
100033da:	9b22      	ldr	r3, [sp, #136]	; 0x88
100033dc:	2b09      	cmp	r3, #9
100033de:	d800      	bhi.n	100033e2 <_ftoa.part.1+0x342>
100033e0:	e0f2      	b.n	100035c8 <_ftoa.part.1+0x528>
100033e2:	ab0e      	add	r3, sp, #56	; 0x38
100033e4:	469b      	mov	fp, r3
100033e6:	2330      	movs	r3, #48	; 0x30
100033e8:	465a      	mov	r2, fp
100033ea:	7013      	strb	r3, [r2, #0]
100033ec:	9b22      	ldr	r3, [sp, #136]	; 0x88
100033ee:	2501      	movs	r5, #1
100033f0:	1e5c      	subs	r4, r3, #1
100033f2:	2230      	movs	r2, #48	; 0x30
100033f4:	3b20      	subs	r3, #32
100033f6:	4659      	mov	r1, fp
100033f8:	e015      	b.n	10003426 <_ftoa.part.1+0x386>
100033fa:	46c0      	nop			; (mov r8, r8)
100033fc:	7fefffff 	.word	0x7fefffff
10003400:	1000827c 	.word	0x1000827c
10003404:	41cdcd65 	.word	0x41cdcd65
10003408:	c1cdcd65 	.word	0xc1cdcd65
1000340c:	412e8480 	.word	0x412e8480
10003410:	3fe00000 	.word	0x3fe00000
10003414:	10008274 	.word	0x10008274
10003418:	ffefffff 	.word	0xffefffff
1000341c:	3c01      	subs	r4, #1
1000341e:	554a      	strb	r2, [r1, r5]
10003420:	3501      	adds	r5, #1
10003422:	429c      	cmp	r4, r3
10003424:	d07b      	beq.n	1000351e <_ftoa.part.1+0x47e>
10003426:	2c09      	cmp	r4, #9
10003428:	d1f8      	bne.n	1000341c <_ftoa.part.1+0x37c>
1000342a:	2200      	movs	r2, #0
1000342c:	4b6c      	ldr	r3, [pc, #432]	; (100035e0 <_ftoa.part.1+0x540>)
1000342e:	468b      	mov	fp, r1
10003430:	9208      	str	r2, [sp, #32]
10003432:	9309      	str	r3, [sp, #36]	; 0x24
10003434:	e6c0      	b.n	100031b8 <_ftoa.part.1+0x118>
10003436:	2d20      	cmp	r5, #32
10003438:	d0c7      	beq.n	100033ca <_ftoa.part.1+0x32a>
1000343a:	1c6b      	adds	r3, r5, #1
1000343c:	4650      	mov	r0, sl
1000343e:	210a      	movs	r1, #10
10003440:	4699      	mov	r9, r3
10003442:	f001 fa4d 	bl	100048e0 <__wrap___aeabi_uidiv>
10003446:	465b      	mov	r3, fp
10003448:	3130      	adds	r1, #48	; 0x30
1000344a:	5559      	strb	r1, [r3, r5]
1000344c:	4650      	mov	r0, sl
1000344e:	210a      	movs	r1, #10
10003450:	f001 fa46 	bl	100048e0 <__wrap___aeabi_uidiv>
10003454:	3c01      	subs	r4, #1
10003456:	4682      	mov	sl, r0
10003458:	2800      	cmp	r0, #0
1000345a:	d100      	bne.n	1000345e <_ftoa.part.1+0x3be>
1000345c:	e0b2      	b.n	100035c4 <_ftoa.part.1+0x524>
1000345e:	464b      	mov	r3, r9
10003460:	4655      	mov	r5, sl
10003462:	46b1      	mov	r9, r6
10003464:	46ba      	mov	sl, r7
10003466:	465f      	mov	r7, fp
10003468:	e011      	b.n	1000348e <_ftoa.part.1+0x3ee>
1000346a:	469b      	mov	fp, r3
1000346c:	0028      	movs	r0, r5
1000346e:	210a      	movs	r1, #10
10003470:	1c5e      	adds	r6, r3, #1
10003472:	44bb      	add	fp, r7
10003474:	f001 fa34 	bl	100048e0 <__wrap___aeabi_uidiv>
10003478:	465b      	mov	r3, fp
1000347a:	3130      	adds	r1, #48	; 0x30
1000347c:	7019      	strb	r1, [r3, #0]
1000347e:	0028      	movs	r0, r5
10003480:	210a      	movs	r1, #10
10003482:	f001 fa2d 	bl	100048e0 <__wrap___aeabi_uidiv>
10003486:	3c01      	subs	r4, #1
10003488:	1e05      	subs	r5, r0, #0
1000348a:	d076      	beq.n	1000357a <_ftoa.part.1+0x4da>
1000348c:	0033      	movs	r3, r6
1000348e:	2b20      	cmp	r3, #32
10003490:	d1eb      	bne.n	1000346a <_ftoa.part.1+0x3ca>
10003492:	46bb      	mov	fp, r7
10003494:	464e      	mov	r6, r9
10003496:	4657      	mov	r7, sl
10003498:	e797      	b.n	100033ca <_ftoa.part.1+0x32a>
1000349a:	2200      	movs	r2, #0
1000349c:	980a      	ldr	r0, [sp, #40]	; 0x28
1000349e:	990b      	ldr	r1, [sp, #44]	; 0x2c
100034a0:	4b50      	ldr	r3, [pc, #320]	; (100035e4 <_ftoa.part.1+0x544>)
100034a2:	f001 fcbf 	bl	10004e24 <__wrap___aeabi_dcmplt>
100034a6:	2800      	cmp	r0, #0
100034a8:	d000      	beq.n	100034ac <_ftoa.part.1+0x40c>
100034aa:	e6ba      	b.n	10003222 <_ftoa.part.1+0x182>
100034ac:	4653      	mov	r3, sl
100034ae:	2b00      	cmp	r3, #0
100034b0:	d002      	beq.n	100034b8 <_ftoa.part.1+0x418>
100034b2:	07db      	lsls	r3, r3, #31
100034b4:	d400      	bmi.n	100034b8 <_ftoa.part.1+0x418>
100034b6:	e6b4      	b.n	10003222 <_ftoa.part.1+0x182>
100034b8:	2301      	movs	r3, #1
100034ba:	469c      	mov	ip, r3
100034bc:	44e2      	add	sl, ip
100034be:	e6b0      	b.n	10003222 <_ftoa.part.1+0x182>
100034c0:	9a20      	ldr	r2, [sp, #128]	; 0x80
100034c2:	9b21      	ldr	r3, [sp, #132]	; 0x84
100034c4:	2000      	movs	r0, #0
100034c6:	2100      	movs	r1, #0
100034c8:	f001 fc4f 	bl	10004d6a <__wrap___aeabi_dsub>
100034cc:	2301      	movs	r3, #1
100034ce:	9020      	str	r0, [sp, #128]	; 0x80
100034d0:	9121      	str	r1, [sp, #132]	; 0x84
100034d2:	930d      	str	r3, [sp, #52]	; 0x34
100034d4:	e663      	b.n	1000319e <_ftoa.part.1+0xfe>
100034d6:	2520      	movs	r5, #32
100034d8:	9b23      	ldr	r3, [sp, #140]	; 0x8c
100034da:	2b00      	cmp	r3, #0
100034dc:	d046      	beq.n	1000356c <_ftoa.part.1+0x4cc>
100034de:	9b0d      	ldr	r3, [sp, #52]	; 0x34
100034e0:	2b00      	cmp	r3, #0
100034e2:	d103      	bne.n	100034ec <_ftoa.part.1+0x44c>
100034e4:	9a24      	ldr	r2, [sp, #144]	; 0x90
100034e6:	330c      	adds	r3, #12
100034e8:	4213      	tst	r3, r2
100034ea:	d002      	beq.n	100034f2 <_ftoa.part.1+0x452>
100034ec:	9b23      	ldr	r3, [sp, #140]	; 0x8c
100034ee:	3b01      	subs	r3, #1
100034f0:	9323      	str	r3, [sp, #140]	; 0x8c
100034f2:	9b23      	ldr	r3, [sp, #140]	; 0x8c
100034f4:	42ab      	cmp	r3, r5
100034f6:	d939      	bls.n	1000356c <_ftoa.part.1+0x4cc>
100034f8:	2330      	movs	r3, #48	; 0x30
100034fa:	2d20      	cmp	r5, #32
100034fc:	d03a      	beq.n	10003574 <_ftoa.part.1+0x4d4>
100034fe:	4659      	mov	r1, fp
10003500:	9a23      	ldr	r2, [sp, #140]	; 0x8c
10003502:	1c6c      	adds	r4, r5, #1
10003504:	554b      	strb	r3, [r1, r5]
10003506:	4294      	cmp	r4, r2
10003508:	d02e      	beq.n	10003568 <_ftoa.part.1+0x4c8>
1000350a:	0025      	movs	r5, r4
1000350c:	2c20      	cmp	r4, #32
1000350e:	d1f8      	bne.n	10003502 <_ftoa.part.1+0x462>
10003510:	2320      	movs	r3, #32
10003512:	9d07      	ldr	r5, [sp, #28]
10003514:	468b      	mov	fp, r1
10003516:	469a      	mov	sl, r3
10003518:	46a9      	mov	r9, r5
1000351a:	002a      	movs	r2, r5
1000351c:	e6f6      	b.n	1000330c <_ftoa.part.1+0x26c>
1000351e:	4b32      	ldr	r3, [pc, #200]	; (100035e8 <_ftoa.part.1+0x548>)
10003520:	00e2      	lsls	r2, r4, #3
10003522:	189b      	adds	r3, r3, r2
10003524:	681a      	ldr	r2, [r3, #0]
10003526:	685b      	ldr	r3, [r3, #4]
10003528:	468b      	mov	fp, r1
1000352a:	9208      	str	r2, [sp, #32]
1000352c:	9309      	str	r3, [sp, #36]	; 0x24
1000352e:	2520      	movs	r5, #32
10003530:	e642      	b.n	100031b8 <_ftoa.part.1+0x118>
10003532:	222d      	movs	r2, #45	; 0x2d
10003534:	4659      	mov	r1, fp
10003536:	1c6c      	adds	r4, r5, #1
10003538:	554a      	strb	r2, [r1, r5]
1000353a:	e6cd      	b.n	100032d8 <_ftoa.part.1+0x238>
1000353c:	2200      	movs	r2, #0
1000353e:	9808      	ldr	r0, [sp, #32]
10003540:	9909      	ldr	r1, [sp, #36]	; 0x24
10003542:	4b28      	ldr	r3, [pc, #160]	; (100035e4 <_ftoa.part.1+0x544>)
10003544:	f001 fc7c 	bl	10004e40 <__wrap___aeabi_dcmpgt>
10003548:	2800      	cmp	r0, #0
1000354a:	d000      	beq.n	1000354e <_ftoa.part.1+0x4ae>
1000354c:	e67f      	b.n	1000324e <_ftoa.part.1+0x1ae>
1000354e:	2301      	movs	r3, #1
10003550:	46a4      	mov	ip, r4
10003552:	4023      	ands	r3, r4
10003554:	449c      	add	ip, r3
10003556:	4663      	mov	r3, ip
10003558:	930c      	str	r3, [sp, #48]	; 0x30
1000355a:	e678      	b.n	1000324e <_ftoa.part.1+0x1ae>
1000355c:	464b      	mov	r3, r9
1000355e:	3301      	adds	r3, #1
10003560:	930c      	str	r3, [sp, #48]	; 0x30
10003562:	2300      	movs	r3, #0
10003564:	469a      	mov	sl, r3
10003566:	e65c      	b.n	10003222 <_ftoa.part.1+0x182>
10003568:	468b      	mov	fp, r1
1000356a:	9d23      	ldr	r5, [sp, #140]	; 0x8c
1000356c:	2301      	movs	r3, #1
1000356e:	2d20      	cmp	r5, #32
10003570:	d000      	beq.n	10003574 <_ftoa.part.1+0x4d4>
10003572:	e6a5      	b.n	100032c0 <_ftoa.part.1+0x220>
10003574:	2420      	movs	r4, #32
10003576:	9d07      	ldr	r5, [sp, #28]
10003578:	e6c5      	b.n	10003306 <_ftoa.part.1+0x266>
1000357a:	0035      	movs	r5, r6
1000357c:	46bb      	mov	fp, r7
1000357e:	464e      	mov	r6, r9
10003580:	4657      	mov	r7, sl
10003582:	2d20      	cmp	r5, #32
10003584:	d100      	bne.n	10003588 <_ftoa.part.1+0x4e8>
10003586:	e720      	b.n	100033ca <_ftoa.part.1+0x32a>
10003588:	1961      	adds	r1, r4, r5
1000358a:	2230      	movs	r2, #48	; 0x30
1000358c:	002b      	movs	r3, r5
1000358e:	2c00      	cmp	r4, #0
10003590:	d009      	beq.n	100035a6 <_ftoa.part.1+0x506>
10003592:	4658      	mov	r0, fp
10003594:	1c6b      	adds	r3, r5, #1
10003596:	5542      	strb	r2, [r0, r5]
10003598:	2b20      	cmp	r3, #32
1000359a:	d100      	bne.n	1000359e <_ftoa.part.1+0x4fe>
1000359c:	e714      	b.n	100033c8 <_ftoa.part.1+0x328>
1000359e:	001d      	movs	r5, r3
100035a0:	428b      	cmp	r3, r1
100035a2:	d1f7      	bne.n	10003594 <_ftoa.part.1+0x4f4>
100035a4:	4683      	mov	fp, r0
100035a6:	222e      	movs	r2, #46	; 0x2e
100035a8:	4659      	mov	r1, fp
100035aa:	1c5d      	adds	r5, r3, #1
100035ac:	54ca      	strb	r2, [r1, r3]
100035ae:	e64e      	b.n	1000324e <_ftoa.part.1+0x1ae>
100035b0:	9a24      	ldr	r2, [sp, #144]	; 0x90
100035b2:	002c      	movs	r4, r5
100035b4:	0712      	lsls	r2, r2, #28
100035b6:	d400      	bmi.n	100035ba <_ftoa.part.1+0x51a>
100035b8:	e68e      	b.n	100032d8 <_ftoa.part.1+0x238>
100035ba:	2220      	movs	r2, #32
100035bc:	4659      	mov	r1, fp
100035be:	3401      	adds	r4, #1
100035c0:	554a      	strb	r2, [r1, r5]
100035c2:	e689      	b.n	100032d8 <_ftoa.part.1+0x238>
100035c4:	464d      	mov	r5, r9
100035c6:	e7dc      	b.n	10003582 <_ftoa.part.1+0x4e2>
100035c8:	00da      	lsls	r2, r3, #3
100035ca:	4b07      	ldr	r3, [pc, #28]	; (100035e8 <_ftoa.part.1+0x548>)
100035cc:	2500      	movs	r5, #0
100035ce:	189b      	adds	r3, r3, r2
100035d0:	685c      	ldr	r4, [r3, #4]
100035d2:	681b      	ldr	r3, [r3, #0]
100035d4:	9308      	str	r3, [sp, #32]
100035d6:	9409      	str	r4, [sp, #36]	; 0x24
100035d8:	ab0e      	add	r3, sp, #56	; 0x38
100035da:	9c22      	ldr	r4, [sp, #136]	; 0x88
100035dc:	469b      	mov	fp, r3
100035de:	e5eb      	b.n	100031b8 <_ftoa.part.1+0x118>
100035e0:	41cdcd65 	.word	0x41cdcd65
100035e4:	3fe00000 	.word	0x3fe00000
100035e8:	10008280 	.word	0x10008280

100035ec <_vsnprintf>:
100035ec:	b5f0      	push	{r4, r5, r6, r7, lr}
100035ee:	46de      	mov	lr, fp
100035f0:	4657      	mov	r7, sl
100035f2:	464e      	mov	r6, r9
100035f4:	4645      	mov	r5, r8
100035f6:	b5e0      	push	{r5, r6, r7, lr}
100035f8:	b0a9      	sub	sp, #164	; 0xa4
100035fa:	001e      	movs	r6, r3
100035fc:	9b32      	ldr	r3, [sp, #200]	; 0xc8
100035fe:	4690      	mov	r8, r2
10003600:	930a      	str	r3, [sp, #40]	; 0x28
10003602:	4abf      	ldr	r2, [pc, #764]	; (10003900 <_vsnprintf+0x314>)
10003604:	4bbf      	ldr	r3, [pc, #764]	; (10003904 <_vsnprintf+0x318>)
10003606:	4683      	mov	fp, r0
10003608:	468a      	mov	sl, r1
1000360a:	601a      	str	r2, [r3, #0]
1000360c:	2900      	cmp	r1, #0
1000360e:	d068      	beq.n	100036e2 <_vsnprintf+0xf6>
10003610:	46d1      	mov	r9, sl
10003612:	2500      	movs	r5, #0
10003614:	46da      	mov	sl, fp
10003616:	7830      	ldrb	r0, [r6, #0]
10003618:	2800      	cmp	r0, #0
1000361a:	d00b      	beq.n	10003634 <_vsnprintf+0x48>
1000361c:	3601      	adds	r6, #1
1000361e:	2825      	cmp	r0, #37	; 0x25
10003620:	d01b      	beq.n	1000365a <_vsnprintf+0x6e>
10003622:	002a      	movs	r2, r5
10003624:	4643      	mov	r3, r8
10003626:	4649      	mov	r1, r9
10003628:	47d0      	blx	sl
1000362a:	7830      	ldrb	r0, [r6, #0]
1000362c:	1c6c      	adds	r4, r5, #1
1000362e:	0025      	movs	r5, r4
10003630:	2800      	cmp	r0, #0
10003632:	d1f3      	bne.n	1000361c <_vsnprintf+0x30>
10003634:	46d3      	mov	fp, sl
10003636:	002a      	movs	r2, r5
10003638:	46ca      	mov	sl, r9
1000363a:	4545      	cmp	r5, r8
1000363c:	d301      	bcc.n	10003642 <_vsnprintf+0x56>
1000363e:	4643      	mov	r3, r8
10003640:	1e5a      	subs	r2, r3, #1
10003642:	4643      	mov	r3, r8
10003644:	4651      	mov	r1, sl
10003646:	2000      	movs	r0, #0
10003648:	47d8      	blx	fp
1000364a:	0028      	movs	r0, r5
1000364c:	b029      	add	sp, #164	; 0xa4
1000364e:	bc3c      	pop	{r2, r3, r4, r5}
10003650:	4690      	mov	r8, r2
10003652:	4699      	mov	r9, r3
10003654:	46a2      	mov	sl, r4
10003656:	46ab      	mov	fp, r5
10003658:	bdf0      	pop	{r4, r5, r6, r7, pc}
1000365a:	2310      	movs	r3, #16
1000365c:	7830      	ldrb	r0, [r6, #0]
1000365e:	469b      	mov	fp, r3
10003660:	3b0e      	subs	r3, #14
10003662:	469c      	mov	ip, r3
10003664:	0003      	movs	r3, r0
10003666:	3b20      	subs	r3, #32
10003668:	1c72      	adds	r2, r6, #1
1000366a:	b2db      	uxtb	r3, r3
1000366c:	2700      	movs	r7, #0
1000366e:	4ca6      	ldr	r4, [pc, #664]	; (10003908 <_vsnprintf+0x31c>)
10003670:	0011      	movs	r1, r2
10003672:	2b10      	cmp	r3, #16
10003674:	d80d      	bhi.n	10003692 <_vsnprintf+0xa6>
10003676:	009b      	lsls	r3, r3, #2
10003678:	58e3      	ldr	r3, [r4, r3]
1000367a:	469f      	mov	pc, r3
1000367c:	2301      	movs	r3, #1
1000367e:	0016      	movs	r6, r2
10003680:	431f      	orrs	r7, r3
10003682:	7830      	ldrb	r0, [r6, #0]
10003684:	1c72      	adds	r2, r6, #1
10003686:	0003      	movs	r3, r0
10003688:	3b20      	subs	r3, #32
1000368a:	b2db      	uxtb	r3, r3
1000368c:	0011      	movs	r1, r2
1000368e:	2b10      	cmp	r3, #16
10003690:	d9f1      	bls.n	10003676 <_vsnprintf+0x8a>
10003692:	0003      	movs	r3, r0
10003694:	3b30      	subs	r3, #48	; 0x30
10003696:	2b09      	cmp	r3, #9
10003698:	d800      	bhi.n	1000369c <_vsnprintf+0xb0>
1000369a:	e1ae      	b.n	100039fa <_vsnprintf+0x40e>
1000369c:	2300      	movs	r3, #0
1000369e:	469b      	mov	fp, r3
100036a0:	282a      	cmp	r0, #42	; 0x2a
100036a2:	d100      	bne.n	100036a6 <_vsnprintf+0xba>
100036a4:	e1cf      	b.n	10003a46 <_vsnprintf+0x45a>
100036a6:	2400      	movs	r4, #0
100036a8:	282e      	cmp	r0, #46	; 0x2e
100036aa:	d100      	bne.n	100036ae <_vsnprintf+0xc2>
100036ac:	e1bd      	b.n	10003a2a <_vsnprintf+0x43e>
100036ae:	0003      	movs	r3, r0
100036b0:	3b68      	subs	r3, #104	; 0x68
100036b2:	b2db      	uxtb	r3, r3
100036b4:	2b12      	cmp	r3, #18
100036b6:	d900      	bls.n	100036ba <_vsnprintf+0xce>
100036b8:	e3d3      	b.n	10003e62 <_vsnprintf+0x876>
100036ba:	4a94      	ldr	r2, [pc, #592]	; (1000390c <_vsnprintf+0x320>)
100036bc:	009b      	lsls	r3, r3, #2
100036be:	58d3      	ldr	r3, [r2, r3]
100036c0:	469f      	mov	pc, r3
100036c2:	2304      	movs	r3, #4
100036c4:	0016      	movs	r6, r2
100036c6:	431f      	orrs	r7, r3
100036c8:	e7db      	b.n	10003682 <_vsnprintf+0x96>
100036ca:	4663      	mov	r3, ip
100036cc:	0016      	movs	r6, r2
100036ce:	431f      	orrs	r7, r3
100036d0:	e7d7      	b.n	10003682 <_vsnprintf+0x96>
100036d2:	465b      	mov	r3, fp
100036d4:	0016      	movs	r6, r2
100036d6:	431f      	orrs	r7, r3
100036d8:	e7d3      	b.n	10003682 <_vsnprintf+0x96>
100036da:	2308      	movs	r3, #8
100036dc:	0016      	movs	r6, r2
100036de:	431f      	orrs	r7, r3
100036e0:	e7cf      	b.n	10003682 <_vsnprintf+0x96>
100036e2:	4b8b      	ldr	r3, [pc, #556]	; (10003910 <_vsnprintf+0x324>)
100036e4:	469b      	mov	fp, r3
100036e6:	e793      	b.n	10003610 <_vsnprintf+0x24>
100036e8:	2380      	movs	r3, #128	; 0x80
100036ea:	005b      	lsls	r3, r3, #1
100036ec:	7870      	ldrb	r0, [r6, #1]
100036ee:	431f      	orrs	r7, r3
100036f0:	1c4e      	adds	r6, r1, #1
100036f2:	0003      	movs	r3, r0
100036f4:	3b25      	subs	r3, #37	; 0x25
100036f6:	b2db      	uxtb	r3, r3
100036f8:	2b53      	cmp	r3, #83	; 0x53
100036fa:	d892      	bhi.n	10003622 <_vsnprintf+0x36>
100036fc:	4a85      	ldr	r2, [pc, #532]	; (10003914 <_vsnprintf+0x328>)
100036fe:	009b      	lsls	r3, r3, #2
10003700:	58d3      	ldr	r3, [r2, r3]
10003702:	469f      	mov	pc, r3
10003704:	7870      	ldrb	r0, [r6, #1]
10003706:	286c      	cmp	r0, #108	; 0x6c
10003708:	d101      	bne.n	1000370e <_vsnprintf+0x122>
1000370a:	f000 fcc0 	bl	1000408e <_vsnprintf+0xaa2>
1000370e:	2380      	movs	r3, #128	; 0x80
10003710:	005b      	lsls	r3, r3, #1
10003712:	431f      	orrs	r7, r3
10003714:	1c4e      	adds	r6, r1, #1
10003716:	e7ec      	b.n	100036f2 <_vsnprintf+0x106>
10003718:	2380      	movs	r3, #128	; 0x80
1000371a:	009b      	lsls	r3, r3, #2
1000371c:	7870      	ldrb	r0, [r6, #1]
1000371e:	431f      	orrs	r7, r3
10003720:	1c4e      	adds	r6, r1, #1
10003722:	e7e6      	b.n	100036f2 <_vsnprintf+0x106>
10003724:	7870      	ldrb	r0, [r6, #1]
10003726:	2868      	cmp	r0, #104	; 0x68
10003728:	d101      	bne.n	1000372e <_vsnprintf+0x142>
1000372a:	f000 fd19 	bl	10004160 <_vsnprintf+0xb74>
1000372e:	2380      	movs	r3, #128	; 0x80
10003730:	1c4e      	adds	r6, r1, #1
10003732:	431f      	orrs	r7, r3
10003734:	e7dd      	b.n	100036f2 <_vsnprintf+0x106>
10003736:	2846      	cmp	r0, #70	; 0x46
10003738:	d101      	bne.n	1000373e <_vsnprintf+0x152>
1000373a:	f000 fc58 	bl	10003fee <_vsnprintf+0xa02>
1000373e:	2207      	movs	r2, #7
10003740:	9b0a      	ldr	r3, [sp, #40]	; 0x28
10003742:	9704      	str	r7, [sp, #16]
10003744:	3307      	adds	r3, #7
10003746:	4393      	bics	r3, r2
10003748:	3201      	adds	r2, #1
1000374a:	4694      	mov	ip, r2
1000374c:	449c      	add	ip, r3
1000374e:	4662      	mov	r2, ip
10003750:	920a      	str	r2, [sp, #40]	; 0x28
10003752:	465a      	mov	r2, fp
10003754:	9402      	str	r4, [sp, #8]
10003756:	9203      	str	r2, [sp, #12]
10003758:	685c      	ldr	r4, [r3, #4]
1000375a:	681b      	ldr	r3, [r3, #0]
1000375c:	002a      	movs	r2, r5
1000375e:	9300      	str	r3, [sp, #0]
10003760:	9401      	str	r4, [sp, #4]
10003762:	4649      	mov	r1, r9
10003764:	4643      	mov	r3, r8
10003766:	4650      	mov	r0, sl
10003768:	f7ff f91e 	bl	100029a8 <_ftoa>
1000376c:	0005      	movs	r5, r0
1000376e:	e752      	b.n	10003616 <_vsnprintf+0x2a>
10003770:	002a      	movs	r2, r5
10003772:	1c6c      	adds	r4, r5, #1
10003774:	4643      	mov	r3, r8
10003776:	4649      	mov	r1, r9
10003778:	2025      	movs	r0, #37	; 0x25
1000377a:	47d0      	blx	sl
1000377c:	0025      	movs	r5, r4
1000377e:	e74a      	b.n	10003616 <_vsnprintf+0x2a>
10003780:	9b0a      	ldr	r3, [sp, #40]	; 0x28
10003782:	1d1a      	adds	r2, r3, #4
10003784:	681b      	ldr	r3, [r3, #0]
10003786:	920c      	str	r2, [sp, #48]	; 0x30
10003788:	930a      	str	r3, [sp, #40]	; 0x28
1000378a:	7818      	ldrb	r0, [r3, #0]
1000378c:	2c00      	cmp	r4, #0
1000378e:	d000      	beq.n	10003792 <_vsnprintf+0x1a6>
10003790:	e3ab      	b.n	10003eea <_vsnprintf+0x8fe>
10003792:	2800      	cmp	r0, #0
10003794:	d101      	bne.n	1000379a <_vsnprintf+0x1ae>
10003796:	f000 ffa2 	bl	100046de <_vsnprintf+0x10f2>
1000379a:	2102      	movs	r1, #2
1000379c:	001a      	movs	r2, r3
1000379e:	4249      	negs	r1, r1
100037a0:	2301      	movs	r3, #1
100037a2:	469c      	mov	ip, r3
100037a4:	4643      	mov	r3, r8
100037a6:	9008      	str	r0, [sp, #32]
100037a8:	930b      	str	r3, [sp, #44]	; 0x2c
100037aa:	e007      	b.n	100037bc <_vsnprintf+0x1d0>
100037ac:	980a      	ldr	r0, [sp, #40]	; 0x28
100037ae:	4663      	mov	r3, ip
100037b0:	4680      	mov	r8, r0
100037b2:	1a9b      	subs	r3, r3, r2
100037b4:	4443      	add	r3, r8
100037b6:	185b      	adds	r3, r3, r1
100037b8:	2b00      	cmp	r3, #0
100037ba:	d003      	beq.n	100037c4 <_vsnprintf+0x1d8>
100037bc:	3201      	adds	r2, #1
100037be:	7813      	ldrb	r3, [r2, #0]
100037c0:	2b00      	cmp	r3, #0
100037c2:	d1f3      	bne.n	100037ac <_vsnprintf+0x1c0>
100037c4:	9b0b      	ldr	r3, [sp, #44]	; 0x2c
100037c6:	9808      	ldr	r0, [sp, #32]
100037c8:	4698      	mov	r8, r3
100037ca:	9b0a      	ldr	r3, [sp, #40]	; 0x28
100037cc:	1ad3      	subs	r3, r2, r3
100037ce:	9308      	str	r3, [sp, #32]
100037d0:	2380      	movs	r3, #128	; 0x80
100037d2:	00db      	lsls	r3, r3, #3
100037d4:	403b      	ands	r3, r7
100037d6:	930b      	str	r3, [sp, #44]	; 0x2c
100037d8:	d003      	beq.n	100037e2 <_vsnprintf+0x1f6>
100037da:	9b08      	ldr	r3, [sp, #32]
100037dc:	42a3      	cmp	r3, r4
100037de:	d900      	bls.n	100037e2 <_vsnprintf+0x1f6>
100037e0:	9408      	str	r4, [sp, #32]
100037e2:	2302      	movs	r3, #2
100037e4:	401f      	ands	r7, r3
100037e6:	d101      	bne.n	100037ec <_vsnprintf+0x200>
100037e8:	f000 fcdb 	bl	100041a2 <_vsnprintf+0xbb6>
100037ec:	2800      	cmp	r0, #0
100037ee:	d101      	bne.n	100037f4 <_vsnprintf+0x208>
100037f0:	f000 fcbc 	bl	1000416c <_vsnprintf+0xb80>
100037f4:	9b0b      	ldr	r3, [sp, #44]	; 0x2c
100037f6:	2b00      	cmp	r3, #0
100037f8:	d001      	beq.n	100037fe <_vsnprintf+0x212>
100037fa:	f000 fe62 	bl	100044c2 <_vsnprintf+0xed6>
100037fe:	9b0a      	ldr	r3, [sp, #40]	; 0x28
10003800:	002a      	movs	r2, r5
10003802:	1b5c      	subs	r4, r3, r5
10003804:	0023      	movs	r3, r4
10003806:	4654      	mov	r4, sl
10003808:	46b2      	mov	sl, r6
1000380a:	464e      	mov	r6, r9
1000380c:	46b9      	mov	r9, r7
1000380e:	4647      	mov	r7, r8
10003810:	4698      	mov	r8, r3
10003812:	003b      	movs	r3, r7
10003814:	0031      	movs	r1, r6
10003816:	1c55      	adds	r5, r2, #1
10003818:	47a0      	blx	r4
1000381a:	4643      	mov	r3, r8
1000381c:	5d58      	ldrb	r0, [r3, r5]
1000381e:	002a      	movs	r2, r5
10003820:	2800      	cmp	r0, #0
10003822:	d1f6      	bne.n	10003812 <_vsnprintf+0x226>
10003824:	46b8      	mov	r8, r7
10003826:	464f      	mov	r7, r9
10003828:	46b1      	mov	r9, r6
1000382a:	4656      	mov	r6, sl
1000382c:	46a2      	mov	sl, r4
1000382e:	2f00      	cmp	r7, #0
10003830:	d001      	beq.n	10003836 <_vsnprintf+0x24a>
10003832:	f000 fc9b 	bl	1000416c <_vsnprintf+0xb80>
10003836:	9b0c      	ldr	r3, [sp, #48]	; 0x30
10003838:	930a      	str	r3, [sp, #40]	; 0x28
1000383a:	e6ec      	b.n	10003616 <_vsnprintf+0x2a>
1000383c:	9b0a      	ldr	r3, [sp, #40]	; 0x28
1000383e:	1d1a      	adds	r2, r3, #4
10003840:	681b      	ldr	r3, [r3, #0]
10003842:	4693      	mov	fp, r2
10003844:	2b00      	cmp	r3, #0
10003846:	d100      	bne.n	1000384a <_vsnprintf+0x25e>
10003848:	e342      	b.n	10003ed0 <_vsnprintf+0x8e4>
1000384a:	2221      	movs	r2, #33	; 0x21
1000384c:	4317      	orrs	r7, r2
1000384e:	970a      	str	r7, [sp, #40]	; 0x28
10003850:	200f      	movs	r0, #15
10003852:	a920      	add	r1, sp, #128	; 0x80
10003854:	940b      	str	r4, [sp, #44]	; 0x2c
10003856:	2200      	movs	r2, #0
10003858:	9108      	str	r1, [sp, #32]
1000385a:	4684      	mov	ip, r0
1000385c:	000c      	movs	r4, r1
1000385e:	e002      	b.n	10003866 <_vsnprintf+0x27a>
10003860:	2920      	cmp	r1, #32
10003862:	d00c      	beq.n	1000387e <_vsnprintf+0x292>
10003864:	000a      	movs	r2, r1
10003866:	4661      	mov	r1, ip
10003868:	4019      	ands	r1, r3
1000386a:	b2cf      	uxtb	r7, r1
1000386c:	0038      	movs	r0, r7
1000386e:	3037      	adds	r0, #55	; 0x37
10003870:	2909      	cmp	r1, #9
10003872:	d800      	bhi.n	10003876 <_vsnprintf+0x28a>
10003874:	3807      	subs	r0, #7
10003876:	1c51      	adds	r1, r2, #1
10003878:	54a0      	strb	r0, [r4, r2]
1000387a:	091b      	lsrs	r3, r3, #4
1000387c:	d1f0      	bne.n	10003860 <_vsnprintf+0x274>
1000387e:	9c0b      	ldr	r4, [sp, #44]	; 0x2c
10003880:	9b0a      	ldr	r3, [sp, #40]	; 0x28
10003882:	9101      	str	r1, [sp, #4]
10003884:	9306      	str	r3, [sp, #24]
10003886:	2308      	movs	r3, #8
10003888:	9305      	str	r3, [sp, #20]
1000388a:	3308      	adds	r3, #8
1000388c:	9303      	str	r3, [sp, #12]
1000388e:	2300      	movs	r3, #0
10003890:	9302      	str	r3, [sp, #8]
10003892:	9b08      	ldr	r3, [sp, #32]
10003894:	002a      	movs	r2, r5
10003896:	9300      	str	r3, [sp, #0]
10003898:	9404      	str	r4, [sp, #16]
1000389a:	4643      	mov	r3, r8
1000389c:	4649      	mov	r1, r9
1000389e:	4650      	mov	r0, sl
100038a0:	f7fe fc94 	bl	100021cc <_ntoa_format>
100038a4:	465b      	mov	r3, fp
100038a6:	0005      	movs	r5, r0
100038a8:	930a      	str	r3, [sp, #40]	; 0x28
100038aa:	e6b4      	b.n	10003616 <_vsnprintf+0x2a>
100038ac:	9b0a      	ldr	r3, [sp, #40]	; 0x28
100038ae:	1c6c      	adds	r4, r5, #1
100038b0:	3304      	adds	r3, #4
100038b2:	940b      	str	r4, [sp, #44]	; 0x2c
100038b4:	9308      	str	r3, [sp, #32]
100038b6:	07bb      	lsls	r3, r7, #30
100038b8:	d400      	bmi.n	100038bc <_vsnprintf+0x2d0>
100038ba:	e378      	b.n	10003fae <_vsnprintf+0x9c2>
100038bc:	9b0a      	ldr	r3, [sp, #40]	; 0x28
100038be:	002a      	movs	r2, r5
100038c0:	7818      	ldrb	r0, [r3, #0]
100038c2:	4649      	mov	r1, r9
100038c4:	4643      	mov	r3, r8
100038c6:	47d0      	blx	sl
100038c8:	465b      	mov	r3, fp
100038ca:	445d      	add	r5, fp
100038cc:	2b01      	cmp	r3, #1
100038ce:	d801      	bhi.n	100038d4 <_vsnprintf+0x2e8>
100038d0:	f000 fe7e 	bl	100045d0 <_vsnprintf+0xfe4>
100038d4:	002b      	movs	r3, r5
100038d6:	4657      	mov	r7, sl
100038d8:	464d      	mov	r5, r9
100038da:	46b1      	mov	r9, r6
100038dc:	4646      	mov	r6, r8
100038de:	4698      	mov	r8, r3
100038e0:	9a0b      	ldr	r2, [sp, #44]	; 0x2c
100038e2:	1c54      	adds	r4, r2, #1
100038e4:	0033      	movs	r3, r6
100038e6:	0029      	movs	r1, r5
100038e8:	2020      	movs	r0, #32
100038ea:	47b8      	blx	r7
100038ec:	0022      	movs	r2, r4
100038ee:	4544      	cmp	r4, r8
100038f0:	d1f7      	bne.n	100038e2 <_vsnprintf+0x2f6>
100038f2:	46b0      	mov	r8, r6
100038f4:	46ba      	mov	sl, r7
100038f6:	464e      	mov	r6, r9
100038f8:	46a9      	mov	r9, r5
100038fa:	0025      	movs	r5, r4
100038fc:	e373      	b.n	10003fe6 <_vsnprintf+0x9fa>
100038fe:	46c0      	nop			; (mov r8, r8)
10003900:	100035ed 	.word	0x100035ed
10003904:	20000f6c 	.word	0x20000f6c
10003908:	10008088 	.word	0x10008088
1000390c:	100080cc 	.word	0x100080cc
10003910:	100021ad 	.word	0x100021ad
10003914:	10008118 	.word	0x10008118
10003918:	2878      	cmp	r0, #120	; 0x78
1000391a:	d100      	bne.n	1000391e <_vsnprintf+0x332>
1000391c:	e2ec      	b.n	10003ef8 <_vsnprintf+0x90c>
1000391e:	2858      	cmp	r0, #88	; 0x58
10003920:	d101      	bne.n	10003926 <_vsnprintf+0x33a>
10003922:	f000 fc67 	bl	100041f4 <_vsnprintf+0xc08>
10003926:	286f      	cmp	r0, #111	; 0x6f
10003928:	d101      	bne.n	1000392e <_vsnprintf+0x342>
1000392a:	f000 fd51 	bl	100043d0 <_vsnprintf+0xde4>
1000392e:	2862      	cmp	r0, #98	; 0x62
10003930:	d101      	bne.n	10003936 <_vsnprintf+0x34a>
10003932:	f000 fe4f 	bl	100045d4 <_vsnprintf+0xfe8>
10003936:	2310      	movs	r3, #16
10003938:	003a      	movs	r2, r7
1000393a:	439a      	bics	r2, r3
1000393c:	920b      	str	r2, [sp, #44]	; 0x2c
1000393e:	2869      	cmp	r0, #105	; 0x69
10003940:	d001      	beq.n	10003946 <_vsnprintf+0x35a>
10003942:	f000 ff39 	bl	100047b8 <_vsnprintf+0x11cc>
10003946:	057b      	lsls	r3, r7, #21
10003948:	d501      	bpl.n	1000394e <_vsnprintf+0x362>
1000394a:	f000 fd2b 	bl	100043a4 <_vsnprintf+0xdb8>
1000394e:	2380      	movs	r3, #128	; 0x80
10003950:	009b      	lsls	r3, r3, #2
10003952:	401f      	ands	r7, r3
10003954:	3bf7      	subs	r3, #247	; 0xf7
10003956:	3bff      	subs	r3, #255	; 0xff
10003958:	930c      	str	r3, [sp, #48]	; 0x30
1000395a:	2f00      	cmp	r7, #0
1000395c:	d001      	beq.n	10003962 <_vsnprintf+0x376>
1000395e:	f000 fcc3 	bl	100042e8 <_vsnprintf+0xcfc>
10003962:	2380      	movs	r3, #128	; 0x80
10003964:	9a0b      	ldr	r2, [sp, #44]	; 0x2c
10003966:	005b      	lsls	r3, r3, #1
10003968:	401a      	ands	r2, r3
1000396a:	0013      	movs	r3, r2
1000396c:	4694      	mov	ip, r2
1000396e:	9a0a      	ldr	r2, [sp, #40]	; 0x28
10003970:	3204      	adds	r2, #4
10003972:	920d      	str	r2, [sp, #52]	; 0x34
10003974:	2b00      	cmp	r3, #0
10003976:	d001      	beq.n	1000397c <_vsnprintf+0x390>
10003978:	f000 fdca 	bl	10004510 <_vsnprintf+0xf24>
1000397c:	9b0b      	ldr	r3, [sp, #44]	; 0x2c
1000397e:	065b      	lsls	r3, r3, #25
10003980:	d401      	bmi.n	10003986 <_vsnprintf+0x39a>
10003982:	f000 fdbc 	bl	100044fe <_vsnprintf+0xf12>
10003986:	9b0a      	ldr	r3, [sp, #40]	; 0x28
10003988:	781b      	ldrb	r3, [r3, #0]
1000398a:	17da      	asrs	r2, r3, #31
1000398c:	1898      	adds	r0, r3, r2
1000398e:	4050      	eors	r0, r2
10003990:	0fda      	lsrs	r2, r3, #31
10003992:	920a      	str	r2, [sp, #40]	; 0x28
10003994:	2b00      	cmp	r3, #0
10003996:	d108      	bne.n	100039aa <_vsnprintf+0x3be>
10003998:	9a0b      	ldr	r2, [sp, #44]	; 0x2c
1000399a:	3310      	adds	r3, #16
1000399c:	0011      	movs	r1, r2
1000399e:	4399      	bics	r1, r3
100039a0:	910b      	str	r1, [sp, #44]	; 0x2c
100039a2:	0552      	lsls	r2, r2, #21
100039a4:	d501      	bpl.n	100039aa <_vsnprintf+0x3be>
100039a6:	f000 fea2 	bl	100046ee <_vsnprintf+0x1102>
100039aa:	9b0b      	ldr	r3, [sp, #44]	; 0x2c
100039ac:	2761      	movs	r7, #97	; 0x61
100039ae:	069b      	lsls	r3, r3, #26
100039b0:	d500      	bpl.n	100039b4 <_vsnprintf+0x3c8>
100039b2:	2741      	movs	r7, #65	; 0x41
100039b4:	465a      	mov	r2, fp
100039b6:	ab20      	add	r3, sp, #128	; 0x80
100039b8:	b2ff      	uxtb	r7, r7
100039ba:	950e      	str	r5, [sp, #56]	; 0x38
100039bc:	940f      	str	r4, [sp, #60]	; 0x3c
100039be:	46b3      	mov	fp, r6
100039c0:	9308      	str	r3, [sp, #32]
100039c2:	3f0a      	subs	r7, #10
100039c4:	4664      	mov	r4, ip
100039c6:	9210      	str	r2, [sp, #64]	; 0x40
100039c8:	9d0c      	ldr	r5, [sp, #48]	; 0x30
100039ca:	001e      	movs	r6, r3
100039cc:	e00c      	b.n	100039e8 <_vsnprintf+0x3fc>
100039ce:	3330      	adds	r3, #48	; 0x30
100039d0:	b2db      	uxtb	r3, r3
100039d2:	1c62      	adds	r2, r4, #1
100039d4:	5533      	strb	r3, [r6, r4]
100039d6:	2800      	cmp	r0, #0
100039d8:	d101      	bne.n	100039de <_vsnprintf+0x3f2>
100039da:	f000 fc17 	bl	1000420c <_vsnprintf+0xc20>
100039de:	2a20      	cmp	r2, #32
100039e0:	d101      	bne.n	100039e6 <_vsnprintf+0x3fa>
100039e2:	f000 fc13 	bl	1000420c <_vsnprintf+0xc20>
100039e6:	0014      	movs	r4, r2
100039e8:	0029      	movs	r1, r5
100039ea:	f000 ff79 	bl	100048e0 <__wrap___aeabi_uidiv>
100039ee:	b2cb      	uxtb	r3, r1
100039f0:	2909      	cmp	r1, #9
100039f2:	d9ec      	bls.n	100039ce <_vsnprintf+0x3e2>
100039f4:	19db      	adds	r3, r3, r7
100039f6:	b2db      	uxtb	r3, r3
100039f8:	e7eb      	b.n	100039d2 <_vsnprintf+0x3e6>
100039fa:	2300      	movs	r3, #0
100039fc:	0001      	movs	r1, r0
100039fe:	e001      	b.n	10003a04 <_vsnprintf+0x418>
10003a00:	0016      	movs	r6, r2
10003a02:	3201      	adds	r2, #1
10003a04:	0098      	lsls	r0, r3, #2
10003a06:	18c0      	adds	r0, r0, r3
10003a08:	0040      	lsls	r0, r0, #1
10003a0a:	1840      	adds	r0, r0, r1
10003a0c:	7811      	ldrb	r1, [r2, #0]
10003a0e:	0003      	movs	r3, r0
10003a10:	0008      	movs	r0, r1
10003a12:	3830      	subs	r0, #48	; 0x30
10003a14:	3b30      	subs	r3, #48	; 0x30
10003a16:	2809      	cmp	r0, #9
10003a18:	d9f2      	bls.n	10003a00 <_vsnprintf+0x414>
10003a1a:	0008      	movs	r0, r1
10003a1c:	469b      	mov	fp, r3
10003a1e:	1cb1      	adds	r1, r6, #2
10003a20:	2400      	movs	r4, #0
10003a22:	0016      	movs	r6, r2
10003a24:	282e      	cmp	r0, #46	; 0x2e
10003a26:	d000      	beq.n	10003a2a <_vsnprintf+0x43e>
10003a28:	e641      	b.n	100036ae <_vsnprintf+0xc2>
10003a2a:	2380      	movs	r3, #128	; 0x80
10003a2c:	7870      	ldrb	r0, [r6, #1]
10003a2e:	00db      	lsls	r3, r3, #3
10003a30:	431f      	orrs	r7, r3
10003a32:	0003      	movs	r3, r0
10003a34:	3b30      	subs	r3, #48	; 0x30
10003a36:	2b09      	cmp	r3, #9
10003a38:	d915      	bls.n	10003a66 <_vsnprintf+0x47a>
10003a3a:	282a      	cmp	r0, #42	; 0x2a
10003a3c:	d100      	bne.n	10003a40 <_vsnprintf+0x454>
10003a3e:	e2da      	b.n	10003ff6 <_vsnprintf+0xa0a>
10003a40:	000e      	movs	r6, r1
10003a42:	3101      	adds	r1, #1
10003a44:	e633      	b.n	100036ae <_vsnprintf+0xc2>
10003a46:	990a      	ldr	r1, [sp, #40]	; 0x28
10003a48:	1d0b      	adds	r3, r1, #4
10003a4a:	6809      	ldr	r1, [r1, #0]
10003a4c:	468b      	mov	fp, r1
10003a4e:	2900      	cmp	r1, #0
10003a50:	da04      	bge.n	10003a5c <_vsnprintf+0x470>
10003a52:	2102      	movs	r1, #2
10003a54:	430f      	orrs	r7, r1
10003a56:	4659      	mov	r1, fp
10003a58:	4249      	negs	r1, r1
10003a5a:	468b      	mov	fp, r1
10003a5c:	7870      	ldrb	r0, [r6, #1]
10003a5e:	1cb1      	adds	r1, r6, #2
10003a60:	930a      	str	r3, [sp, #40]	; 0x28
10003a62:	0016      	movs	r6, r2
10003a64:	e61f      	b.n	100036a6 <_vsnprintf+0xba>
10003a66:	0003      	movs	r3, r0
10003a68:	e000      	b.n	10003a6c <_vsnprintf+0x480>
10003a6a:	0031      	movs	r1, r6
10003a6c:	00a0      	lsls	r0, r4, #2
10003a6e:	1900      	adds	r0, r0, r4
10003a70:	0040      	lsls	r0, r0, #1
10003a72:	18c0      	adds	r0, r0, r3
10003a74:	784b      	ldrb	r3, [r1, #1]
10003a76:	3830      	subs	r0, #48	; 0x30
10003a78:	001a      	movs	r2, r3
10003a7a:	3a30      	subs	r2, #48	; 0x30
10003a7c:	1c4e      	adds	r6, r1, #1
10003a7e:	0004      	movs	r4, r0
10003a80:	2a09      	cmp	r2, #9
10003a82:	d9f2      	bls.n	10003a6a <_vsnprintf+0x47e>
10003a84:	0018      	movs	r0, r3
10003a86:	3102      	adds	r1, #2
10003a88:	e611      	b.n	100036ae <_vsnprintf+0xc2>
10003a8a:	2320      	movs	r3, #32
10003a8c:	0002      	movs	r2, r0
10003a8e:	439a      	bics	r2, r3
10003a90:	2a47      	cmp	r2, #71	; 0x47
10003a92:	d102      	bne.n	10003a9a <_vsnprintf+0x4ae>
10003a94:	2380      	movs	r3, #128	; 0x80
10003a96:	011b      	lsls	r3, r3, #4
10003a98:	431f      	orrs	r7, r3
10003a9a:	2302      	movs	r3, #2
10003a9c:	4398      	bics	r0, r3
10003a9e:	2845      	cmp	r0, #69	; 0x45
10003aa0:	d101      	bne.n	10003aa6 <_vsnprintf+0x4ba>
10003aa2:	331e      	adds	r3, #30
10003aa4:	431f      	orrs	r7, r3
10003aa6:	2207      	movs	r2, #7
10003aa8:	9b0a      	ldr	r3, [sp, #40]	; 0x28
10003aaa:	3307      	adds	r3, #7
10003aac:	4393      	bics	r3, r2
10003aae:	3201      	adds	r2, #1
10003ab0:	4694      	mov	ip, r2
10003ab2:	449c      	add	ip, r3
10003ab4:	4662      	mov	r2, ip
10003ab6:	6819      	ldr	r1, [r3, #0]
10003ab8:	6858      	ldr	r0, [r3, #4]
10003aba:	9108      	str	r1, [sp, #32]
10003abc:	9009      	str	r0, [sp, #36]	; 0x24
10003abe:	920a      	str	r2, [sp, #40]	; 0x28
10003ac0:	0003      	movs	r3, r0
10003ac2:	000a      	movs	r2, r1
10003ac4:	910b      	str	r1, [sp, #44]	; 0x2c
10003ac6:	900c      	str	r0, [sp, #48]	; 0x30
10003ac8:	9808      	ldr	r0, [sp, #32]
10003aca:	9909      	ldr	r1, [sp, #36]	; 0x24
10003acc:	f001 f9bd 	bl	10004e4a <__wrap___aeabi_dcmpun>
10003ad0:	2800      	cmp	r0, #0
10003ad2:	d000      	beq.n	10003ad6 <_vsnprintf+0x4ea>
10003ad4:	e29b      	b.n	1000400e <_vsnprintf+0xa22>
10003ad6:	2201      	movs	r2, #1
10003ad8:	4be3      	ldr	r3, [pc, #908]	; (10003e68 <_vsnprintf+0x87c>)
10003ada:	4252      	negs	r2, r2
10003adc:	980b      	ldr	r0, [sp, #44]	; 0x2c
10003ade:	990c      	ldr	r1, [sp, #48]	; 0x30
10003ae0:	f001 f9ae 	bl	10004e40 <__wrap___aeabi_dcmpgt>
10003ae4:	2201      	movs	r2, #1
10003ae6:	4be1      	ldr	r3, [pc, #900]	; (10003e6c <_vsnprintf+0x880>)
10003ae8:	4252      	negs	r2, r2
10003aea:	2800      	cmp	r0, #0
10003aec:	d000      	beq.n	10003af0 <_vsnprintf+0x504>
10003aee:	e2d5      	b.n	1000409c <_vsnprintf+0xab0>
10003af0:	980b      	ldr	r0, [sp, #44]	; 0x2c
10003af2:	990c      	ldr	r1, [sp, #48]	; 0x30
10003af4:	f001 f996 	bl	10004e24 <__wrap___aeabi_dcmplt>
10003af8:	2800      	cmp	r0, #0
10003afa:	d000      	beq.n	10003afe <_vsnprintf+0x512>
10003afc:	e3a2      	b.n	10004244 <_vsnprintf+0xc58>
10003afe:	2200      	movs	r2, #0
10003b00:	2300      	movs	r3, #0
10003b02:	980b      	ldr	r0, [sp, #44]	; 0x2c
10003b04:	990c      	ldr	r1, [sp, #48]	; 0x30
10003b06:	f001 f98d 	bl	10004e24 <__wrap___aeabi_dcmplt>
10003b0a:	2800      	cmp	r0, #0
10003b0c:	d001      	beq.n	10003b12 <_vsnprintf+0x526>
10003b0e:	f000 fd55 	bl	100045bc <_vsnprintf+0xfd0>
10003b12:	9a0b      	ldr	r2, [sp, #44]	; 0x2c
10003b14:	9b0c      	ldr	r3, [sp, #48]	; 0x30
10003b16:	9208      	str	r2, [sp, #32]
10003b18:	930d      	str	r3, [sp, #52]	; 0x34
10003b1a:	2380      	movs	r3, #128	; 0x80
10003b1c:	00db      	lsls	r3, r3, #3
10003b1e:	403b      	ands	r3, r7
10003b20:	9317      	str	r3, [sp, #92]	; 0x5c
10003b22:	d100      	bne.n	10003b26 <_vsnprintf+0x53a>
10003b24:	2406      	movs	r4, #6
10003b26:	2380      	movs	r3, #128	; 0x80
10003b28:	9a0d      	ldr	r2, [sp, #52]	; 0x34
10003b2a:	011b      	lsls	r3, r3, #4
10003b2c:	403b      	ands	r3, r7
10003b2e:	930e      	str	r3, [sp, #56]	; 0x38
10003b30:	0013      	movs	r3, r2
10003b32:	9908      	ldr	r1, [sp, #32]
10003b34:	910f      	str	r1, [sp, #60]	; 0x3c
10003b36:	430b      	orrs	r3, r1
10003b38:	d101      	bne.n	10003b3e <_vsnprintf+0x552>
10003b3a:	f000 fcb6 	bl	100044aa <_vsnprintf+0xebe>
10003b3e:	4bcc      	ldr	r3, [pc, #816]	; (10003e70 <_vsnprintf+0x884>)
10003b40:	0050      	lsls	r0, r2, #1
10003b42:	469c      	mov	ip, r3
10003b44:	0d40      	lsrs	r0, r0, #21
10003b46:	4460      	add	r0, ip
10003b48:	f001 f992 	bl	10004e70 <__wrap___aeabi_i2d>
10003b4c:	4ac9      	ldr	r2, [pc, #804]	; (10003e74 <_vsnprintf+0x888>)
10003b4e:	4bca      	ldr	r3, [pc, #808]	; (10003e78 <_vsnprintf+0x88c>)
10003b50:	f001 f926 	bl	10004da0 <__wrap___aeabi_dmul>
10003b54:	4ac9      	ldr	r2, [pc, #804]	; (10003e7c <_vsnprintf+0x890>)
10003b56:	4bca      	ldr	r3, [pc, #808]	; (10003e80 <_vsnprintf+0x894>)
10003b58:	f001 f910 	bl	10004d7c <__wrap___aeabi_dadd>
10003b5c:	9a0d      	ldr	r2, [sp, #52]	; 0x34
10003b5e:	9010      	str	r0, [sp, #64]	; 0x40
10003b60:	9111      	str	r1, [sp, #68]	; 0x44
10003b62:	0313      	lsls	r3, r2, #12
10003b64:	4ac7      	ldr	r2, [pc, #796]	; (10003e84 <_vsnprintf+0x898>)
10003b66:	990f      	ldr	r1, [sp, #60]	; 0x3c
10003b68:	0b1b      	lsrs	r3, r3, #12
10003b6a:	431a      	orrs	r2, r3
10003b6c:	921b      	str	r2, [sp, #108]	; 0x6c
10003b6e:	911a      	str	r1, [sp, #104]	; 0x68
10003b70:	2200      	movs	r2, #0
10003b72:	981a      	ldr	r0, [sp, #104]	; 0x68
10003b74:	991b      	ldr	r1, [sp, #108]	; 0x6c
10003b76:	4bc4      	ldr	r3, [pc, #784]	; (10003e88 <_vsnprintf+0x89c>)
10003b78:	f001 f8f7 	bl	10004d6a <__wrap___aeabi_dsub>
10003b7c:	4ac3      	ldr	r2, [pc, #780]	; (10003e8c <_vsnprintf+0x8a0>)
10003b7e:	4bc4      	ldr	r3, [pc, #784]	; (10003e90 <_vsnprintf+0x8a4>)
10003b80:	f001 f90e 	bl	10004da0 <__wrap___aeabi_dmul>
10003b84:	0002      	movs	r2, r0
10003b86:	000b      	movs	r3, r1
10003b88:	9810      	ldr	r0, [sp, #64]	; 0x40
10003b8a:	9911      	ldr	r1, [sp, #68]	; 0x44
10003b8c:	f001 f8f6 	bl	10004d7c <__wrap___aeabi_dadd>
10003b90:	f001 f986 	bl	10004ea0 <__wrap___aeabi_d2iz>
10003b94:	900f      	str	r0, [sp, #60]	; 0x3c
10003b96:	f001 f96b 	bl	10004e70 <__wrap___aeabi_i2d>
10003b9a:	4abe      	ldr	r2, [pc, #760]	; (10003e94 <_vsnprintf+0x8a8>)
10003b9c:	4bbe      	ldr	r3, [pc, #760]	; (10003e98 <_vsnprintf+0x8ac>)
10003b9e:	9010      	str	r0, [sp, #64]	; 0x40
10003ba0:	9111      	str	r1, [sp, #68]	; 0x44
10003ba2:	f001 f8fd 	bl	10004da0 <__wrap___aeabi_dmul>
10003ba6:	2200      	movs	r2, #0
10003ba8:	4bbc      	ldr	r3, [pc, #752]	; (10003e9c <_vsnprintf+0x8b0>)
10003baa:	f001 f8e7 	bl	10004d7c <__wrap___aeabi_dadd>
10003bae:	f001 f977 	bl	10004ea0 <__wrap___aeabi_d2iz>
10003bb2:	4abb      	ldr	r2, [pc, #748]	; (10003ea0 <_vsnprintf+0x8b4>)
10003bb4:	4bbb      	ldr	r3, [pc, #748]	; (10003ea4 <_vsnprintf+0x8b8>)
10003bb6:	9016      	str	r0, [sp, #88]	; 0x58
10003bb8:	9810      	ldr	r0, [sp, #64]	; 0x40
10003bba:	9911      	ldr	r1, [sp, #68]	; 0x44
10003bbc:	f001 f8f0 	bl	10004da0 <__wrap___aeabi_dmul>
10003bc0:	9010      	str	r0, [sp, #64]	; 0x40
10003bc2:	9111      	str	r1, [sp, #68]	; 0x44
10003bc4:	9816      	ldr	r0, [sp, #88]	; 0x58
10003bc6:	f001 f953 	bl	10004e70 <__wrap___aeabi_i2d>
10003bca:	4ab7      	ldr	r2, [pc, #732]	; (10003ea8 <_vsnprintf+0x8bc>)
10003bcc:	4bb7      	ldr	r3, [pc, #732]	; (10003eac <_vsnprintf+0x8c0>)
10003bce:	f001 f8e7 	bl	10004da0 <__wrap___aeabi_dmul>
10003bd2:	0002      	movs	r2, r0
10003bd4:	000b      	movs	r3, r1
10003bd6:	9810      	ldr	r0, [sp, #64]	; 0x40
10003bd8:	9911      	ldr	r1, [sp, #68]	; 0x44
10003bda:	f001 f8c6 	bl	10004d6a <__wrap___aeabi_dsub>
10003bde:	0002      	movs	r2, r0
10003be0:	000b      	movs	r3, r1
10003be2:	9010      	str	r0, [sp, #64]	; 0x40
10003be4:	9111      	str	r1, [sp, #68]	; 0x44
10003be6:	f001 f8db 	bl	10004da0 <__wrap___aeabi_dmul>
10003bea:	9014      	str	r0, [sp, #80]	; 0x50
10003bec:	9115      	str	r1, [sp, #84]	; 0x54
10003bee:	9810      	ldr	r0, [sp, #64]	; 0x40
10003bf0:	9911      	ldr	r1, [sp, #68]	; 0x44
10003bf2:	0002      	movs	r2, r0
10003bf4:	000b      	movs	r3, r1
10003bf6:	f001 f8c1 	bl	10004d7c <__wrap___aeabi_dadd>
10003bfa:	2200      	movs	r2, #0
10003bfc:	901e      	str	r0, [sp, #120]	; 0x78
10003bfe:	911f      	str	r1, [sp, #124]	; 0x7c
10003c00:	9814      	ldr	r0, [sp, #80]	; 0x50
10003c02:	9915      	ldr	r1, [sp, #84]	; 0x54
10003c04:	4baa      	ldr	r3, [pc, #680]	; (10003eb0 <_vsnprintf+0x8c4>)
10003c06:	f001 f8c2 	bl	10004d8e <__wrap___aeabi_ddiv>
10003c0a:	2200      	movs	r2, #0
10003c0c:	4ba9      	ldr	r3, [pc, #676]	; (10003eb4 <_vsnprintf+0x8c8>)
10003c0e:	f001 f8b5 	bl	10004d7c <__wrap___aeabi_dadd>
10003c12:	0002      	movs	r2, r0
10003c14:	000b      	movs	r3, r1
10003c16:	9814      	ldr	r0, [sp, #80]	; 0x50
10003c18:	9915      	ldr	r1, [sp, #84]	; 0x54
10003c1a:	f001 f8b8 	bl	10004d8e <__wrap___aeabi_ddiv>
10003c1e:	2200      	movs	r2, #0
10003c20:	4ba5      	ldr	r3, [pc, #660]	; (10003eb8 <_vsnprintf+0x8cc>)
10003c22:	f001 f8ab 	bl	10004d7c <__wrap___aeabi_dadd>
10003c26:	0002      	movs	r2, r0
10003c28:	000b      	movs	r3, r1
10003c2a:	9814      	ldr	r0, [sp, #80]	; 0x50
10003c2c:	9915      	ldr	r1, [sp, #84]	; 0x54
10003c2e:	f001 f8ae 	bl	10004d8e <__wrap___aeabi_ddiv>
10003c32:	9a10      	ldr	r2, [sp, #64]	; 0x40
10003c34:	9b11      	ldr	r3, [sp, #68]	; 0x44
10003c36:	9014      	str	r0, [sp, #80]	; 0x50
10003c38:	9115      	str	r1, [sp, #84]	; 0x54
10003c3a:	2180      	movs	r1, #128	; 0x80
10003c3c:	2000      	movs	r0, #0
10003c3e:	05c9      	lsls	r1, r1, #23
10003c40:	f001 f893 	bl	10004d6a <__wrap___aeabi_dsub>
10003c44:	0002      	movs	r2, r0
10003c46:	000b      	movs	r3, r1
10003c48:	9814      	ldr	r0, [sp, #80]	; 0x50
10003c4a:	9915      	ldr	r1, [sp, #84]	; 0x54
10003c4c:	f001 f896 	bl	10004d7c <__wrap___aeabi_dadd>
10003c50:	0002      	movs	r2, r0
10003c52:	000b      	movs	r3, r1
10003c54:	981e      	ldr	r0, [sp, #120]	; 0x78
10003c56:	991f      	ldr	r1, [sp, #124]	; 0x7c
10003c58:	f001 f899 	bl	10004d8e <__wrap___aeabi_ddiv>
10003c5c:	2200      	movs	r2, #0
10003c5e:	4b89      	ldr	r3, [pc, #548]	; (10003e84 <_vsnprintf+0x898>)
10003c60:	f001 f88c 	bl	10004d7c <__wrap___aeabi_dadd>
10003c64:	9b16      	ldr	r3, [sp, #88]	; 0x58
10003c66:	001a      	movs	r2, r3
10003c68:	4b94      	ldr	r3, [pc, #592]	; (10003ebc <_vsnprintf+0x8d0>)
10003c6a:	469c      	mov	ip, r3
10003c6c:	4462      	add	r2, ip
10003c6e:	0513      	lsls	r3, r2, #20
10003c70:	931d      	str	r3, [sp, #116]	; 0x74
10003c72:	2300      	movs	r3, #0
10003c74:	931c      	str	r3, [sp, #112]	; 0x70
10003c76:	9a1c      	ldr	r2, [sp, #112]	; 0x70
10003c78:	9b1d      	ldr	r3, [sp, #116]	; 0x74
10003c7a:	f001 f891 	bl	10004da0 <__wrap___aeabi_dmul>
10003c7e:	9014      	str	r0, [sp, #80]	; 0x50
10003c80:	0002      	movs	r2, r0
10003c82:	9116      	str	r1, [sp, #88]	; 0x58
10003c84:	000b      	movs	r3, r1
10003c86:	9808      	ldr	r0, [sp, #32]
10003c88:	990d      	ldr	r1, [sp, #52]	; 0x34
10003c8a:	f001 f8cb 	bl	10004e24 <__wrap___aeabi_dcmplt>
10003c8e:	2800      	cmp	r0, #0
10003c90:	d00a      	beq.n	10003ca8 <_vsnprintf+0x6bc>
10003c92:	9b0f      	ldr	r3, [sp, #60]	; 0x3c
10003c94:	9814      	ldr	r0, [sp, #80]	; 0x50
10003c96:	3b01      	subs	r3, #1
10003c98:	930f      	str	r3, [sp, #60]	; 0x3c
10003c9a:	9916      	ldr	r1, [sp, #88]	; 0x58
10003c9c:	2200      	movs	r2, #0
10003c9e:	4b85      	ldr	r3, [pc, #532]	; (10003eb4 <_vsnprintf+0x8c8>)
10003ca0:	f001 f875 	bl	10004d8e <__wrap___aeabi_ddiv>
10003ca4:	9014      	str	r0, [sp, #80]	; 0x50
10003ca6:	9116      	str	r1, [sp, #88]	; 0x58
10003ca8:	23c6      	movs	r3, #198	; 0xc6
10003caa:	9a0f      	ldr	r2, [sp, #60]	; 0x3c
10003cac:	3263      	adds	r2, #99	; 0x63
10003cae:	4293      	cmp	r3, r2
10003cb0:	419b      	sbcs	r3, r3
10003cb2:	425b      	negs	r3, r3
10003cb4:	3304      	adds	r3, #4
10003cb6:	9310      	str	r3, [sp, #64]	; 0x40
10003cb8:	9b0e      	ldr	r3, [sp, #56]	; 0x38
10003cba:	2b00      	cmp	r3, #0
10003cbc:	d01d      	beq.n	10003cfa <_vsnprintf+0x70e>
10003cbe:	9b16      	ldr	r3, [sp, #88]	; 0x58
10003cc0:	9a14      	ldr	r2, [sp, #80]	; 0x50
10003cc2:	4313      	orrs	r3, r2
10003cc4:	d101      	bne.n	10003cca <_vsnprintf+0x6de>
10003cc6:	f000 fcc1 	bl	1000464c <_vsnprintf+0x1060>
10003cca:	4a7d      	ldr	r2, [pc, #500]	; (10003ec0 <_vsnprintf+0x8d4>)
10003ccc:	4b7d      	ldr	r3, [pc, #500]	; (10003ec4 <_vsnprintf+0x8d8>)
10003cce:	9808      	ldr	r0, [sp, #32]
10003cd0:	990d      	ldr	r1, [sp, #52]	; 0x34
10003cd2:	f001 f8ad 	bl	10004e30 <__wrap___aeabi_dcmpge>
10003cd6:	2800      	cmp	r0, #0
10003cd8:	d009      	beq.n	10003cee <_vsnprintf+0x702>
10003cda:	2200      	movs	r2, #0
10003cdc:	4b7a      	ldr	r3, [pc, #488]	; (10003ec8 <_vsnprintf+0x8dc>)
10003cde:	9808      	ldr	r0, [sp, #32]
10003ce0:	990d      	ldr	r1, [sp, #52]	; 0x34
10003ce2:	f001 f89f 	bl	10004e24 <__wrap___aeabi_dcmplt>
10003ce6:	2800      	cmp	r0, #0
10003ce8:	d001      	beq.n	10003cee <_vsnprintf+0x702>
10003cea:	f000 fcaf 	bl	1000464c <_vsnprintf+0x1060>
10003cee:	2c00      	cmp	r4, #0
10003cf0:	d003      	beq.n	10003cfa <_vsnprintf+0x70e>
10003cf2:	9b17      	ldr	r3, [sp, #92]	; 0x5c
10003cf4:	1e5a      	subs	r2, r3, #1
10003cf6:	4193      	sbcs	r3, r2
10003cf8:	1ae4      	subs	r4, r4, r3
10003cfa:	2300      	movs	r3, #0
10003cfc:	930e      	str	r3, [sp, #56]	; 0x38
10003cfe:	9b10      	ldr	r3, [sp, #64]	; 0x40
10003d00:	459b      	cmp	fp, r3
10003d02:	d902      	bls.n	10003d0a <_vsnprintf+0x71e>
10003d04:	465a      	mov	r2, fp
10003d06:	1ad3      	subs	r3, r2, r3
10003d08:	930e      	str	r3, [sp, #56]	; 0x38
10003d0a:	2302      	movs	r3, #2
10003d0c:	403b      	ands	r3, r7
10003d0e:	9317      	str	r3, [sp, #92]	; 0x5c
10003d10:	d006      	beq.n	10003d20 <_vsnprintf+0x734>
10003d12:	9b10      	ldr	r3, [sp, #64]	; 0x40
10003d14:	425a      	negs	r2, r3
10003d16:	4153      	adcs	r3, r2
10003d18:	9a0e      	ldr	r2, [sp, #56]	; 0x38
10003d1a:	425b      	negs	r3, r3
10003d1c:	401a      	ands	r2, r3
10003d1e:	920e      	str	r2, [sp, #56]	; 0x38
10003d20:	9b0f      	ldr	r3, [sp, #60]	; 0x3c
10003d22:	2b00      	cmp	r3, #0
10003d24:	d007      	beq.n	10003d36 <_vsnprintf+0x74a>
10003d26:	9808      	ldr	r0, [sp, #32]
10003d28:	990d      	ldr	r1, [sp, #52]	; 0x34
10003d2a:	9a14      	ldr	r2, [sp, #80]	; 0x50
10003d2c:	9b16      	ldr	r3, [sp, #88]	; 0x58
10003d2e:	f001 f82e 	bl	10004d8e <__wrap___aeabi_ddiv>
10003d32:	9008      	str	r0, [sp, #32]
10003d34:	910d      	str	r1, [sp, #52]	; 0x34
10003d36:	2200      	movs	r2, #0
10003d38:	2300      	movs	r3, #0
10003d3a:	980b      	ldr	r0, [sp, #44]	; 0x2c
10003d3c:	990c      	ldr	r1, [sp, #48]	; 0x30
10003d3e:	f001 f871 	bl	10004e24 <__wrap___aeabi_dcmplt>
10003d42:	2800      	cmp	r0, #0
10003d44:	d005      	beq.n	10003d52 <_vsnprintf+0x766>
10003d46:	2080      	movs	r0, #128	; 0x80
10003d48:	0600      	lsls	r0, r0, #24
10003d4a:	4684      	mov	ip, r0
10003d4c:	990d      	ldr	r1, [sp, #52]	; 0x34
10003d4e:	4461      	add	r1, ip
10003d50:	910d      	str	r1, [sp, #52]	; 0x34
10003d52:	990d      	ldr	r1, [sp, #52]	; 0x34
10003d54:	9a08      	ldr	r2, [sp, #32]
10003d56:	000b      	movs	r3, r1
10003d58:	9808      	ldr	r0, [sp, #32]
10003d5a:	f001 f876 	bl	10004e4a <__wrap___aeabi_dcmpun>
10003d5e:	2800      	cmp	r0, #0
10003d60:	d001      	beq.n	10003d66 <_vsnprintf+0x77a>
10003d62:	f000 fce2 	bl	1000472a <_vsnprintf+0x113e>
10003d66:	2201      	movs	r2, #1
10003d68:	4b40      	ldr	r3, [pc, #256]	; (10003e6c <_vsnprintf+0x880>)
10003d6a:	4252      	negs	r2, r2
10003d6c:	9808      	ldr	r0, [sp, #32]
10003d6e:	990d      	ldr	r1, [sp, #52]	; 0x34
10003d70:	f001 f858 	bl	10004e24 <__wrap___aeabi_dcmplt>
10003d74:	2800      	cmp	r0, #0
10003d76:	d001      	beq.n	10003d7c <_vsnprintf+0x790>
10003d78:	f000 fc75 	bl	10004666 <_vsnprintf+0x107a>
10003d7c:	4b53      	ldr	r3, [pc, #332]	; (10003ecc <_vsnprintf+0x8e0>)
10003d7e:	9a08      	ldr	r2, [sp, #32]
10003d80:	403b      	ands	r3, r7
10003d82:	9304      	str	r3, [sp, #16]
10003d84:	9b0e      	ldr	r3, [sp, #56]	; 0x38
10003d86:	9402      	str	r4, [sp, #8]
10003d88:	9303      	str	r3, [sp, #12]
10003d8a:	9b0d      	ldr	r3, [sp, #52]	; 0x34
10003d8c:	4649      	mov	r1, r9
10003d8e:	9200      	str	r2, [sp, #0]
10003d90:	9301      	str	r3, [sp, #4]
10003d92:	4650      	mov	r0, sl
10003d94:	002a      	movs	r2, r5
10003d96:	4643      	mov	r3, r8
10003d98:	f7ff f982 	bl	100030a0 <_ftoa.part.1>
10003d9c:	0002      	movs	r2, r0
10003d9e:	9b10      	ldr	r3, [sp, #64]	; 0x40
10003da0:	2b00      	cmp	r3, #0
10003da2:	d100      	bne.n	10003da6 <_vsnprintf+0x7ba>
10003da4:	e170      	b.n	10004088 <_vsnprintf+0xa9c>
10003da6:	2020      	movs	r0, #32
10003da8:	4007      	ands	r7, r0
10003daa:	003b      	movs	r3, r7
10003dac:	4259      	negs	r1, r3
10003dae:	414b      	adcs	r3, r1
10003db0:	2700      	movs	r7, #0
10003db2:	425b      	negs	r3, r3
10003db4:	1c51      	adds	r1, r2, #1
10003db6:	4018      	ands	r0, r3
10003db8:	910b      	str	r1, [sp, #44]	; 0x2c
10003dba:	4643      	mov	r3, r8
10003dbc:	4649      	mov	r1, r9
10003dbe:	3045      	adds	r0, #69	; 0x45
10003dc0:	47d0      	blx	sl
10003dc2:	9a0f      	ldr	r2, [sp, #60]	; 0x3c
10003dc4:	9b10      	ldr	r3, [sp, #64]	; 0x40
10003dc6:	17d1      	asrs	r1, r2, #31
10003dc8:	3b01      	subs	r3, #1
10003dca:	1854      	adds	r4, r2, r1
10003dcc:	930d      	str	r3, [sp, #52]	; 0x34
10003dce:	0fd2      	lsrs	r2, r2, #31
10003dd0:	ab20      	add	r3, sp, #128	; 0x80
10003dd2:	950e      	str	r5, [sp, #56]	; 0x38
10003dd4:	404c      	eors	r4, r1
10003dd6:	003d      	movs	r5, r7
10003dd8:	920c      	str	r2, [sp, #48]	; 0x30
10003dda:	9308      	str	r3, [sp, #32]
10003ddc:	960f      	str	r6, [sp, #60]	; 0x3c
10003dde:	001f      	movs	r7, r3
10003de0:	e002      	b.n	10003de8 <_vsnprintf+0x7fc>
10003de2:	0035      	movs	r5, r6
10003de4:	2e20      	cmp	r6, #32
10003de6:	d00d      	beq.n	10003e04 <_vsnprintf+0x818>
10003de8:	0020      	movs	r0, r4
10003dea:	210a      	movs	r1, #10
10003dec:	f000 fd78 	bl	100048e0 <__wrap___aeabi_uidiv>
10003df0:	1c6e      	adds	r6, r5, #1
10003df2:	3130      	adds	r1, #48	; 0x30
10003df4:	197d      	adds	r5, r7, r5
10003df6:	7029      	strb	r1, [r5, #0]
10003df8:	0020      	movs	r0, r4
10003dfa:	210a      	movs	r1, #10
10003dfc:	f000 fd70 	bl	100048e0 <__wrap___aeabi_uidiv>
10003e00:	1e04      	subs	r4, r0, #0
10003e02:	d1ee      	bne.n	10003de2 <_vsnprintf+0x7f6>
10003e04:	2305      	movs	r3, #5
10003e06:	9306      	str	r3, [sp, #24]
10003e08:	9b0d      	ldr	r3, [sp, #52]	; 0x34
10003e0a:	0032      	movs	r2, r6
10003e0c:	9305      	str	r3, [sp, #20]
10003e0e:	2300      	movs	r3, #0
10003e10:	9304      	str	r3, [sp, #16]
10003e12:	330a      	adds	r3, #10
10003e14:	9303      	str	r3, [sp, #12]
10003e16:	9b0c      	ldr	r3, [sp, #48]	; 0x30
10003e18:	9201      	str	r2, [sp, #4]
10003e1a:	9302      	str	r3, [sp, #8]
10003e1c:	9b08      	ldr	r3, [sp, #32]
10003e1e:	9a0b      	ldr	r2, [sp, #44]	; 0x2c
10003e20:	9300      	str	r3, [sp, #0]
10003e22:	4649      	mov	r1, r9
10003e24:	4643      	mov	r3, r8
10003e26:	4650      	mov	r0, sl
10003e28:	9d0e      	ldr	r5, [sp, #56]	; 0x38
10003e2a:	9e0f      	ldr	r6, [sp, #60]	; 0x3c
10003e2c:	f7fe f9ce 	bl	100021cc <_ntoa_format>
10003e30:	9b17      	ldr	r3, [sp, #92]	; 0x5c
10003e32:	0002      	movs	r2, r0
10003e34:	2b00      	cmp	r3, #0
10003e36:	d100      	bne.n	10003e3a <_vsnprintf+0x84e>
10003e38:	e126      	b.n	10004088 <_vsnprintf+0xa9c>
10003e3a:	1b43      	subs	r3, r0, r5
10003e3c:	459b      	cmp	fp, r3
10003e3e:	d800      	bhi.n	10003e42 <_vsnprintf+0x856>
10003e40:	e122      	b.n	10004088 <_vsnprintf+0xa9c>
10003e42:	465c      	mov	r4, fp
10003e44:	4657      	mov	r7, sl
10003e46:	1c53      	adds	r3, r2, #1
10003e48:	469a      	mov	sl, r3
10003e4a:	4649      	mov	r1, r9
10003e4c:	4643      	mov	r3, r8
10003e4e:	2020      	movs	r0, #32
10003e50:	47b8      	blx	r7
10003e52:	4652      	mov	r2, sl
10003e54:	1b53      	subs	r3, r2, r5
10003e56:	429c      	cmp	r4, r3
10003e58:	d8f5      	bhi.n	10003e46 <_vsnprintf+0x85a>
10003e5a:	46ba      	mov	sl, r7
10003e5c:	0015      	movs	r5, r2
10003e5e:	f7ff fbda 	bl	10003616 <_vsnprintf+0x2a>
10003e62:	000e      	movs	r6, r1
10003e64:	e445      	b.n	100036f2 <_vsnprintf+0x106>
10003e66:	46c0      	nop			; (mov r8, r8)
10003e68:	7fefffff 	.word	0x7fefffff
10003e6c:	ffefffff 	.word	0xffefffff
10003e70:	fffffc01 	.word	0xfffffc01
10003e74:	509f79fb 	.word	0x509f79fb
10003e78:	3fd34413 	.word	0x3fd34413
10003e7c:	8b60c8b3 	.word	0x8b60c8b3
10003e80:	3fc68a28 	.word	0x3fc68a28
10003e84:	3ff00000 	.word	0x3ff00000
10003e88:	3ff80000 	.word	0x3ff80000
10003e8c:	636f4361 	.word	0x636f4361
10003e90:	3fd287a7 	.word	0x3fd287a7
10003e94:	0979a371 	.word	0x0979a371
10003e98:	400a934f 	.word	0x400a934f
10003e9c:	3fe00000 	.word	0x3fe00000
10003ea0:	bbb55516 	.word	0xbbb55516
10003ea4:	40026bb1 	.word	0x40026bb1
10003ea8:	fefa39ef 	.word	0xfefa39ef
10003eac:	3fe62e42 	.word	0x3fe62e42
10003eb0:	402c0000 	.word	0x402c0000
10003eb4:	40240000 	.word	0x40240000
10003eb8:	40180000 	.word	0x40180000
10003ebc:	000003ff 	.word	0x000003ff
10003ec0:	eb1c432d 	.word	0xeb1c432d
10003ec4:	3f1a36e2 	.word	0x3f1a36e2
10003ec8:	412e8480 	.word	0x412e8480
10003ecc:	fffff7ff 	.word	0xfffff7ff
10003ed0:	2210      	movs	r2, #16
10003ed2:	0039      	movs	r1, r7
10003ed4:	4391      	bics	r1, r2
10003ed6:	3211      	adds	r2, #17
10003ed8:	4311      	orrs	r1, r2
10003eda:	910a      	str	r1, [sp, #40]	; 0x28
10003edc:	057a      	lsls	r2, r7, #21
10003ede:	d400      	bmi.n	10003ee2 <_vsnprintf+0x8f6>
10003ee0:	e4b6      	b.n	10003850 <_vsnprintf+0x264>
10003ee2:	ab20      	add	r3, sp, #128	; 0x80
10003ee4:	2100      	movs	r1, #0
10003ee6:	9308      	str	r3, [sp, #32]
10003ee8:	e4ca      	b.n	10003880 <_vsnprintf+0x294>
10003eea:	2800      	cmp	r0, #0
10003eec:	d101      	bne.n	10003ef2 <_vsnprintf+0x906>
10003eee:	f000 fbf6 	bl	100046de <_vsnprintf+0x10f2>
10003ef2:	1e61      	subs	r1, r4, #1
10003ef4:	001a      	movs	r2, r3
10003ef6:	e453      	b.n	100037a0 <_vsnprintf+0x1b4>
10003ef8:	2380      	movs	r3, #128	; 0x80
10003efa:	2210      	movs	r2, #16
10003efc:	00db      	lsls	r3, r3, #3
10003efe:	403b      	ands	r3, r7
10003f00:	920c      	str	r2, [sp, #48]	; 0x30
10003f02:	220c      	movs	r2, #12
10003f04:	4397      	bics	r7, r2
10003f06:	970b      	str	r7, [sp, #44]	; 0x2c
10003f08:	003a      	movs	r2, r7
10003f0a:	2b00      	cmp	r3, #0
10003f0c:	d002      	beq.n	10003f14 <_vsnprintf+0x928>
10003f0e:	2301      	movs	r3, #1
10003f10:	439a      	bics	r2, r3
10003f12:	920b      	str	r2, [sp, #44]	; 0x2c
10003f14:	2780      	movs	r7, #128	; 0x80
10003f16:	9b0b      	ldr	r3, [sp, #44]	; 0x2c
10003f18:	00bf      	lsls	r7, r7, #2
10003f1a:	401f      	ands	r7, r3
10003f1c:	2869      	cmp	r0, #105	; 0x69
10003f1e:	d100      	bne.n	10003f22 <_vsnprintf+0x936>
10003f20:	e51b      	b.n	1000395a <_vsnprintf+0x36e>
10003f22:	2864      	cmp	r0, #100	; 0x64
10003f24:	d100      	bne.n	10003f28 <_vsnprintf+0x93c>
10003f26:	e518      	b.n	1000395a <_vsnprintf+0x36e>
10003f28:	2f00      	cmp	r7, #0
10003f2a:	d000      	beq.n	10003f2e <_vsnprintf+0x942>
10003f2c:	e27c      	b.n	10004428 <_vsnprintf+0xe3c>
10003f2e:	2380      	movs	r3, #128	; 0x80
10003f30:	9a0b      	ldr	r2, [sp, #44]	; 0x2c
10003f32:	005b      	lsls	r3, r3, #1
10003f34:	401a      	ands	r2, r3
10003f36:	0013      	movs	r3, r2
10003f38:	4694      	mov	ip, r2
10003f3a:	9a0a      	ldr	r2, [sp, #40]	; 0x28
10003f3c:	3204      	adds	r2, #4
10003f3e:	920d      	str	r2, [sp, #52]	; 0x34
10003f40:	2b00      	cmp	r3, #0
10003f42:	d000      	beq.n	10003f46 <_vsnprintf+0x95a>
10003f44:	e350      	b.n	100045e8 <_vsnprintf+0xffc>
10003f46:	9b0b      	ldr	r3, [sp, #44]	; 0x2c
10003f48:	065b      	lsls	r3, r3, #25
10003f4a:	d400      	bmi.n	10003f4e <_vsnprintf+0x962>
10003f4c:	e345      	b.n	100045da <_vsnprintf+0xfee>
10003f4e:	9b0a      	ldr	r3, [sp, #40]	; 0x28
10003f50:	7818      	ldrb	r0, [r3, #0]
10003f52:	2800      	cmp	r0, #0
10003f54:	d107      	bne.n	10003f66 <_vsnprintf+0x97a>
10003f56:	9a0b      	ldr	r2, [sp, #44]	; 0x2c
10003f58:	2310      	movs	r3, #16
10003f5a:	0011      	movs	r1, r2
10003f5c:	4399      	bics	r1, r3
10003f5e:	910b      	str	r1, [sp, #44]	; 0x2c
10003f60:	0552      	lsls	r2, r2, #21
10003f62:	d500      	bpl.n	10003f66 <_vsnprintf+0x97a>
10003f64:	e3bf      	b.n	100046e6 <_vsnprintf+0x10fa>
10003f66:	9b0b      	ldr	r3, [sp, #44]	; 0x2c
10003f68:	2761      	movs	r7, #97	; 0x61
10003f6a:	069b      	lsls	r3, r3, #26
10003f6c:	d500      	bpl.n	10003f70 <_vsnprintf+0x984>
10003f6e:	2741      	movs	r7, #65	; 0x41
10003f70:	ab20      	add	r3, sp, #128	; 0x80
10003f72:	b2ff      	uxtb	r7, r7
10003f74:	950a      	str	r5, [sp, #40]	; 0x28
10003f76:	940e      	str	r4, [sp, #56]	; 0x38
10003f78:	960f      	str	r6, [sp, #60]	; 0x3c
10003f7a:	9308      	str	r3, [sp, #32]
10003f7c:	3f0a      	subs	r7, #10
10003f7e:	4665      	mov	r5, ip
10003f80:	9c0c      	ldr	r4, [sp, #48]	; 0x30
10003f82:	001e      	movs	r6, r3
10003f84:	e00a      	b.n	10003f9c <_vsnprintf+0x9b0>
10003f86:	3330      	adds	r3, #48	; 0x30
10003f88:	b2db      	uxtb	r3, r3
10003f8a:	1c6a      	adds	r2, r5, #1
10003f8c:	5573      	strb	r3, [r6, r5]
10003f8e:	2800      	cmp	r0, #0
10003f90:	d100      	bne.n	10003f94 <_vsnprintf+0x9a8>
10003f92:	e211      	b.n	100043b8 <_vsnprintf+0xdcc>
10003f94:	2a20      	cmp	r2, #32
10003f96:	d100      	bne.n	10003f9a <_vsnprintf+0x9ae>
10003f98:	e20e      	b.n	100043b8 <_vsnprintf+0xdcc>
10003f9a:	0015      	movs	r5, r2
10003f9c:	0021      	movs	r1, r4
10003f9e:	f000 fc9f 	bl	100048e0 <__wrap___aeabi_uidiv>
10003fa2:	b2cb      	uxtb	r3, r1
10003fa4:	2909      	cmp	r1, #9
10003fa6:	d9ee      	bls.n	10003f86 <_vsnprintf+0x99a>
10003fa8:	19db      	adds	r3, r3, r7
10003faa:	b2db      	uxtb	r3, r3
10003fac:	e7ed      	b.n	10003f8a <_vsnprintf+0x99e>
10003fae:	465b      	mov	r3, fp
10003fb0:	2b01      	cmp	r3, #1
10003fb2:	d800      	bhi.n	10003fb6 <_vsnprintf+0x9ca>
10003fb4:	e3a7      	b.n	10004706 <_vsnprintf+0x111a>
10003fb6:	1e6b      	subs	r3, r5, #1
10003fb8:	449b      	add	fp, r3
10003fba:	0033      	movs	r3, r6
10003fbc:	465e      	mov	r6, fp
10003fbe:	469b      	mov	fp, r3
10003fc0:	e001      	b.n	10003fc6 <_vsnprintf+0x9da>
10003fc2:	0025      	movs	r5, r4
10003fc4:	3401      	adds	r4, #1
10003fc6:	4643      	mov	r3, r8
10003fc8:	002a      	movs	r2, r5
10003fca:	4649      	mov	r1, r9
10003fcc:	2020      	movs	r0, #32
10003fce:	0027      	movs	r7, r4
10003fd0:	47d0      	blx	sl
10003fd2:	42b4      	cmp	r4, r6
10003fd4:	d1f5      	bne.n	10003fc2 <_vsnprintf+0x9d6>
10003fd6:	465e      	mov	r6, fp
10003fd8:	3502      	adds	r5, #2
10003fda:	9b0a      	ldr	r3, [sp, #40]	; 0x28
10003fdc:	003a      	movs	r2, r7
10003fde:	7818      	ldrb	r0, [r3, #0]
10003fe0:	4649      	mov	r1, r9
10003fe2:	4643      	mov	r3, r8
10003fe4:	47d0      	blx	sl
10003fe6:	9b08      	ldr	r3, [sp, #32]
10003fe8:	930a      	str	r3, [sp, #40]	; 0x28
10003fea:	f7ff fb14 	bl	10003616 <_vsnprintf+0x2a>
10003fee:	2320      	movs	r3, #32
10003ff0:	431f      	orrs	r7, r3
10003ff2:	f7ff fba4 	bl	1000373e <_vsnprintf+0x152>
10003ff6:	9a0a      	ldr	r2, [sp, #40]	; 0x28
10003ff8:	78b0      	ldrb	r0, [r6, #2]
10003ffa:	6814      	ldr	r4, [r2, #0]
10003ffc:	1cf1      	adds	r1, r6, #3
10003ffe:	43e3      	mvns	r3, r4
10004000:	17db      	asrs	r3, r3, #31
10004002:	401c      	ands	r4, r3
10004004:	1d13      	adds	r3, r2, #4
10004006:	930a      	str	r3, [sp, #40]	; 0x28
10004008:	3602      	adds	r6, #2
1000400a:	f7ff fb50 	bl	100036ae <_vsnprintf+0xc2>
1000400e:	002c      	movs	r4, r5
10004010:	07bb      	lsls	r3, r7, #30
10004012:	d110      	bne.n	10004036 <_vsnprintf+0xa4a>
10004014:	465b      	mov	r3, fp
10004016:	2b03      	cmp	r3, #3
10004018:	d90d      	bls.n	10004036 <_vsnprintf+0xa4a>
1000401a:	1eec      	subs	r4, r5, #3
1000401c:	0023      	movs	r3, r4
1000401e:	002a      	movs	r2, r5
10004020:	445b      	add	r3, fp
10004022:	9308      	str	r3, [sp, #32]
10004024:	4643      	mov	r3, r8
10004026:	4649      	mov	r1, r9
10004028:	2020      	movs	r0, #32
1000402a:	1c54      	adds	r4, r2, #1
1000402c:	47d0      	blx	sl
1000402e:	9b08      	ldr	r3, [sp, #32]
10004030:	0022      	movs	r2, r4
10004032:	429c      	cmp	r4, r3
10004034:	d1f6      	bne.n	10004024 <_vsnprintf+0xa38>
10004036:	2303      	movs	r3, #3
10004038:	9308      	str	r3, [sp, #32]
1000403a:	4bdc      	ldr	r3, [pc, #880]	; (100043ac <_vsnprintf+0xdc0>)
1000403c:	0022      	movs	r2, r4
1000403e:	930b      	str	r3, [sp, #44]	; 0x2c
10004040:	002b      	movs	r3, r5
10004042:	003d      	movs	r5, r7
10004044:	001f      	movs	r7, r3
10004046:	9b08      	ldr	r3, [sp, #32]
10004048:	980b      	ldr	r0, [sp, #44]	; 0x2c
1000404a:	1c51      	adds	r1, r2, #1
1000404c:	3b01      	subs	r3, #1
1000404e:	910c      	str	r1, [sp, #48]	; 0x30
10004050:	9308      	str	r3, [sp, #32]
10004052:	5cc0      	ldrb	r0, [r0, r3]
10004054:	4649      	mov	r1, r9
10004056:	4643      	mov	r3, r8
10004058:	47d0      	blx	sl
1000405a:	9b08      	ldr	r3, [sp, #32]
1000405c:	9a0c      	ldr	r2, [sp, #48]	; 0x30
1000405e:	2b00      	cmp	r3, #0
10004060:	d1f2      	bne.n	10004048 <_vsnprintf+0xa5c>
10004062:	003b      	movs	r3, r7
10004064:	002f      	movs	r7, r5
10004066:	1ce2      	adds	r2, r4, #3
10004068:	001d      	movs	r5, r3
1000406a:	07bb      	lsls	r3, r7, #30
1000406c:	d50c      	bpl.n	10004088 <_vsnprintf+0xa9c>
1000406e:	1b53      	subs	r3, r2, r5
10004070:	459b      	cmp	fp, r3
10004072:	d909      	bls.n	10004088 <_vsnprintf+0xa9c>
10004074:	465f      	mov	r7, fp
10004076:	1c54      	adds	r4, r2, #1
10004078:	4643      	mov	r3, r8
1000407a:	4649      	mov	r1, r9
1000407c:	2020      	movs	r0, #32
1000407e:	47d0      	blx	sl
10004080:	0022      	movs	r2, r4
10004082:	1b63      	subs	r3, r4, r5
10004084:	429f      	cmp	r7, r3
10004086:	d8f6      	bhi.n	10004076 <_vsnprintf+0xa8a>
10004088:	0015      	movs	r5, r2
1000408a:	f7ff fac4 	bl	10003616 <_vsnprintf+0x2a>
1000408e:	23c0      	movs	r3, #192	; 0xc0
10004090:	009b      	lsls	r3, r3, #2
10004092:	78b0      	ldrb	r0, [r6, #2]
10004094:	431f      	orrs	r7, r3
10004096:	3603      	adds	r6, #3
10004098:	f7ff fb2b 	bl	100036f2 <_vsnprintf+0x106>
1000409c:	980b      	ldr	r0, [sp, #44]	; 0x2c
1000409e:	990c      	ldr	r1, [sp, #48]	; 0x30
100040a0:	f000 fec0 	bl	10004e24 <__wrap___aeabi_dcmplt>
100040a4:	2800      	cmp	r0, #0
100040a6:	d000      	beq.n	100040aa <_vsnprintf+0xabe>
100040a8:	e0cc      	b.n	10004244 <_vsnprintf+0xc58>
100040aa:	077b      	lsls	r3, r7, #29
100040ac:	d400      	bmi.n	100040b0 <_vsnprintf+0xac4>
100040ae:	e26b      	b.n	10004588 <_vsnprintf+0xf9c>
100040b0:	4bbf      	ldr	r3, [pc, #764]	; (100043b0 <_vsnprintf+0xdc4>)
100040b2:	9308      	str	r3, [sp, #32]
100040b4:	2304      	movs	r3, #4
100040b6:	930c      	str	r3, [sp, #48]	; 0x30
100040b8:	950b      	str	r5, [sp, #44]	; 0x2c
100040ba:	07bb      	lsls	r3, r7, #30
100040bc:	d11c      	bne.n	100040f8 <_vsnprintf+0xb0c>
100040be:	9b0c      	ldr	r3, [sp, #48]	; 0x30
100040c0:	459b      	cmp	fp, r3
100040c2:	d800      	bhi.n	100040c6 <_vsnprintf+0xada>
100040c4:	e32d      	b.n	10004722 <_vsnprintf+0x1136>
100040c6:	465a      	mov	r2, fp
100040c8:	1954      	adds	r4, r2, r5
100040ca:	1ae4      	subs	r4, r4, r3
100040cc:	0033      	movs	r3, r6
100040ce:	002a      	movs	r2, r5
100040d0:	464e      	mov	r6, r9
100040d2:	46a9      	mov	r9, r5
100040d4:	4655      	mov	r5, sl
100040d6:	469a      	mov	sl, r3
100040d8:	970d      	str	r7, [sp, #52]	; 0x34
100040da:	1c57      	adds	r7, r2, #1
100040dc:	4643      	mov	r3, r8
100040de:	0031      	movs	r1, r6
100040e0:	2020      	movs	r0, #32
100040e2:	47a8      	blx	r5
100040e4:	003a      	movs	r2, r7
100040e6:	42bc      	cmp	r4, r7
100040e8:	d1f7      	bne.n	100040da <_vsnprintf+0xaee>
100040ea:	4653      	mov	r3, sl
100040ec:	46aa      	mov	sl, r5
100040ee:	464d      	mov	r5, r9
100040f0:	46b1      	mov	r9, r6
100040f2:	001e      	movs	r6, r3
100040f4:	970b      	str	r7, [sp, #44]	; 0x2c
100040f6:	9f0d      	ldr	r7, [sp, #52]	; 0x34
100040f8:	0033      	movs	r3, r6
100040fa:	4656      	mov	r6, sl
100040fc:	469a      	mov	sl, r3
100040fe:	9a0b      	ldr	r2, [sp, #44]	; 0x2c
10004100:	9c0c      	ldr	r4, [sp, #48]	; 0x30
10004102:	950d      	str	r5, [sp, #52]	; 0x34
10004104:	9b08      	ldr	r3, [sp, #32]
10004106:	3c01      	subs	r4, #1
10004108:	1c55      	adds	r5, r2, #1
1000410a:	5d18      	ldrb	r0, [r3, r4]
1000410c:	4649      	mov	r1, r9
1000410e:	4643      	mov	r3, r8
10004110:	47b0      	blx	r6
10004112:	002a      	movs	r2, r5
10004114:	2c00      	cmp	r4, #0
10004116:	d1f5      	bne.n	10004104 <_vsnprintf+0xb18>
10004118:	4653      	mov	r3, sl
1000411a:	990b      	ldr	r1, [sp, #44]	; 0x2c
1000411c:	46b2      	mov	sl, r6
1000411e:	468c      	mov	ip, r1
10004120:	001e      	movs	r6, r3
10004122:	9b0c      	ldr	r3, [sp, #48]	; 0x30
10004124:	9d0d      	ldr	r5, [sp, #52]	; 0x34
10004126:	4463      	add	r3, ip
10004128:	001a      	movs	r2, r3
1000412a:	07bb      	lsls	r3, r7, #30
1000412c:	d5ac      	bpl.n	10004088 <_vsnprintf+0xa9c>
1000412e:	1b53      	subs	r3, r2, r5
10004130:	459b      	cmp	fp, r3
10004132:	d9a9      	bls.n	10004088 <_vsnprintf+0xa9c>
10004134:	0033      	movs	r3, r6
10004136:	465c      	mov	r4, fp
10004138:	464e      	mov	r6, r9
1000413a:	4657      	mov	r7, sl
1000413c:	4699      	mov	r9, r3
1000413e:	1c53      	adds	r3, r2, #1
10004140:	469a      	mov	sl, r3
10004142:	0031      	movs	r1, r6
10004144:	4643      	mov	r3, r8
10004146:	2020      	movs	r0, #32
10004148:	47b8      	blx	r7
1000414a:	4652      	mov	r2, sl
1000414c:	1b53      	subs	r3, r2, r5
1000414e:	429c      	cmp	r4, r3
10004150:	d8f5      	bhi.n	1000413e <_vsnprintf+0xb52>
10004152:	464b      	mov	r3, r9
10004154:	46ba      	mov	sl, r7
10004156:	46b1      	mov	r9, r6
10004158:	0015      	movs	r5, r2
1000415a:	001e      	movs	r6, r3
1000415c:	f7ff fa5b 	bl	10003616 <_vsnprintf+0x2a>
10004160:	23c0      	movs	r3, #192	; 0xc0
10004162:	78b0      	ldrb	r0, [r6, #2]
10004164:	431f      	orrs	r7, r3
10004166:	3603      	adds	r6, #3
10004168:	f7ff fac3 	bl	100036f2 <_vsnprintf+0x106>
1000416c:	9b08      	ldr	r3, [sp, #32]
1000416e:	459b      	cmp	fp, r3
10004170:	d801      	bhi.n	10004176 <_vsnprintf+0xb8a>
10004172:	f7ff fb60 	bl	10003836 <_vsnprintf+0x24a>
10004176:	465a      	mov	r2, fp
10004178:	1954      	adds	r4, r2, r5
1000417a:	1ae4      	subs	r4, r4, r3
1000417c:	0033      	movs	r3, r6
1000417e:	002a      	movs	r2, r5
10004180:	464e      	mov	r6, r9
10004182:	4657      	mov	r7, sl
10004184:	4699      	mov	r9, r3
10004186:	3501      	adds	r5, #1
10004188:	4643      	mov	r3, r8
1000418a:	0031      	movs	r1, r6
1000418c:	2020      	movs	r0, #32
1000418e:	47b8      	blx	r7
10004190:	002a      	movs	r2, r5
10004192:	42a5      	cmp	r5, r4
10004194:	d1f7      	bne.n	10004186 <_vsnprintf+0xb9a>
10004196:	464b      	mov	r3, r9
10004198:	46ba      	mov	sl, r7
1000419a:	46b1      	mov	r9, r6
1000419c:	001e      	movs	r6, r3
1000419e:	f7ff fb4a 	bl	10003836 <_vsnprintf+0x24a>
100041a2:	9a08      	ldr	r2, [sp, #32]
100041a4:	1c53      	adds	r3, r2, #1
100041a6:	4593      	cmp	fp, r2
100041a8:	d800      	bhi.n	100041ac <_vsnprintf+0xbc0>
100041aa:	e2a8      	b.n	100046fe <_vsnprintf+0x1112>
100041ac:	465b      	mov	r3, fp
100041ae:	195b      	adds	r3, r3, r5
100041b0:	1a9b      	subs	r3, r3, r2
100041b2:	9708      	str	r7, [sp, #32]
100041b4:	001f      	movs	r7, r3
100041b6:	0033      	movs	r3, r6
100041b8:	002a      	movs	r2, r5
100041ba:	464e      	mov	r6, r9
100041bc:	46a1      	mov	r9, r4
100041be:	4654      	mov	r4, sl
100041c0:	469a      	mov	sl, r3
100041c2:	3501      	adds	r5, #1
100041c4:	4643      	mov	r3, r8
100041c6:	0031      	movs	r1, r6
100041c8:	2020      	movs	r0, #32
100041ca:	47a0      	blx	r4
100041cc:	002a      	movs	r2, r5
100041ce:	42bd      	cmp	r5, r7
100041d0:	d1f7      	bne.n	100041c2 <_vsnprintf+0xbd6>
100041d2:	4653      	mov	r3, sl
100041d4:	46a2      	mov	sl, r4
100041d6:	464c      	mov	r4, r9
100041d8:	46b1      	mov	r9, r6
100041da:	001e      	movs	r6, r3
100041dc:	465b      	mov	r3, fp
100041de:	3301      	adds	r3, #1
100041e0:	9f08      	ldr	r7, [sp, #32]
100041e2:	9308      	str	r3, [sp, #32]
100041e4:	9b0a      	ldr	r3, [sp, #40]	; 0x28
100041e6:	7818      	ldrb	r0, [r3, #0]
100041e8:	2800      	cmp	r0, #0
100041ea:	d001      	beq.n	100041f0 <_vsnprintf+0xc04>
100041ec:	f7ff fb02 	bl	100037f4 <_vsnprintf+0x208>
100041f0:	f7ff fb21 	bl	10003836 <_vsnprintf+0x24a>
100041f4:	230c      	movs	r3, #12
100041f6:	003a      	movs	r2, r7
100041f8:	439a      	bics	r2, r3
100041fa:	3314      	adds	r3, #20
100041fc:	431a      	orrs	r2, r3
100041fe:	920b      	str	r2, [sp, #44]	; 0x2c
10004200:	057b      	lsls	r3, r7, #21
10004202:	d400      	bmi.n	10004206 <_vsnprintf+0xc1a>
10004204:	e0c7      	b.n	10004396 <_vsnprintf+0xdaa>
10004206:	2310      	movs	r3, #16
10004208:	930c      	str	r3, [sp, #48]	; 0x30
1000420a:	e680      	b.n	10003f0e <_vsnprintf+0x922>
1000420c:	9b10      	ldr	r3, [sp, #64]	; 0x40
1000420e:	465e      	mov	r6, fp
10004210:	469b      	mov	fp, r3
10004212:	9d0e      	ldr	r5, [sp, #56]	; 0x38
10004214:	9c0f      	ldr	r4, [sp, #60]	; 0x3c
10004216:	9b0b      	ldr	r3, [sp, #44]	; 0x2c
10004218:	9404      	str	r4, [sp, #16]
1000421a:	9306      	str	r3, [sp, #24]
1000421c:	465b      	mov	r3, fp
1000421e:	9305      	str	r3, [sp, #20]
10004220:	9b0c      	ldr	r3, [sp, #48]	; 0x30
10004222:	9303      	str	r3, [sp, #12]
10004224:	9b0a      	ldr	r3, [sp, #40]	; 0x28
10004226:	9302      	str	r3, [sp, #8]
10004228:	9b08      	ldr	r3, [sp, #32]
1000422a:	9201      	str	r2, [sp, #4]
1000422c:	9300      	str	r3, [sp, #0]
1000422e:	002a      	movs	r2, r5
10004230:	4643      	mov	r3, r8
10004232:	4649      	mov	r1, r9
10004234:	4650      	mov	r0, sl
10004236:	f7fd ffc9 	bl	100021cc <_ntoa_format>
1000423a:	9b0d      	ldr	r3, [sp, #52]	; 0x34
1000423c:	0005      	movs	r5, r0
1000423e:	930a      	str	r3, [sp, #40]	; 0x28
10004240:	f7ff f9e9 	bl	10003616 <_vsnprintf+0x2a>
10004244:	950b      	str	r5, [sp, #44]	; 0x2c
10004246:	07bb      	lsls	r3, r7, #30
10004248:	d11b      	bne.n	10004282 <_vsnprintf+0xc96>
1000424a:	465b      	mov	r3, fp
1000424c:	2b04      	cmp	r3, #4
1000424e:	d800      	bhi.n	10004252 <_vsnprintf+0xc66>
10004250:	e2b0      	b.n	100047b4 <_vsnprintf+0x11c8>
10004252:	0033      	movs	r3, r6
10004254:	1f2c      	subs	r4, r5, #4
10004256:	002a      	movs	r2, r5
10004258:	464e      	mov	r6, r9
1000425a:	46a9      	mov	r9, r5
1000425c:	4655      	mov	r5, sl
1000425e:	469a      	mov	sl, r3
10004260:	445c      	add	r4, fp
10004262:	9708      	str	r7, [sp, #32]
10004264:	1c57      	adds	r7, r2, #1
10004266:	4643      	mov	r3, r8
10004268:	0031      	movs	r1, r6
1000426a:	2020      	movs	r0, #32
1000426c:	47a8      	blx	r5
1000426e:	003a      	movs	r2, r7
10004270:	42a7      	cmp	r7, r4
10004272:	d1f7      	bne.n	10004264 <_vsnprintf+0xc78>
10004274:	4653      	mov	r3, sl
10004276:	46aa      	mov	sl, r5
10004278:	464d      	mov	r5, r9
1000427a:	46b1      	mov	r9, r6
1000427c:	001e      	movs	r6, r3
1000427e:	970b      	str	r7, [sp, #44]	; 0x2c
10004280:	9f08      	ldr	r7, [sp, #32]
10004282:	4b4c      	ldr	r3, [pc, #304]	; (100043b4 <_vsnprintf+0xdc8>)
10004284:	2404      	movs	r4, #4
10004286:	9308      	str	r3, [sp, #32]
10004288:	0033      	movs	r3, r6
1000428a:	464e      	mov	r6, r9
1000428c:	46b9      	mov	r9, r7
1000428e:	4657      	mov	r7, sl
10004290:	469a      	mov	sl, r3
10004292:	9a0b      	ldr	r2, [sp, #44]	; 0x2c
10004294:	950c      	str	r5, [sp, #48]	; 0x30
10004296:	9b08      	ldr	r3, [sp, #32]
10004298:	3c01      	subs	r4, #1
1000429a:	1c55      	adds	r5, r2, #1
1000429c:	5d18      	ldrb	r0, [r3, r4]
1000429e:	0031      	movs	r1, r6
100042a0:	4643      	mov	r3, r8
100042a2:	47b8      	blx	r7
100042a4:	002a      	movs	r2, r5
100042a6:	2c00      	cmp	r4, #0
100042a8:	d1f5      	bne.n	10004296 <_vsnprintf+0xcaa>
100042aa:	4653      	mov	r3, sl
100042ac:	46ba      	mov	sl, r7
100042ae:	464f      	mov	r7, r9
100042b0:	9a0b      	ldr	r2, [sp, #44]	; 0x2c
100042b2:	46b1      	mov	r9, r6
100042b4:	9d0c      	ldr	r5, [sp, #48]	; 0x30
100042b6:	001e      	movs	r6, r3
100042b8:	3204      	adds	r2, #4
100042ba:	07bb      	lsls	r3, r7, #30
100042bc:	d400      	bmi.n	100042c0 <_vsnprintf+0xcd4>
100042be:	e6e3      	b.n	10004088 <_vsnprintf+0xa9c>
100042c0:	1b53      	subs	r3, r2, r5
100042c2:	459b      	cmp	fp, r3
100042c4:	d800      	bhi.n	100042c8 <_vsnprintf+0xcdc>
100042c6:	e6df      	b.n	10004088 <_vsnprintf+0xa9c>
100042c8:	0033      	movs	r3, r6
100042ca:	465c      	mov	r4, fp
100042cc:	464e      	mov	r6, r9
100042ce:	4657      	mov	r7, sl
100042d0:	4699      	mov	r9, r3
100042d2:	1c53      	adds	r3, r2, #1
100042d4:	469a      	mov	sl, r3
100042d6:	0031      	movs	r1, r6
100042d8:	4643      	mov	r3, r8
100042da:	2020      	movs	r0, #32
100042dc:	47b8      	blx	r7
100042de:	4652      	mov	r2, sl
100042e0:	1b53      	subs	r3, r2, r5
100042e2:	429c      	cmp	r4, r3
100042e4:	d8f5      	bhi.n	100042d2 <_vsnprintf+0xce6>
100042e6:	e734      	b.n	10004152 <_vsnprintf+0xb66>
100042e8:	2207      	movs	r2, #7
100042ea:	9b0a      	ldr	r3, [sp, #40]	; 0x28
100042ec:	3307      	adds	r3, #7
100042ee:	4393      	bics	r3, r2
100042f0:	3201      	adds	r2, #1
100042f2:	4694      	mov	ip, r2
100042f4:	449c      	add	ip, r3
100042f6:	4662      	mov	r2, ip
100042f8:	685f      	ldr	r7, [r3, #4]
100042fa:	920a      	str	r2, [sp, #40]	; 0x28
100042fc:	681a      	ldr	r2, [r3, #0]
100042fe:	17fb      	asrs	r3, r7, #31
10004300:	9318      	str	r3, [sp, #96]	; 0x60
10004302:	9319      	str	r3, [sp, #100]	; 0x64
10004304:	9818      	ldr	r0, [sp, #96]	; 0x60
10004306:	9919      	ldr	r1, [sp, #100]	; 0x64
10004308:	0003      	movs	r3, r0
1000430a:	4053      	eors	r3, r2
1000430c:	9312      	str	r3, [sp, #72]	; 0x48
1000430e:	000b      	movs	r3, r1
10004310:	407b      	eors	r3, r7
10004312:	9313      	str	r3, [sp, #76]	; 0x4c
10004314:	4694      	mov	ip, r2
10004316:	9a12      	ldr	r2, [sp, #72]	; 0x48
10004318:	9b13      	ldr	r3, [sp, #76]	; 0x4c
1000431a:	1a12      	subs	r2, r2, r0
1000431c:	418b      	sbcs	r3, r1
1000431e:	9212      	str	r2, [sp, #72]	; 0x48
10004320:	9313      	str	r3, [sp, #76]	; 0x4c
10004322:	4662      	mov	r2, ip
10004324:	0ffb      	lsrs	r3, r7, #31
10004326:	9314      	str	r3, [sp, #80]	; 0x50
10004328:	433a      	orrs	r2, r7
1000432a:	d107      	bne.n	1000433c <_vsnprintf+0xd50>
1000432c:	9a0b      	ldr	r2, [sp, #44]	; 0x2c
1000432e:	2310      	movs	r3, #16
10004330:	0011      	movs	r1, r2
10004332:	4399      	bics	r1, r3
10004334:	910b      	str	r1, [sp, #44]	; 0x2c
10004336:	0552      	lsls	r2, r2, #21
10004338:	d500      	bpl.n	1000433c <_vsnprintf+0xd50>
1000433a:	e1e7      	b.n	1000470c <_vsnprintf+0x1120>
1000433c:	9a0b      	ldr	r2, [sp, #44]	; 0x2c
1000433e:	2361      	movs	r3, #97	; 0x61
10004340:	0692      	lsls	r2, r2, #26
10004342:	d500      	bpl.n	10004346 <_vsnprintf+0xd5a>
10004344:	2341      	movs	r3, #65	; 0x41
10004346:	b2db      	uxtb	r3, r3
10004348:	aa20      	add	r2, sp, #128	; 0x80
1000434a:	3b0a      	subs	r3, #10
1000434c:	950e      	str	r5, [sp, #56]	; 0x38
1000434e:	940f      	str	r4, [sp, #60]	; 0x3c
10004350:	9610      	str	r6, [sp, #64]	; 0x40
10004352:	2700      	movs	r7, #0
10004354:	9c12      	ldr	r4, [sp, #72]	; 0x48
10004356:	9d13      	ldr	r5, [sp, #76]	; 0x4c
10004358:	9208      	str	r2, [sp, #32]
1000435a:	930d      	str	r3, [sp, #52]	; 0x34
1000435c:	9e0c      	ldr	r6, [sp, #48]	; 0x30
1000435e:	e00c      	b.n	1000437a <_vsnprintf+0xd8e>
10004360:	3230      	adds	r2, #48	; 0x30
10004362:	b2d2      	uxtb	r2, r2
10004364:	9c08      	ldr	r4, [sp, #32]
10004366:	1c7b      	adds	r3, r7, #1
10004368:	55e2      	strb	r2, [r4, r7]
1000436a:	0002      	movs	r2, r0
1000436c:	0004      	movs	r4, r0
1000436e:	000d      	movs	r5, r1
10004370:	430a      	orrs	r2, r1
10004372:	d03f      	beq.n	100043f4 <_vsnprintf+0xe08>
10004374:	2b20      	cmp	r3, #32
10004376:	d03d      	beq.n	100043f4 <_vsnprintf+0xe08>
10004378:	001f      	movs	r7, r3
1000437a:	0032      	movs	r2, r6
1000437c:	2300      	movs	r3, #0
1000437e:	0020      	movs	r0, r4
10004380:	0029      	movs	r1, r5
10004382:	f000 faf3 	bl	1000496c <__wrap___aeabi_uldivmod>
10004386:	b2d2      	uxtb	r2, r2
10004388:	2a09      	cmp	r2, #9
1000438a:	d9e9      	bls.n	10004360 <_vsnprintf+0xd74>
1000438c:	9b0d      	ldr	r3, [sp, #52]	; 0x34
1000438e:	469c      	mov	ip, r3
10004390:	4462      	add	r2, ip
10004392:	b2d2      	uxtb	r2, r2
10004394:	e7e6      	b.n	10004364 <_vsnprintf+0xd78>
10004396:	2380      	movs	r3, #128	; 0x80
10004398:	009b      	lsls	r3, r3, #2
1000439a:	401f      	ands	r7, r3
1000439c:	3bf1      	subs	r3, #241	; 0xf1
1000439e:	3bff      	subs	r3, #255	; 0xff
100043a0:	930c      	str	r3, [sp, #48]	; 0x30
100043a2:	e5c1      	b.n	10003f28 <_vsnprintf+0x93c>
100043a4:	230a      	movs	r3, #10
100043a6:	930c      	str	r3, [sp, #48]	; 0x30
100043a8:	e5b1      	b.n	10003f0e <_vsnprintf+0x922>
100043aa:	46c0      	nop			; (mov r8, r8)
100043ac:	10008268 	.word	0x10008268
100043b0:	10008274 	.word	0x10008274
100043b4:	1000826c 	.word	0x1000826c
100043b8:	9d0a      	ldr	r5, [sp, #40]	; 0x28
100043ba:	9c0e      	ldr	r4, [sp, #56]	; 0x38
100043bc:	9e0f      	ldr	r6, [sp, #60]	; 0x3c
100043be:	9b0b      	ldr	r3, [sp, #44]	; 0x2c
100043c0:	9404      	str	r4, [sp, #16]
100043c2:	9306      	str	r3, [sp, #24]
100043c4:	465b      	mov	r3, fp
100043c6:	9305      	str	r3, [sp, #20]
100043c8:	9b0c      	ldr	r3, [sp, #48]	; 0x30
100043ca:	9303      	str	r3, [sp, #12]
100043cc:	2300      	movs	r3, #0
100043ce:	e72a      	b.n	10004226 <_vsnprintf+0xc3a>
100043d0:	2308      	movs	r3, #8
100043d2:	930c      	str	r3, [sp, #48]	; 0x30
100043d4:	2380      	movs	r3, #128	; 0x80
100043d6:	00db      	lsls	r3, r3, #3
100043d8:	403b      	ands	r3, r7
100043da:	2864      	cmp	r0, #100	; 0x64
100043dc:	d000      	beq.n	100043e0 <_vsnprintf+0xdf4>
100043de:	e590      	b.n	10003f02 <_vsnprintf+0x916>
100043e0:	003a      	movs	r2, r7
100043e2:	970b      	str	r7, [sp, #44]	; 0x2c
100043e4:	2b00      	cmp	r3, #0
100043e6:	d000      	beq.n	100043ea <_vsnprintf+0xdfe>
100043e8:	e591      	b.n	10003f0e <_vsnprintf+0x922>
100043ea:	2780      	movs	r7, #128	; 0x80
100043ec:	00bf      	lsls	r7, r7, #2
100043ee:	4017      	ands	r7, r2
100043f0:	f7ff fab3 	bl	1000395a <_vsnprintf+0x36e>
100043f4:	9412      	str	r4, [sp, #72]	; 0x48
100043f6:	9513      	str	r5, [sp, #76]	; 0x4c
100043f8:	9e10      	ldr	r6, [sp, #64]	; 0x40
100043fa:	9c0f      	ldr	r4, [sp, #60]	; 0x3c
100043fc:	9d0e      	ldr	r5, [sp, #56]	; 0x38
100043fe:	9a0b      	ldr	r2, [sp, #44]	; 0x2c
10004400:	9404      	str	r4, [sp, #16]
10004402:	9206      	str	r2, [sp, #24]
10004404:	465a      	mov	r2, fp
10004406:	9205      	str	r2, [sp, #20]
10004408:	9a0c      	ldr	r2, [sp, #48]	; 0x30
1000440a:	9301      	str	r3, [sp, #4]
1000440c:	9203      	str	r2, [sp, #12]
1000440e:	9a14      	ldr	r2, [sp, #80]	; 0x50
10004410:	9202      	str	r2, [sp, #8]
10004412:	9b08      	ldr	r3, [sp, #32]
10004414:	002a      	movs	r2, r5
10004416:	9300      	str	r3, [sp, #0]
10004418:	4649      	mov	r1, r9
1000441a:	4643      	mov	r3, r8
1000441c:	4650      	mov	r0, sl
1000441e:	f7fd fed5 	bl	100021cc <_ntoa_format>
10004422:	0005      	movs	r5, r0
10004424:	f7ff f8f7 	bl	10003616 <_vsnprintf+0x2a>
10004428:	2207      	movs	r2, #7
1000442a:	9b0a      	ldr	r3, [sp, #40]	; 0x28
1000442c:	3307      	adds	r3, #7
1000442e:	4393      	bics	r3, r2
10004430:	3201      	adds	r2, #1
10004432:	4694      	mov	ip, r2
10004434:	449c      	add	ip, r3
10004436:	4662      	mov	r2, ip
10004438:	cb03      	ldmia	r3!, {r0, r1}
1000443a:	0003      	movs	r3, r0
1000443c:	920a      	str	r2, [sp, #40]	; 0x28
1000443e:	430b      	orrs	r3, r1
10004440:	d107      	bne.n	10004452 <_vsnprintf+0xe66>
10004442:	9a0b      	ldr	r2, [sp, #44]	; 0x2c
10004444:	3310      	adds	r3, #16
10004446:	0017      	movs	r7, r2
10004448:	439f      	bics	r7, r3
1000444a:	970b      	str	r7, [sp, #44]	; 0x2c
1000444c:	0552      	lsls	r2, r2, #21
1000444e:	d500      	bpl.n	10004452 <_vsnprintf+0xe66>
10004450:	e163      	b.n	1000471a <_vsnprintf+0x112e>
10004452:	9a0b      	ldr	r2, [sp, #44]	; 0x2c
10004454:	2361      	movs	r3, #97	; 0x61
10004456:	0692      	lsls	r2, r2, #26
10004458:	d500      	bpl.n	1000445c <_vsnprintf+0xe70>
1000445a:	2341      	movs	r3, #65	; 0x41
1000445c:	b2db      	uxtb	r3, r3
1000445e:	aa20      	add	r2, sp, #128	; 0x80
10004460:	3b0a      	subs	r3, #10
10004462:	950e      	str	r5, [sp, #56]	; 0x38
10004464:	940f      	str	r4, [sp, #60]	; 0x3c
10004466:	2700      	movs	r7, #0
10004468:	9208      	str	r2, [sp, #32]
1000446a:	930d      	str	r3, [sp, #52]	; 0x34
1000446c:	9c0c      	ldr	r4, [sp, #48]	; 0x30
1000446e:	9610      	str	r6, [sp, #64]	; 0x40
10004470:	0015      	movs	r5, r2
10004472:	e00c      	b.n	1000448e <_vsnprintf+0xea2>
10004474:	3230      	adds	r2, #48	; 0x30
10004476:	b2d1      	uxtb	r1, r2
10004478:	55e9      	strb	r1, [r5, r7]
1000447a:	0018      	movs	r0, r3
1000447c:	1c7a      	adds	r2, r7, #1
1000447e:	0031      	movs	r1, r6
10004480:	4333      	orrs	r3, r6
10004482:	d100      	bne.n	10004486 <_vsnprintf+0xe9a>
10004484:	e085      	b.n	10004592 <_vsnprintf+0xfa6>
10004486:	2a20      	cmp	r2, #32
10004488:	d100      	bne.n	1000448c <_vsnprintf+0xea0>
1000448a:	e082      	b.n	10004592 <_vsnprintf+0xfa6>
1000448c:	0017      	movs	r7, r2
1000448e:	0022      	movs	r2, r4
10004490:	2300      	movs	r3, #0
10004492:	f000 fa6b 	bl	1000496c <__wrap___aeabi_uldivmod>
10004496:	b2d2      	uxtb	r2, r2
10004498:	0003      	movs	r3, r0
1000449a:	000e      	movs	r6, r1
1000449c:	2a09      	cmp	r2, #9
1000449e:	d9e9      	bls.n	10004474 <_vsnprintf+0xe88>
100044a0:	990d      	ldr	r1, [sp, #52]	; 0x34
100044a2:	468c      	mov	ip, r1
100044a4:	4462      	add	r2, ip
100044a6:	b2d1      	uxtb	r1, r2
100044a8:	e7e6      	b.n	10004478 <_vsnprintf+0xe8c>
100044aa:	9b0e      	ldr	r3, [sp, #56]	; 0x38
100044ac:	2b00      	cmp	r3, #0
100044ae:	d000      	beq.n	100044b2 <_vsnprintf+0xec6>
100044b0:	e0c7      	b.n	10004642 <_vsnprintf+0x1056>
100044b2:	9b0d      	ldr	r3, [sp, #52]	; 0x34
100044b4:	9114      	str	r1, [sp, #80]	; 0x50
100044b6:	9316      	str	r3, [sp, #88]	; 0x58
100044b8:	2304      	movs	r3, #4
100044ba:	9310      	str	r3, [sp, #64]	; 0x40
100044bc:	2300      	movs	r3, #0
100044be:	930f      	str	r3, [sp, #60]	; 0x3c
100044c0:	e41b      	b.n	10003cfa <_vsnprintf+0x70e>
100044c2:	9b0a      	ldr	r3, [sp, #40]	; 0x28
100044c4:	1964      	adds	r4, r4, r5
100044c6:	1b5b      	subs	r3, r3, r5
100044c8:	930a      	str	r3, [sp, #40]	; 0x28
100044ca:	0033      	movs	r3, r6
100044cc:	002a      	movs	r2, r5
100044ce:	464e      	mov	r6, r9
100044d0:	46b9      	mov	r9, r7
100044d2:	4657      	mov	r7, sl
100044d4:	469a      	mov	sl, r3
100044d6:	e008      	b.n	100044ea <_vsnprintf+0xefe>
100044d8:	4643      	mov	r3, r8
100044da:	0031      	movs	r1, r6
100044dc:	1c55      	adds	r5, r2, #1
100044de:	47b8      	blx	r7
100044e0:	9b0a      	ldr	r3, [sp, #40]	; 0x28
100044e2:	5d58      	ldrb	r0, [r3, r5]
100044e4:	2800      	cmp	r0, #0
100044e6:	d062      	beq.n	100045ae <_vsnprintf+0xfc2>
100044e8:	002a      	movs	r2, r5
100044ea:	42a2      	cmp	r2, r4
100044ec:	d1f4      	bne.n	100044d8 <_vsnprintf+0xeec>
100044ee:	4653      	mov	r3, sl
100044f0:	0015      	movs	r5, r2
100044f2:	46ba      	mov	sl, r7
100044f4:	464f      	mov	r7, r9
100044f6:	46b1      	mov	r9, r6
100044f8:	001e      	movs	r6, r3
100044fa:	f7ff f998 	bl	1000382e <_vsnprintf+0x242>
100044fe:	9b0b      	ldr	r3, [sp, #44]	; 0x2c
10004500:	061b      	lsls	r3, r3, #24
10004502:	d400      	bmi.n	10004506 <_vsnprintf+0xf1a>
10004504:	e0f7      	b.n	100046f6 <_vsnprintf+0x110a>
10004506:	9b0a      	ldr	r3, [sp, #40]	; 0x28
10004508:	2200      	movs	r2, #0
1000450a:	5e9b      	ldrsh	r3, [r3, r2]
1000450c:	f7ff fa3d 	bl	1000398a <_vsnprintf+0x39e>
10004510:	9b0a      	ldr	r3, [sp, #40]	; 0x28
10004512:	681b      	ldr	r3, [r3, #0]
10004514:	17da      	asrs	r2, r3, #31
10004516:	1898      	adds	r0, r3, r2
10004518:	4050      	eors	r0, r2
1000451a:	0fda      	lsrs	r2, r3, #31
1000451c:	920e      	str	r2, [sp, #56]	; 0x38
1000451e:	2b00      	cmp	r3, #0
10004520:	d106      	bne.n	10004530 <_vsnprintf+0xf44>
10004522:	9a0b      	ldr	r2, [sp, #44]	; 0x2c
10004524:	3310      	adds	r3, #16
10004526:	0011      	movs	r1, r2
10004528:	4399      	bics	r1, r3
1000452a:	910b      	str	r1, [sp, #44]	; 0x2c
1000452c:	0552      	lsls	r2, r2, #21
1000452e:	d41f      	bmi.n	10004570 <_vsnprintf+0xf84>
10004530:	9a0b      	ldr	r2, [sp, #44]	; 0x2c
10004532:	2361      	movs	r3, #97	; 0x61
10004534:	0692      	lsls	r2, r2, #26
10004536:	d500      	bpl.n	1000453a <_vsnprintf+0xf4e>
10004538:	2341      	movs	r3, #65	; 0x41
1000453a:	b2db      	uxtb	r3, r3
1000453c:	aa20      	add	r2, sp, #128	; 0x80
1000453e:	3b0a      	subs	r3, #10
10004540:	9208      	str	r2, [sp, #32]
10004542:	930a      	str	r3, [sp, #40]	; 0x28
10004544:	e009      	b.n	1000455a <_vsnprintf+0xf6e>
10004546:	3330      	adds	r3, #48	; 0x30
10004548:	b2db      	uxtb	r3, r3
1000454a:	9908      	ldr	r1, [sp, #32]
1000454c:	1c7a      	adds	r2, r7, #1
1000454e:	55cb      	strb	r3, [r1, r7]
10004550:	2800      	cmp	r0, #0
10004552:	d010      	beq.n	10004576 <_vsnprintf+0xf8a>
10004554:	2a20      	cmp	r2, #32
10004556:	d00e      	beq.n	10004576 <_vsnprintf+0xf8a>
10004558:	0017      	movs	r7, r2
1000455a:	990c      	ldr	r1, [sp, #48]	; 0x30
1000455c:	f000 f9c0 	bl	100048e0 <__wrap___aeabi_uidiv>
10004560:	b2cb      	uxtb	r3, r1
10004562:	2909      	cmp	r1, #9
10004564:	d9ef      	bls.n	10004546 <_vsnprintf+0xf5a>
10004566:	9a0a      	ldr	r2, [sp, #40]	; 0x28
10004568:	4694      	mov	ip, r2
1000456a:	4463      	add	r3, ip
1000456c:	b2db      	uxtb	r3, r3
1000456e:	e7ec      	b.n	1000454a <_vsnprintf+0xf5e>
10004570:	2200      	movs	r2, #0
10004572:	ab20      	add	r3, sp, #128	; 0x80
10004574:	9308      	str	r3, [sp, #32]
10004576:	9b0b      	ldr	r3, [sp, #44]	; 0x2c
10004578:	9404      	str	r4, [sp, #16]
1000457a:	9306      	str	r3, [sp, #24]
1000457c:	465b      	mov	r3, fp
1000457e:	9305      	str	r3, [sp, #20]
10004580:	9b0c      	ldr	r3, [sp, #48]	; 0x30
10004582:	9303      	str	r3, [sp, #12]
10004584:	9b0e      	ldr	r3, [sp, #56]	; 0x38
10004586:	e64e      	b.n	10004226 <_vsnprintf+0xc3a>
10004588:	4b8d      	ldr	r3, [pc, #564]	; (100047c0 <_vsnprintf+0x11d4>)
1000458a:	9308      	str	r3, [sp, #32]
1000458c:	2303      	movs	r3, #3
1000458e:	930c      	str	r3, [sp, #48]	; 0x30
10004590:	e592      	b.n	100040b8 <_vsnprintf+0xacc>
10004592:	9d0e      	ldr	r5, [sp, #56]	; 0x38
10004594:	9c0f      	ldr	r4, [sp, #60]	; 0x3c
10004596:	9e10      	ldr	r6, [sp, #64]	; 0x40
10004598:	9b0b      	ldr	r3, [sp, #44]	; 0x2c
1000459a:	9404      	str	r4, [sp, #16]
1000459c:	9306      	str	r3, [sp, #24]
1000459e:	465b      	mov	r3, fp
100045a0:	9305      	str	r3, [sp, #20]
100045a2:	9b0c      	ldr	r3, [sp, #48]	; 0x30
100045a4:	9201      	str	r2, [sp, #4]
100045a6:	9303      	str	r3, [sp, #12]
100045a8:	2300      	movs	r3, #0
100045aa:	9302      	str	r3, [sp, #8]
100045ac:	e731      	b.n	10004412 <_vsnprintf+0xe26>
100045ae:	4653      	mov	r3, sl
100045b0:	46ba      	mov	sl, r7
100045b2:	464f      	mov	r7, r9
100045b4:	46b1      	mov	r9, r6
100045b6:	001e      	movs	r6, r3
100045b8:	f7ff f939 	bl	1000382e <_vsnprintf+0x242>
100045bc:	2280      	movs	r2, #128	; 0x80
100045be:	0612      	lsls	r2, r2, #24
100045c0:	4694      	mov	ip, r2
100045c2:	9b0b      	ldr	r3, [sp, #44]	; 0x2c
100045c4:	9308      	str	r3, [sp, #32]
100045c6:	9b0c      	ldr	r3, [sp, #48]	; 0x30
100045c8:	4463      	add	r3, ip
100045ca:	930d      	str	r3, [sp, #52]	; 0x34
100045cc:	f7ff faa5 	bl	10003b1a <_vsnprintf+0x52e>
100045d0:	0025      	movs	r5, r4
100045d2:	e508      	b.n	10003fe6 <_vsnprintf+0x9fa>
100045d4:	2302      	movs	r3, #2
100045d6:	930c      	str	r3, [sp, #48]	; 0x30
100045d8:	e6fc      	b.n	100043d4 <_vsnprintf+0xde8>
100045da:	9b0b      	ldr	r3, [sp, #44]	; 0x2c
100045dc:	061b      	lsls	r3, r3, #24
100045de:	d400      	bmi.n	100045e2 <_vsnprintf+0xff6>
100045e0:	e098      	b.n	10004714 <_vsnprintf+0x1128>
100045e2:	9b0a      	ldr	r3, [sp, #40]	; 0x28
100045e4:	8818      	ldrh	r0, [r3, #0]
100045e6:	e4b4      	b.n	10003f52 <_vsnprintf+0x966>
100045e8:	9b0a      	ldr	r3, [sp, #40]	; 0x28
100045ea:	6818      	ldr	r0, [r3, #0]
100045ec:	2800      	cmp	r0, #0
100045ee:	d106      	bne.n	100045fe <_vsnprintf+0x1012>
100045f0:	9a0b      	ldr	r2, [sp, #44]	; 0x2c
100045f2:	2310      	movs	r3, #16
100045f4:	0011      	movs	r1, r2
100045f6:	4399      	bics	r1, r3
100045f8:	910b      	str	r1, [sp, #44]	; 0x2c
100045fa:	0552      	lsls	r2, r2, #21
100045fc:	d473      	bmi.n	100046e6 <_vsnprintf+0x10fa>
100045fe:	9a0b      	ldr	r2, [sp, #44]	; 0x2c
10004600:	2361      	movs	r3, #97	; 0x61
10004602:	0692      	lsls	r2, r2, #26
10004604:	d500      	bpl.n	10004608 <_vsnprintf+0x101c>
10004606:	2341      	movs	r3, #65	; 0x41
10004608:	b2db      	uxtb	r3, r3
1000460a:	aa20      	add	r2, sp, #128	; 0x80
1000460c:	3b0a      	subs	r3, #10
1000460e:	9208      	str	r2, [sp, #32]
10004610:	930a      	str	r3, [sp, #40]	; 0x28
10004612:	e00b      	b.n	1000462c <_vsnprintf+0x1040>
10004614:	3330      	adds	r3, #48	; 0x30
10004616:	b2db      	uxtb	r3, r3
10004618:	9908      	ldr	r1, [sp, #32]
1000461a:	1c7a      	adds	r2, r7, #1
1000461c:	55cb      	strb	r3, [r1, r7]
1000461e:	2800      	cmp	r0, #0
10004620:	d100      	bne.n	10004624 <_vsnprintf+0x1038>
10004622:	e6cc      	b.n	100043be <_vsnprintf+0xdd2>
10004624:	2a20      	cmp	r2, #32
10004626:	d100      	bne.n	1000462a <_vsnprintf+0x103e>
10004628:	e6c9      	b.n	100043be <_vsnprintf+0xdd2>
1000462a:	0017      	movs	r7, r2
1000462c:	990c      	ldr	r1, [sp, #48]	; 0x30
1000462e:	f000 f957 	bl	100048e0 <__wrap___aeabi_uidiv>
10004632:	b2cb      	uxtb	r3, r1
10004634:	2909      	cmp	r1, #9
10004636:	d9ed      	bls.n	10004614 <_vsnprintf+0x1028>
10004638:	9a0a      	ldr	r2, [sp, #40]	; 0x28
1000463a:	4694      	mov	ip, r2
1000463c:	4463      	add	r3, ip
1000463e:	b2db      	uxtb	r3, r3
10004640:	e7ea      	b.n	10004618 <_vsnprintf+0x102c>
10004642:	9b0d      	ldr	r3, [sp, #52]	; 0x34
10004644:	9114      	str	r1, [sp, #80]	; 0x50
10004646:	9316      	str	r3, [sp, #88]	; 0x58
10004648:	2300      	movs	r3, #0
1000464a:	930f      	str	r3, [sp, #60]	; 0x3c
1000464c:	9b0f      	ldr	r3, [sp, #60]	; 0x3c
1000464e:	429c      	cmp	r4, r3
10004650:	dd57      	ble.n	10004702 <_vsnprintf+0x1116>
10004652:	1ae4      	subs	r4, r4, r3
10004654:	3c01      	subs	r4, #1
10004656:	2380      	movs	r3, #128	; 0x80
10004658:	00db      	lsls	r3, r3, #3
1000465a:	431f      	orrs	r7, r3
1000465c:	2300      	movs	r3, #0
1000465e:	9310      	str	r3, [sp, #64]	; 0x40
10004660:	930f      	str	r3, [sp, #60]	; 0x3c
10004662:	f7ff fb4a 	bl	10003cfa <_vsnprintf+0x70e>
10004666:	950b      	str	r5, [sp, #44]	; 0x2c
10004668:	07bb      	lsls	r3, r7, #30
1000466a:	d10f      	bne.n	1000468c <_vsnprintf+0x10a0>
1000466c:	9b0e      	ldr	r3, [sp, #56]	; 0x38
1000466e:	2b04      	cmp	r3, #4
10004670:	d959      	bls.n	10004726 <_vsnprintf+0x113a>
10004672:	469c      	mov	ip, r3
10004674:	002a      	movs	r2, r5
10004676:	1f2c      	subs	r4, r5, #4
10004678:	4464      	add	r4, ip
1000467a:	1c53      	adds	r3, r2, #1
1000467c:	930b      	str	r3, [sp, #44]	; 0x2c
1000467e:	4649      	mov	r1, r9
10004680:	4643      	mov	r3, r8
10004682:	2020      	movs	r0, #32
10004684:	47d0      	blx	sl
10004686:	9a0b      	ldr	r2, [sp, #44]	; 0x2c
10004688:	4294      	cmp	r4, r2
1000468a:	d1f6      	bne.n	1000467a <_vsnprintf+0x108e>
1000468c:	2404      	movs	r4, #4
1000468e:	4b4d      	ldr	r3, [pc, #308]	; (100047c4 <_vsnprintf+0x11d8>)
10004690:	9a0b      	ldr	r2, [sp, #44]	; 0x2c
10004692:	9308      	str	r3, [sp, #32]
10004694:	970c      	str	r7, [sp, #48]	; 0x30
10004696:	9b08      	ldr	r3, [sp, #32]
10004698:	3c01      	subs	r4, #1
1000469a:	1c57      	adds	r7, r2, #1
1000469c:	5d18      	ldrb	r0, [r3, r4]
1000469e:	4649      	mov	r1, r9
100046a0:	4643      	mov	r3, r8
100046a2:	47d0      	blx	sl
100046a4:	003a      	movs	r2, r7
100046a6:	2c00      	cmp	r4, #0
100046a8:	d1f5      	bne.n	10004696 <_vsnprintf+0x10aa>
100046aa:	9a0b      	ldr	r2, [sp, #44]	; 0x2c
100046ac:	9b17      	ldr	r3, [sp, #92]	; 0x5c
100046ae:	9f0c      	ldr	r7, [sp, #48]	; 0x30
100046b0:	3204      	adds	r2, #4
100046b2:	2b00      	cmp	r3, #0
100046b4:	d101      	bne.n	100046ba <_vsnprintf+0x10ce>
100046b6:	f7ff fb72 	bl	10003d9e <_vsnprintf+0x7b2>
100046ba:	990e      	ldr	r1, [sp, #56]	; 0x38
100046bc:	1b53      	subs	r3, r2, r5
100046be:	428b      	cmp	r3, r1
100046c0:	d301      	bcc.n	100046c6 <_vsnprintf+0x10da>
100046c2:	f7ff fb6c 	bl	10003d9e <_vsnprintf+0x7b2>
100046c6:	4643      	mov	r3, r8
100046c8:	4649      	mov	r1, r9
100046ca:	2020      	movs	r0, #32
100046cc:	1c54      	adds	r4, r2, #1
100046ce:	47d0      	blx	sl
100046d0:	990e      	ldr	r1, [sp, #56]	; 0x38
100046d2:	0022      	movs	r2, r4
100046d4:	1b63      	subs	r3, r4, r5
100046d6:	428b      	cmp	r3, r1
100046d8:	d3f5      	bcc.n	100046c6 <_vsnprintf+0x10da>
100046da:	f7ff fb60 	bl	10003d9e <_vsnprintf+0x7b2>
100046de:	2300      	movs	r3, #0
100046e0:	9308      	str	r3, [sp, #32]
100046e2:	f7ff f875 	bl	100037d0 <_vsnprintf+0x1e4>
100046e6:	ab20      	add	r3, sp, #128	; 0x80
100046e8:	2200      	movs	r2, #0
100046ea:	9308      	str	r3, [sp, #32]
100046ec:	e667      	b.n	100043be <_vsnprintf+0xdd2>
100046ee:	ab20      	add	r3, sp, #128	; 0x80
100046f0:	2200      	movs	r2, #0
100046f2:	9308      	str	r3, [sp, #32]
100046f4:	e58f      	b.n	10004216 <_vsnprintf+0xc2a>
100046f6:	9b0a      	ldr	r3, [sp, #40]	; 0x28
100046f8:	681b      	ldr	r3, [r3, #0]
100046fa:	f7ff f946 	bl	1000398a <_vsnprintf+0x39e>
100046fe:	9308      	str	r3, [sp, #32]
10004700:	e572      	b.n	100041e8 <_vsnprintf+0xbfc>
10004702:	2400      	movs	r4, #0
10004704:	e7a7      	b.n	10004656 <_vsnprintf+0x106a>
10004706:	002f      	movs	r7, r5
10004708:	0025      	movs	r5, r4
1000470a:	e466      	b.n	10003fda <_vsnprintf+0x9ee>
1000470c:	aa20      	add	r2, sp, #128	; 0x80
1000470e:	2300      	movs	r3, #0
10004710:	9208      	str	r2, [sp, #32]
10004712:	e674      	b.n	100043fe <_vsnprintf+0xe12>
10004714:	9b0a      	ldr	r3, [sp, #40]	; 0x28
10004716:	6818      	ldr	r0, [r3, #0]
10004718:	e41b      	b.n	10003f52 <_vsnprintf+0x966>
1000471a:	ab20      	add	r3, sp, #128	; 0x80
1000471c:	2200      	movs	r2, #0
1000471e:	9308      	str	r3, [sp, #32]
10004720:	e73a      	b.n	10004598 <_vsnprintf+0xfac>
10004722:	950b      	str	r5, [sp, #44]	; 0x2c
10004724:	e4e8      	b.n	100040f8 <_vsnprintf+0xb0c>
10004726:	950b      	str	r5, [sp, #44]	; 0x2c
10004728:	e7b0      	b.n	1000468c <_vsnprintf+0x10a0>
1000472a:	002c      	movs	r4, r5
1000472c:	07bb      	lsls	r3, r7, #30
1000472e:	d110      	bne.n	10004752 <_vsnprintf+0x1166>
10004730:	9b0e      	ldr	r3, [sp, #56]	; 0x38
10004732:	2b03      	cmp	r3, #3
10004734:	d90d      	bls.n	10004752 <_vsnprintf+0x1166>
10004736:	469c      	mov	ip, r3
10004738:	002a      	movs	r2, r5
1000473a:	1eec      	subs	r4, r5, #3
1000473c:	4464      	add	r4, ip
1000473e:	9408      	str	r4, [sp, #32]
10004740:	4643      	mov	r3, r8
10004742:	4649      	mov	r1, r9
10004744:	2020      	movs	r0, #32
10004746:	1c54      	adds	r4, r2, #1
10004748:	47d0      	blx	sl
1000474a:	9b08      	ldr	r3, [sp, #32]
1000474c:	0022      	movs	r2, r4
1000474e:	42a3      	cmp	r3, r4
10004750:	d1f6      	bne.n	10004740 <_vsnprintf+0x1154>
10004752:	2303      	movs	r3, #3
10004754:	9308      	str	r3, [sp, #32]
10004756:	4b1c      	ldr	r3, [pc, #112]	; (100047c8 <_vsnprintf+0x11dc>)
10004758:	0022      	movs	r2, r4
1000475a:	930b      	str	r3, [sp, #44]	; 0x2c
1000475c:	002b      	movs	r3, r5
1000475e:	003d      	movs	r5, r7
10004760:	001f      	movs	r7, r3
10004762:	9b08      	ldr	r3, [sp, #32]
10004764:	980b      	ldr	r0, [sp, #44]	; 0x2c
10004766:	1c51      	adds	r1, r2, #1
10004768:	3b01      	subs	r3, #1
1000476a:	910c      	str	r1, [sp, #48]	; 0x30
1000476c:	9308      	str	r3, [sp, #32]
1000476e:	5cc0      	ldrb	r0, [r0, r3]
10004770:	4649      	mov	r1, r9
10004772:	4643      	mov	r3, r8
10004774:	47d0      	blx	sl
10004776:	9b08      	ldr	r3, [sp, #32]
10004778:	9a0c      	ldr	r2, [sp, #48]	; 0x30
1000477a:	2b00      	cmp	r3, #0
1000477c:	d1f2      	bne.n	10004764 <_vsnprintf+0x1178>
1000477e:	003b      	movs	r3, r7
10004780:	002f      	movs	r7, r5
10004782:	001d      	movs	r5, r3
10004784:	9b17      	ldr	r3, [sp, #92]	; 0x5c
10004786:	1ce2      	adds	r2, r4, #3
10004788:	2b00      	cmp	r3, #0
1000478a:	d101      	bne.n	10004790 <_vsnprintf+0x11a4>
1000478c:	f7ff fb07 	bl	10003d9e <_vsnprintf+0x7b2>
10004790:	990e      	ldr	r1, [sp, #56]	; 0x38
10004792:	1b53      	subs	r3, r2, r5
10004794:	428b      	cmp	r3, r1
10004796:	d301      	bcc.n	1000479c <_vsnprintf+0x11b0>
10004798:	f7ff fb01 	bl	10003d9e <_vsnprintf+0x7b2>
1000479c:	4643      	mov	r3, r8
1000479e:	4649      	mov	r1, r9
100047a0:	2020      	movs	r0, #32
100047a2:	1c54      	adds	r4, r2, #1
100047a4:	47d0      	blx	sl
100047a6:	990e      	ldr	r1, [sp, #56]	; 0x38
100047a8:	0022      	movs	r2, r4
100047aa:	1b63      	subs	r3, r4, r5
100047ac:	428b      	cmp	r3, r1
100047ae:	d3f5      	bcc.n	1000479c <_vsnprintf+0x11b0>
100047b0:	f7ff faf5 	bl	10003d9e <_vsnprintf+0x7b2>
100047b4:	950b      	str	r5, [sp, #44]	; 0x2c
100047b6:	e564      	b.n	10004282 <_vsnprintf+0xc96>
100047b8:	3b06      	subs	r3, #6
100047ba:	0017      	movs	r7, r2
100047bc:	930c      	str	r3, [sp, #48]	; 0x30
100047be:	e609      	b.n	100043d4 <_vsnprintf+0xde8>
100047c0:	1000827c 	.word	0x1000827c
100047c4:	1000826c 	.word	0x1000826c
100047c8:	10008268 	.word	0x10008268

100047cc <vfctprintf>:
100047cc:	b500      	push	{lr}
100047ce:	b085      	sub	sp, #20
100047d0:	9103      	str	r1, [sp, #12]
100047d2:	2101      	movs	r1, #1
100047d4:	9002      	str	r0, [sp, #8]
100047d6:	9300      	str	r3, [sp, #0]
100047d8:	4803      	ldr	r0, [pc, #12]	; (100047e8 <vfctprintf+0x1c>)
100047da:	0013      	movs	r3, r2
100047dc:	424a      	negs	r2, r1
100047de:	a902      	add	r1, sp, #8
100047e0:	f7fe ff04 	bl	100035ec <_vsnprintf>
100047e4:	b005      	add	sp, #20
100047e6:	bd00      	pop	{pc}
100047e8:	100021b1 	.word	0x100021b1

100047ec <weak_raw_vprintf>:
100047ec:	b510      	push	{r4, lr}
100047ee:	4a09      	ldr	r2, [pc, #36]	; (10004814 <weak_raw_vprintf+0x28>)
100047f0:	b084      	sub	sp, #16
100047f2:	6814      	ldr	r4, [r2, #0]
100047f4:	2c00      	cmp	r4, #0
100047f6:	d009      	beq.n	1000480c <weak_raw_vprintf+0x20>
100047f8:	2201      	movs	r2, #1
100047fa:	9100      	str	r1, [sp, #0]
100047fc:	0003      	movs	r3, r0
100047fe:	4252      	negs	r2, r2
10004800:	a903      	add	r1, sp, #12
10004802:	4805      	ldr	r0, [pc, #20]	; (10004818 <weak_raw_vprintf+0x2c>)
10004804:	47a0      	blx	r4
10004806:	2001      	movs	r0, #1
10004808:	b004      	add	sp, #16
1000480a:	bd10      	pop	{r4, pc}
1000480c:	f000 ffd6 	bl	100057bc <__wrap_puts>
10004810:	2000      	movs	r0, #0
10004812:	e7f9      	b.n	10004808 <weak_raw_vprintf+0x1c>
10004814:	20000f6c 	.word	0x20000f6c
10004818:	100021c1 	.word	0x100021c1

1000481c <__aeabi_bits_init>:
1000481c:	4801      	ldr	r0, [pc, #4]	; (10004824 <__aeabi_bits_init+0x8>)
1000481e:	2104      	movs	r1, #4
10004820:	4b01      	ldr	r3, [pc, #4]	; (10004828 <__aeabi_bits_init+0xc>)
10004822:	4718      	bx	r3
10004824:	200002c0 	.word	0x200002c0
10004828:	1000484d 	.word	0x1000484d

1000482c <rom_func_lookup>:
1000482c:	2314      	movs	r3, #20
1000482e:	b510      	push	{r4, lr}
10004830:	0001      	movs	r1, r0
10004832:	8818      	ldrh	r0, [r3, #0]
10004834:	3304      	adds	r3, #4
10004836:	881b      	ldrh	r3, [r3, #0]
10004838:	4798      	blx	r3
1000483a:	bd10      	pop	{r4, pc}

1000483c <rom_data_lookup>:
1000483c:	2316      	movs	r3, #22
1000483e:	b510      	push	{r4, lr}
10004840:	0001      	movs	r1, r0
10004842:	8818      	ldrh	r0, [r3, #0]
10004844:	3302      	adds	r3, #2
10004846:	881b      	ldrh	r3, [r3, #0]
10004848:	4798      	blx	r3
1000484a:	bd10      	pop	{r4, pc}

1000484c <rom_funcs_lookup>:
1000484c:	b5f0      	push	{r4, r5, r6, r7, lr}
1000484e:	46c6      	mov	lr, r8
10004850:	b500      	push	{lr}
10004852:	2900      	cmp	r1, #0
10004854:	d016      	beq.n	10004884 <rom_funcs_lookup+0x38>
10004856:	2314      	movs	r3, #20
10004858:	0004      	movs	r4, r0
1000485a:	2501      	movs	r5, #1
1000485c:	4698      	mov	r8, r3
1000485e:	2718      	movs	r7, #24
10004860:	0089      	lsls	r1, r1, #2
10004862:	1846      	adds	r6, r0, r1
10004864:	4643      	mov	r3, r8
10004866:	6821      	ldr	r1, [r4, #0]
10004868:	8818      	ldrh	r0, [r3, #0]
1000486a:	883b      	ldrh	r3, [r7, #0]
1000486c:	4798      	blx	r3
1000486e:	c401      	stmia	r4!, {r0}
10004870:	1e43      	subs	r3, r0, #1
10004872:	4198      	sbcs	r0, r3
10004874:	4240      	negs	r0, r0
10004876:	4005      	ands	r5, r0
10004878:	42a6      	cmp	r6, r4
1000487a:	d1f3      	bne.n	10004864 <rom_funcs_lookup+0x18>
1000487c:	0028      	movs	r0, r5
1000487e:	bc04      	pop	{r2}
10004880:	4690      	mov	r8, r2
10004882:	bdf0      	pop	{r4, r5, r6, r7, pc}
10004884:	2501      	movs	r5, #1
10004886:	e7f9      	b.n	1000487c <rom_funcs_lookup+0x30>

10004888 <__wrap___aeabi_idiv>:
10004888:	4a14      	ldr	r2, [pc, #80]	; (100048dc <divmod_s32s32_savestate+0x20>)
1000488a:	6f93      	ldr	r3, [r2, #120]	; 0x78
1000488c:	089b      	lsrs	r3, r3, #2
1000488e:	d215      	bcs.n	100048bc <divmod_s32s32_savestate>

10004890 <divmod_s32s32_unsafe>:
10004890:	6690      	str	r0, [r2, #104]	; 0x68
10004892:	66d1      	str	r1, [r2, #108]	; 0x6c
10004894:	2900      	cmp	r1, #0
10004896:	d005      	beq.n	100048a4 <divmod_s32s32_unsafe+0x14>
10004898:	e7ff      	b.n	1000489a <divmod_s32s32_unsafe+0xa>
1000489a:	e7ff      	b.n	1000489c <divmod_s32s32_unsafe+0xc>
1000489c:	e7ff      	b.n	1000489e <divmod_s32s32_unsafe+0xe>
1000489e:	6f51      	ldr	r1, [r2, #116]	; 0x74
100048a0:	6f10      	ldr	r0, [r2, #112]	; 0x70
100048a2:	4770      	bx	lr
100048a4:	b504      	push	{r2, lr}
100048a6:	2180      	movs	r1, #128	; 0x80
100048a8:	0609      	lsls	r1, r1, #24
100048aa:	17c2      	asrs	r2, r0, #31
100048ac:	4051      	eors	r1, r2
100048ae:	2800      	cmp	r0, #0
100048b0:	d000      	beq.n	100048b4 <divmod_s32s32_unsafe+0x24>
100048b2:	43c8      	mvns	r0, r1
100048b4:	f003 fb3c 	bl	10007f30 <____aeabi_idiv0_veneer>
100048b8:	2100      	movs	r1, #0
100048ba:	bd04      	pop	{r2, pc}

100048bc <divmod_s32s32_savestate>:
100048bc:	6f93      	ldr	r3, [r2, #120]	; 0x78
100048be:	085b      	lsrs	r3, r3, #1
100048c0:	d3fd      	bcc.n	100048be <divmod_s32s32_savestate+0x2>
100048c2:	b5f0      	push	{r4, r5, r6, r7, lr}
100048c4:	6e94      	ldr	r4, [r2, #104]	; 0x68
100048c6:	6ed5      	ldr	r5, [r2, #108]	; 0x6c
100048c8:	6f57      	ldr	r7, [r2, #116]	; 0x74
100048ca:	6f16      	ldr	r6, [r2, #112]	; 0x70
100048cc:	f7ff ffe0 	bl	10004890 <divmod_s32s32_unsafe>
100048d0:	6694      	str	r4, [r2, #104]	; 0x68
100048d2:	66d5      	str	r5, [r2, #108]	; 0x6c
100048d4:	6757      	str	r7, [r2, #116]	; 0x74
100048d6:	6716      	str	r6, [r2, #112]	; 0x70
100048d8:	bdf0      	pop	{r4, r5, r6, r7, pc}
100048da:	0000      	.short	0x0000
100048dc:	d0000000 	.word	0xd0000000

100048e0 <__wrap___aeabi_uidiv>:
100048e0:	4a13      	ldr	r2, [pc, #76]	; (10004930 <divmod_u32u32_savestate+0x20>)
100048e2:	6f93      	ldr	r3, [r2, #120]	; 0x78
100048e4:	089b      	lsrs	r3, r3, #2
100048e6:	d213      	bcs.n	10004910 <divmod_u32u32_savestate>

100048e8 <divmod_u32u32_unsafe>:
100048e8:	6610      	str	r0, [r2, #96]	; 0x60
100048ea:	6651      	str	r1, [r2, #100]	; 0x64
100048ec:	2900      	cmp	r1, #0
100048ee:	d005      	beq.n	100048fc <divmod_u32u32_unsafe+0x14>
100048f0:	e7ff      	b.n	100048f2 <divmod_u32u32_unsafe+0xa>
100048f2:	e7ff      	b.n	100048f4 <divmod_u32u32_unsafe+0xc>
100048f4:	e7ff      	b.n	100048f6 <divmod_u32u32_unsafe+0xe>
100048f6:	6f51      	ldr	r1, [r2, #116]	; 0x74
100048f8:	6f10      	ldr	r0, [r2, #112]	; 0x70
100048fa:	4770      	bx	lr
100048fc:	b504      	push	{r2, lr}
100048fe:	2800      	cmp	r0, #0
10004900:	d001      	beq.n	10004906 <divmod_u32u32_unsafe+0x1e>
10004902:	2000      	movs	r0, #0
10004904:	43c0      	mvns	r0, r0
10004906:	f003 fb13 	bl	10007f30 <____aeabi_idiv0_veneer>
1000490a:	2100      	movs	r1, #0
1000490c:	bd04      	pop	{r2, pc}
1000490e:	46c0      	nop			; (mov r8, r8)

10004910 <divmod_u32u32_savestate>:
10004910:	6f93      	ldr	r3, [r2, #120]	; 0x78
10004912:	085b      	lsrs	r3, r3, #1
10004914:	d3fd      	bcc.n	10004912 <divmod_u32u32_savestate+0x2>
10004916:	b5f0      	push	{r4, r5, r6, r7, lr}
10004918:	6e94      	ldr	r4, [r2, #104]	; 0x68
1000491a:	6ed5      	ldr	r5, [r2, #108]	; 0x6c
1000491c:	6f57      	ldr	r7, [r2, #116]	; 0x74
1000491e:	6f16      	ldr	r6, [r2, #112]	; 0x70
10004920:	f7ff ffe2 	bl	100048e8 <divmod_u32u32_unsafe>
10004924:	6694      	str	r4, [r2, #104]	; 0x68
10004926:	66d5      	str	r5, [r2, #108]	; 0x6c
10004928:	6757      	str	r7, [r2, #116]	; 0x74
1000492a:	6716      	str	r6, [r2, #112]	; 0x70
1000492c:	bdf0      	pop	{r4, r5, r6, r7, pc}
1000492e:	0000      	.short	0x0000
10004930:	d0000000 	.word	0xd0000000

10004934 <__wrap___aeabi_ldivmod>:
10004934:	4694      	mov	ip, r2
10004936:	4a4e      	ldr	r2, [pc, #312]	; (10004a70 <udiv0+0x1a>)
10004938:	6f92      	ldr	r2, [r2, #120]	; 0x78
1000493a:	0892      	lsrs	r2, r2, #2
1000493c:	4662      	mov	r2, ip
1000493e:	d201      	bcs.n	10004944 <divmod_s64s64_savestate>
10004940:	e030      	b.n	100049a4 <divmod_s64s64_unsafe>
10004942:	46c0      	nop			; (mov r8, r8)

10004944 <divmod_s64s64_savestate>:
10004944:	b5f0      	push	{r4, r5, r6, r7, lr}
10004946:	4e4a      	ldr	r6, [pc, #296]	; (10004a70 <udiv0+0x1a>)
10004948:	6fb5      	ldr	r5, [r6, #120]	; 0x78
1000494a:	086d      	lsrs	r5, r5, #1
1000494c:	d3fc      	bcc.n	10004948 <divmod_s64s64_savestate+0x4>
1000494e:	6e34      	ldr	r4, [r6, #96]	; 0x60
10004950:	6e75      	ldr	r5, [r6, #100]	; 0x64
10004952:	6f77      	ldr	r7, [r6, #116]	; 0x74
10004954:	6f36      	ldr	r6, [r6, #112]	; 0x70
10004956:	f000 f825 	bl	100049a4 <divmod_s64s64_unsafe>
1000495a:	4694      	mov	ip, r2
1000495c:	4a44      	ldr	r2, [pc, #272]	; (10004a70 <udiv0+0x1a>)
1000495e:	6614      	str	r4, [r2, #96]	; 0x60
10004960:	6655      	str	r5, [r2, #100]	; 0x64
10004962:	6757      	str	r7, [r2, #116]	; 0x74
10004964:	6716      	str	r6, [r2, #112]	; 0x70
10004966:	4662      	mov	r2, ip
10004968:	bdf0      	pop	{r4, r5, r6, r7, pc}
1000496a:	46c0      	nop			; (mov r8, r8)

1000496c <__wrap___aeabi_uldivmod>:
1000496c:	4694      	mov	ip, r2
1000496e:	4a40      	ldr	r2, [pc, #256]	; (10004a70 <udiv0+0x1a>)
10004970:	6f92      	ldr	r2, [r2, #120]	; 0x78
10004972:	0892      	lsrs	r2, r2, #2
10004974:	4662      	mov	r2, ip
10004976:	d201      	bcs.n	1000497c <divmod_u64u64_savestate>
10004978:	e058      	b.n	10004a2c <divmod_u64u64_unsafe>
1000497a:	46c0      	nop			; (mov r8, r8)

1000497c <divmod_u64u64_savestate>:
1000497c:	b5f0      	push	{r4, r5, r6, r7, lr}
1000497e:	4e3c      	ldr	r6, [pc, #240]	; (10004a70 <udiv0+0x1a>)
10004980:	6fb5      	ldr	r5, [r6, #120]	; 0x78
10004982:	086d      	lsrs	r5, r5, #1
10004984:	d3fc      	bcc.n	10004980 <divmod_u64u64_savestate+0x4>
10004986:	6e34      	ldr	r4, [r6, #96]	; 0x60
10004988:	6e75      	ldr	r5, [r6, #100]	; 0x64
1000498a:	6f77      	ldr	r7, [r6, #116]	; 0x74
1000498c:	6f36      	ldr	r6, [r6, #112]	; 0x70
1000498e:	f000 f84d 	bl	10004a2c <divmod_u64u64_unsafe>
10004992:	4694      	mov	ip, r2
10004994:	4a36      	ldr	r2, [pc, #216]	; (10004a70 <udiv0+0x1a>)
10004996:	6614      	str	r4, [r2, #96]	; 0x60
10004998:	6655      	str	r5, [r2, #100]	; 0x64
1000499a:	6757      	str	r7, [r2, #116]	; 0x74
1000499c:	6716      	str	r6, [r2, #112]	; 0x70
1000499e:	4662      	mov	r2, ip
100049a0:	bdf0      	pop	{r4, r5, r6, r7, pc}
100049a2:	46c0      	nop			; (mov r8, r8)

100049a4 <divmod_s64s64_unsafe>:
100049a4:	2b00      	cmp	r3, #0
100049a6:	db24      	blt.n	100049f2 <l41_1+0x26>
100049a8:	d011      	beq.n	100049ce <l41_1+0x2>
100049aa:	2900      	cmp	r1, #0
100049ac:	da3e      	bge.n	10004a2c <divmod_u64u64_unsafe>
100049ae:	b500      	push	{lr}
100049b0:	43c9      	mvns	r1, r1
100049b2:	4240      	negs	r0, r0
100049b4:	d100      	bne.n	100049b8 <l39_1>
100049b6:	3101      	adds	r1, #1

100049b8 <l39_1>:
100049b8:	f000 f838 	bl	10004a2c <divmod_u64u64_unsafe>
100049bc:	43c9      	mvns	r1, r1
100049be:	4240      	negs	r0, r0
100049c0:	d100      	bne.n	100049c4 <l40_1>
100049c2:	3101      	adds	r1, #1

100049c4 <l40_1>:
100049c4:	43db      	mvns	r3, r3
100049c6:	4252      	negs	r2, r2
100049c8:	d100      	bne.n	100049cc <l41_1>
100049ca:	3301      	adds	r3, #1

100049cc <l41_1>:
100049cc:	bd00      	pop	{pc}
100049ce:	2a00      	cmp	r2, #0
100049d0:	d1eb      	bne.n	100049aa <divmod_s64s64_unsafe+0x6>
100049d2:	2800      	cmp	r0, #0
100049d4:	d101      	bne.n	100049da <l41_1+0xe>
100049d6:	2900      	cmp	r1, #0
100049d8:	d005      	beq.n	100049e6 <l41_1+0x1a>
100049da:	2000      	movs	r0, #0
100049dc:	0fc9      	lsrs	r1, r1, #31
100049de:	07c9      	lsls	r1, r1, #31
100049e0:	d101      	bne.n	100049e6 <l41_1+0x1a>
100049e2:	43c0      	mvns	r0, r0
100049e4:	0841      	lsrs	r1, r0, #1
100049e6:	b500      	push	{lr}
100049e8:	f003 fa9a 	bl	10007f20 <____aeabi_ldiv0_veneer>
100049ec:	2200      	movs	r2, #0
100049ee:	2300      	movs	r3, #0
100049f0:	bd00      	pop	{pc}
100049f2:	b500      	push	{lr}
100049f4:	2900      	cmp	r1, #0
100049f6:	db0a      	blt.n	10004a0e <l43_1+0x2>
100049f8:	43db      	mvns	r3, r3
100049fa:	4252      	negs	r2, r2
100049fc:	d100      	bne.n	10004a00 <l42_1>
100049fe:	3301      	adds	r3, #1

10004a00 <l42_1>:
10004a00:	f000 f814 	bl	10004a2c <divmod_u64u64_unsafe>
10004a04:	43c9      	mvns	r1, r1
10004a06:	4240      	negs	r0, r0
10004a08:	d100      	bne.n	10004a0c <l43_1>
10004a0a:	3101      	adds	r1, #1

10004a0c <l43_1>:
10004a0c:	bd00      	pop	{pc}
10004a0e:	43c9      	mvns	r1, r1
10004a10:	4240      	negs	r0, r0
10004a12:	d100      	bne.n	10004a16 <l44_1>
10004a14:	3101      	adds	r1, #1

10004a16 <l44_1>:
10004a16:	43db      	mvns	r3, r3
10004a18:	4252      	negs	r2, r2
10004a1a:	d100      	bne.n	10004a1e <l45_1>
10004a1c:	3301      	adds	r3, #1

10004a1e <l45_1>:
10004a1e:	f000 f805 	bl	10004a2c <divmod_u64u64_unsafe>
10004a22:	43db      	mvns	r3, r3
10004a24:	4252      	negs	r2, r2
10004a26:	d100      	bne.n	10004a2a <l46_1>
10004a28:	3301      	adds	r3, #1

10004a2a <l46_1>:
10004a2a:	bd00      	pop	{pc}

10004a2c <divmod_u64u64_unsafe>:
10004a2c:	2900      	cmp	r1, #0
10004a2e:	d123      	bne.n	10004a78 <y64>
10004a30:	2b00      	cmp	r3, #0
10004a32:	d118      	bne.n	10004a66 <udiv0+0x10>
10004a34:	2a00      	cmp	r2, #0
10004a36:	d00c      	beq.n	10004a52 <divmod_u64u64_unsafe+0x26>
10004a38:	46bc      	mov	ip, r7
10004a3a:	4f0d      	ldr	r7, [pc, #52]	; (10004a70 <udiv0+0x1a>)
10004a3c:	6638      	str	r0, [r7, #96]	; 0x60
10004a3e:	667a      	str	r2, [r7, #100]	; 0x64
10004a40:	2100      	movs	r1, #0
10004a42:	2300      	movs	r3, #0
10004a44:	e7ff      	b.n	10004a46 <divmod_u64u64_unsafe+0x1a>
10004a46:	e7ff      	b.n	10004a48 <divmod_u64u64_unsafe+0x1c>
10004a48:	e7ff      	b.n	10004a4a <divmod_u64u64_unsafe+0x1e>
10004a4a:	6f7a      	ldr	r2, [r7, #116]	; 0x74
10004a4c:	6f38      	ldr	r0, [r7, #112]	; 0x70
10004a4e:	4667      	mov	r7, ip
10004a50:	4770      	bx	lr
10004a52:	2800      	cmp	r0, #0
10004a54:	d001      	beq.n	10004a5a <udiv0+0x4>

10004a56 <udiv0>:
10004a56:	4807      	ldr	r0, [pc, #28]	; (10004a74 <udiv0+0x1e>)
10004a58:	0001      	movs	r1, r0
10004a5a:	b500      	push	{lr}
10004a5c:	f003 fa60 	bl	10007f20 <____aeabi_ldiv0_veneer>
10004a60:	2200      	movs	r2, #0
10004a62:	2300      	movs	r3, #0
10004a64:	bd00      	pop	{pc}
10004a66:	0002      	movs	r2, r0
10004a68:	000b      	movs	r3, r1
10004a6a:	2000      	movs	r0, #0
10004a6c:	2100      	movs	r1, #0
10004a6e:	4770      	bx	lr
10004a70:	d0000000 	.word	0xd0000000
10004a74:	ffffffff 	.word	0xffffffff

10004a78 <y64>:
10004a78:	2b00      	cmp	r3, #0
10004a7a:	d000      	beq.n	10004a7e <y64+0x6>
10004a7c:	e0bd      	b.n	10004bfa <y64_x48>
10004a7e:	0c13      	lsrs	r3, r2, #16
10004a80:	d126      	bne.n	10004ad0 <y64_x32>
10004a82:	2a00      	cmp	r2, #0
10004a84:	d0e7      	beq.n	10004a56 <udiv0>
10004a86:	b480      	push	{r7}
10004a88:	4f10      	ldr	r7, [pc, #64]	; (10004acc <y64+0x54>)
10004a8a:	6639      	str	r1, [r7, #96]	; 0x60
10004a8c:	667a      	str	r2, [r7, #100]	; 0x64
10004a8e:	e7ff      	b.n	10004a90 <y64+0x18>
10004a90:	e7ff      	b.n	10004a92 <y64+0x1a>
10004a92:	b430      	push	{r4, r5}
10004a94:	0c04      	lsrs	r4, r0, #16
10004a96:	6f7b      	ldr	r3, [r7, #116]	; 0x74
10004a98:	6f39      	ldr	r1, [r7, #112]	; 0x70
10004a9a:	041b      	lsls	r3, r3, #16
10004a9c:	4323      	orrs	r3, r4
10004a9e:	663b      	str	r3, [r7, #96]	; 0x60
10004aa0:	e7ff      	b.n	10004aa2 <y64+0x2a>
10004aa2:	e7ff      	b.n	10004aa4 <y64+0x2c>
10004aa4:	e7ff      	b.n	10004aa6 <y64+0x2e>
10004aa6:	46c0      	nop			; (mov r8, r8)
10004aa8:	b284      	uxth	r4, r0
10004aaa:	6f7b      	ldr	r3, [r7, #116]	; 0x74
10004aac:	6f3d      	ldr	r5, [r7, #112]	; 0x70
10004aae:	041b      	lsls	r3, r3, #16
10004ab0:	4323      	orrs	r3, r4
10004ab2:	663b      	str	r3, [r7, #96]	; 0x60
10004ab4:	e7ff      	b.n	10004ab6 <y64+0x3e>
10004ab6:	e7ff      	b.n	10004ab8 <y64+0x40>
10004ab8:	46c0      	nop			; (mov r8, r8)
10004aba:	2300      	movs	r3, #0
10004abc:	042c      	lsls	r4, r5, #16
10004abe:	0c2d      	lsrs	r5, r5, #16
10004ac0:	6f7a      	ldr	r2, [r7, #116]	; 0x74
10004ac2:	6f38      	ldr	r0, [r7, #112]	; 0x70
10004ac4:	1900      	adds	r0, r0, r4
10004ac6:	4169      	adcs	r1, r5
10004ac8:	bcb0      	pop	{r4, r5, r7}
10004aca:	4770      	bx	lr
10004acc:	d0000000 	.word	0xd0000000

10004ad0 <y64_x32>:
10004ad0:	b5f0      	push	{r4, r5, r6, r7, lr}
10004ad2:	4694      	mov	ip, r2
10004ad4:	2500      	movs	r5, #0
10004ad6:	0e14      	lsrs	r4, r2, #24
10004ad8:	d101      	bne.n	10004ade <y64_x32+0xe>
10004ada:	0212      	lsls	r2, r2, #8
10004adc:	3508      	adds	r5, #8
10004ade:	0f14      	lsrs	r4, r2, #28
10004ae0:	d101      	bne.n	10004ae6 <y64_x32+0x16>
10004ae2:	0112      	lsls	r2, r2, #4
10004ae4:	3504      	adds	r5, #4
10004ae6:	0f94      	lsrs	r4, r2, #30
10004ae8:	d101      	bne.n	10004aee <y64_x32+0x1e>
10004aea:	0092      	lsls	r2, r2, #2
10004aec:	3502      	adds	r5, #2
10004aee:	0fd4      	lsrs	r4, r2, #31
10004af0:	d101      	bne.n	10004af6 <y64_x32+0x26>
10004af2:	0052      	lsls	r2, r2, #1
10004af4:	3501      	adds	r5, #1
10004af6:	0bd4      	lsrs	r4, r2, #15
10004af8:	3401      	adds	r4, #1
10004afa:	4f25      	ldr	r7, [pc, #148]	; (10004b90 <y64_x32+0xc0>)
10004afc:	667c      	str	r4, [r7, #100]	; 0x64
10004afe:	4c25      	ldr	r4, [pc, #148]	; (10004b94 <y64_x32+0xc4>)
10004b00:	663c      	str	r4, [r7, #96]	; 0x60
10004b02:	0c0e      	lsrs	r6, r1, #16
10004b04:	b293      	uxth	r3, r2
10004b06:	e7ff      	b.n	10004b08 <y64_x32+0x38>
10004b08:	e7ff      	b.n	10004b0a <y64_x32+0x3a>
10004b0a:	e7ff      	b.n	10004b0c <y64_x32+0x3c>
10004b0c:	6f3c      	ldr	r4, [r7, #112]	; 0x70
10004b0e:	4366      	muls	r6, r4
10004b10:	0c36      	lsrs	r6, r6, #16
10004b12:	0377      	lsls	r7, r6, #13
10004b14:	46be      	mov	lr, r7
10004b16:	4373      	muls	r3, r6
10004b18:	0bdf      	lsrs	r7, r3, #15
10004b1a:	045b      	lsls	r3, r3, #17
10004b1c:	1ac0      	subs	r0, r0, r3
10004b1e:	41b9      	sbcs	r1, r7
10004b20:	0c13      	lsrs	r3, r2, #16
10004b22:	4373      	muls	r3, r6
10004b24:	18db      	adds	r3, r3, r3
10004b26:	1ac9      	subs	r1, r1, r3
10004b28:	08ce      	lsrs	r6, r1, #3
10004b2a:	4366      	muls	r6, r4
10004b2c:	0c36      	lsrs	r6, r6, #16
10004b2e:	44b6      	add	lr, r6
10004b30:	b293      	uxth	r3, r2
10004b32:	4373      	muls	r3, r6
10004b34:	0f1f      	lsrs	r7, r3, #28
10004b36:	011b      	lsls	r3, r3, #4
10004b38:	1ac0      	subs	r0, r0, r3
10004b3a:	41b9      	sbcs	r1, r7
10004b3c:	0c13      	lsrs	r3, r2, #16
10004b3e:	4373      	muls	r3, r6
10004b40:	0b1f      	lsrs	r7, r3, #12
10004b42:	051b      	lsls	r3, r3, #20
10004b44:	1ac0      	subs	r0, r0, r3
10004b46:	41b9      	sbcs	r1, r7
10004b48:	0d86      	lsrs	r6, r0, #22
10004b4a:	028f      	lsls	r7, r1, #10
10004b4c:	433e      	orrs	r6, r7
10004b4e:	4366      	muls	r6, r4
10004b50:	0c36      	lsrs	r6, r6, #16
10004b52:	2d09      	cmp	r5, #9
10004b54:	db24      	blt.n	10004ba0 <last0>
10004b56:	0a52      	lsrs	r2, r2, #9
10004b58:	4372      	muls	r2, r6
10004b5a:	1a80      	subs	r0, r0, r2
10004b5c:	0377      	lsls	r7, r6, #13
10004b5e:	0a46      	lsrs	r6, r0, #9
10004b60:	4366      	muls	r6, r4
10004b62:	0c36      	lsrs	r6, r6, #16
10004b64:	2316      	movs	r3, #22
10004b66:	1b5b      	subs	r3, r3, r5
10004b68:	40de      	lsrs	r6, r3
10004b6a:	40df      	lsrs	r7, r3
10004b6c:	19bf      	adds	r7, r7, r6
10004b6e:	4664      	mov	r4, ip
10004b70:	4366      	muls	r6, r4
10004b72:	1b82      	subs	r2, r0, r6
10004b74:	4670      	mov	r0, lr
10004b76:	3504      	adds	r5, #4
10004b78:	3306      	adds	r3, #6
10004b7a:	0001      	movs	r1, r0
10004b7c:	40d9      	lsrs	r1, r3
10004b7e:	40a8      	lsls	r0, r5
10004b80:	19c0      	adds	r0, r0, r7
10004b82:	d300      	bcc.n	10004b86 <y64_x32+0xb6>
10004b84:	3101      	adds	r1, #1
10004b86:	42a2      	cmp	r2, r4
10004b88:	d206      	bcs.n	10004b98 <y64_x32+0xc8>
10004b8a:	2300      	movs	r3, #0
10004b8c:	bdf0      	pop	{r4, r5, r6, r7, pc}
10004b8e:	0000      	.short	0x0000
10004b90:	d0000000 	.word	0xd0000000
10004b94:	ffffffff 	.word	0xffffffff
10004b98:	1b12      	subs	r2, r2, r4
10004b9a:	3001      	adds	r0, #1
10004b9c:	d3f3      	bcc.n	10004b86 <y64_x32+0xb6>
10004b9e:	e7f1      	b.n	10004b84 <y64_x32+0xb4>

10004ba0 <last0>:
10004ba0:	2709      	movs	r7, #9
10004ba2:	1b7f      	subs	r7, r7, r5
10004ba4:	40fe      	lsrs	r6, r7
10004ba6:	4664      	mov	r4, ip
10004ba8:	b2a2      	uxth	r2, r4
10004baa:	4372      	muls	r2, r6
10004bac:	1a80      	subs	r0, r0, r2
10004bae:	d200      	bcs.n	10004bb2 <last0+0x12>
10004bb0:	3901      	subs	r1, #1
10004bb2:	0c22      	lsrs	r2, r4, #16
10004bb4:	4372      	muls	r2, r6
10004bb6:	0c13      	lsrs	r3, r2, #16
10004bb8:	0412      	lsls	r2, r2, #16
10004bba:	1a82      	subs	r2, r0, r2
10004bbc:	4199      	sbcs	r1, r3
10004bbe:	000b      	movs	r3, r1
10004bc0:	4670      	mov	r0, lr
10004bc2:	3504      	adds	r5, #4
10004bc4:	3713      	adds	r7, #19
10004bc6:	0001      	movs	r1, r0
10004bc8:	40f9      	lsrs	r1, r7
10004bca:	40a8      	lsls	r0, r5
10004bcc:	1980      	adds	r0, r0, r6
10004bce:	d300      	bcc.n	10004bd2 <last0+0x32>
10004bd0:	3101      	adds	r1, #1
10004bd2:	2b00      	cmp	r3, #0
10004bd4:	d102      	bne.n	10004bdc <last0+0x3c>
10004bd6:	42a2      	cmp	r2, r4
10004bd8:	d20a      	bcs.n	10004bf0 <last0+0x50>
10004bda:	bdf0      	pop	{r4, r5, r6, r7, pc}
10004bdc:	3001      	adds	r0, #1
10004bde:	d300      	bcc.n	10004be2 <last0+0x42>
10004be0:	3101      	adds	r1, #1
10004be2:	1b12      	subs	r2, r2, r4
10004be4:	d2fa      	bcs.n	10004bdc <last0+0x3c>
10004be6:	3b01      	subs	r3, #1
10004be8:	d1f8      	bne.n	10004bdc <last0+0x3c>
10004bea:	42a2      	cmp	r2, r4
10004bec:	d200      	bcs.n	10004bf0 <last0+0x50>
10004bee:	bdf0      	pop	{r4, r5, r6, r7, pc}
10004bf0:	3001      	adds	r0, #1
10004bf2:	d300      	bcc.n	10004bf6 <last0+0x56>
10004bf4:	3101      	adds	r1, #1
10004bf6:	1b12      	subs	r2, r2, r4
10004bf8:	e7f7      	b.n	10004bea <last0+0x4a>

10004bfa <y64_x48>:
10004bfa:	b5f0      	push	{r4, r5, r6, r7, lr}
10004bfc:	0c1c      	lsrs	r4, r3, #16
10004bfe:	d000      	beq.n	10004c02 <y64_x48+0x8>
10004c00:	e080      	b.n	10004d04 <y64_x64>
10004c02:	b40c      	push	{r2, r3}
10004c04:	2500      	movs	r5, #0
10004c06:	0a1c      	lsrs	r4, r3, #8
10004c08:	d104      	bne.n	10004c14 <y64_x48+0x1a>
10004c0a:	021b      	lsls	r3, r3, #8
10004c0c:	0e16      	lsrs	r6, r2, #24
10004c0e:	4333      	orrs	r3, r6
10004c10:	0212      	lsls	r2, r2, #8
10004c12:	3508      	adds	r5, #8
10004c14:	0b1c      	lsrs	r4, r3, #12
10004c16:	d104      	bne.n	10004c22 <y64_x48+0x28>
10004c18:	011b      	lsls	r3, r3, #4
10004c1a:	0f16      	lsrs	r6, r2, #28
10004c1c:	4333      	orrs	r3, r6
10004c1e:	0112      	lsls	r2, r2, #4
10004c20:	3504      	adds	r5, #4
10004c22:	0b9c      	lsrs	r4, r3, #14
10004c24:	d104      	bne.n	10004c30 <y64_x48+0x36>
10004c26:	009b      	lsls	r3, r3, #2
10004c28:	0f96      	lsrs	r6, r2, #30
10004c2a:	4333      	orrs	r3, r6
10004c2c:	0092      	lsls	r2, r2, #2
10004c2e:	3502      	adds	r5, #2
10004c30:	0bdc      	lsrs	r4, r3, #15
10004c32:	d102      	bne.n	10004c3a <y64_x48+0x40>
10004c34:	1892      	adds	r2, r2, r2
10004c36:	415b      	adcs	r3, r3
10004c38:	3501      	adds	r5, #1
10004c3a:	001c      	movs	r4, r3
10004c3c:	1897      	adds	r7, r2, r2
10004c3e:	4164      	adcs	r4, r4
10004c40:	3401      	adds	r4, #1
10004c42:	4f46      	ldr	r7, [pc, #280]	; (10004d5c <y64_x64+0x58>)
10004c44:	667c      	str	r4, [r7, #100]	; 0x64
10004c46:	4c46      	ldr	r4, [pc, #280]	; (10004d60 <y64_x64+0x5c>)
10004c48:	663c      	str	r4, [r7, #96]	; 0x60
10004c4a:	0c0e      	lsrs	r6, r1, #16
10004c4c:	e7ff      	b.n	10004c4e <y64_x48+0x54>
10004c4e:	e7ff      	b.n	10004c50 <y64_x48+0x56>
10004c50:	e7ff      	b.n	10004c52 <y64_x48+0x58>
10004c52:	46c0      	nop			; (mov r8, r8)
10004c54:	6f3c      	ldr	r4, [r7, #112]	; 0x70
10004c56:	4366      	muls	r6, r4
10004c58:	0c36      	lsrs	r6, r6, #16
10004c5a:	0377      	lsls	r7, r6, #13
10004c5c:	46be      	mov	lr, r7
10004c5e:	b297      	uxth	r7, r2
10004c60:	4377      	muls	r7, r6
10004c62:	1bc0      	subs	r0, r0, r7
10004c64:	d200      	bcs.n	10004c68 <y64_x48+0x6e>
10004c66:	3901      	subs	r1, #1
10004c68:	1bc0      	subs	r0, r0, r7
10004c6a:	d200      	bcs.n	10004c6e <y64_x48+0x74>
10004c6c:	3901      	subs	r1, #1
10004c6e:	b29f      	uxth	r7, r3
10004c70:	4377      	muls	r7, r6
10004c72:	1bc9      	subs	r1, r1, r7
10004c74:	1bc9      	subs	r1, r1, r7
10004c76:	0c17      	lsrs	r7, r2, #16
10004c78:	4377      	muls	r7, r6
10004c7a:	047e      	lsls	r6, r7, #17
10004c7c:	0bff      	lsrs	r7, r7, #15
10004c7e:	1b80      	subs	r0, r0, r6
10004c80:	41b9      	sbcs	r1, r7
10004c82:	08ce      	lsrs	r6, r1, #3
10004c84:	4366      	muls	r6, r4
10004c86:	0c36      	lsrs	r6, r6, #16
10004c88:	2d0c      	cmp	r5, #12
10004c8a:	db33      	blt.n	10004cf4 <last1>
10004c8c:	44b6      	add	lr, r6
10004c8e:	0b12      	lsrs	r2, r2, #12
10004c90:	051f      	lsls	r7, r3, #20
10004c92:	433a      	orrs	r2, r7
10004c94:	0b1b      	lsrs	r3, r3, #12
10004c96:	b297      	uxth	r7, r2
10004c98:	4377      	muls	r7, r6
10004c9a:	1bc0      	subs	r0, r0, r7
10004c9c:	d200      	bcs.n	10004ca0 <y64_x48+0xa6>
10004c9e:	3901      	subs	r1, #1
10004ca0:	b29f      	uxth	r7, r3
10004ca2:	4377      	muls	r7, r6
10004ca4:	1bc9      	subs	r1, r1, r7
10004ca6:	0c17      	lsrs	r7, r2, #16
10004ca8:	4377      	muls	r7, r6
10004caa:	043e      	lsls	r6, r7, #16
10004cac:	0c3f      	lsrs	r7, r7, #16
10004cae:	1b80      	subs	r0, r0, r6
10004cb0:	41b9      	sbcs	r1, r7
10004cb2:	0d86      	lsrs	r6, r0, #22
10004cb4:	028f      	lsls	r7, r1, #10
10004cb6:	433e      	orrs	r6, r7
10004cb8:	4366      	muls	r6, r4
10004cba:	2729      	movs	r7, #41	; 0x29
10004cbc:	1b7f      	subs	r7, r7, r5
10004cbe:	40fe      	lsrs	r6, r7
10004cc0:	3d0c      	subs	r5, #12
10004cc2:	4677      	mov	r7, lr
10004cc4:	40af      	lsls	r7, r5
10004cc6:	19bf      	adds	r7, r7, r6
10004cc8:	bc30      	pop	{r4, r5}
10004cca:	b2a2      	uxth	r2, r4
10004ccc:	b2ab      	uxth	r3, r5
10004cce:	4372      	muls	r2, r6
10004cd0:	4373      	muls	r3, r6
10004cd2:	1a80      	subs	r0, r0, r2
10004cd4:	4199      	sbcs	r1, r3
10004cd6:	0c22      	lsrs	r2, r4, #16
10004cd8:	4372      	muls	r2, r6
10004cda:	0c13      	lsrs	r3, r2, #16
10004cdc:	0412      	lsls	r2, r2, #16
10004cde:	1a80      	subs	r0, r0, r2
10004ce0:	4199      	sbcs	r1, r3
10004ce2:	0002      	movs	r2, r0
10004ce4:	000b      	movs	r3, r1
10004ce6:	3701      	adds	r7, #1
10004ce8:	1b00      	subs	r0, r0, r4
10004cea:	41a9      	sbcs	r1, r5
10004cec:	d2f9      	bcs.n	10004ce2 <y64_x48+0xe8>
10004cee:	1e78      	subs	r0, r7, #1
10004cf0:	2100      	movs	r1, #0
10004cf2:	bdf0      	pop	{r4, r5, r6, r7, pc}

10004cf4 <last1>:
10004cf4:	270c      	movs	r7, #12
10004cf6:	1b7f      	subs	r7, r7, r5
10004cf8:	40fe      	lsrs	r6, r7
10004cfa:	4677      	mov	r7, lr
10004cfc:	0b7f      	lsrs	r7, r7, #13
10004cfe:	40af      	lsls	r7, r5
10004d00:	19ff      	adds	r7, r7, r7
10004d02:	e7e0      	b.n	10004cc6 <y64_x48+0xcc>

10004d04 <y64_x64>:
10004d04:	2400      	movs	r4, #0
10004d06:	1c5d      	adds	r5, r3, #1
10004d08:	d007      	beq.n	10004d1a <y64_x64+0x16>
10004d0a:	4f14      	ldr	r7, [pc, #80]	; (10004d5c <y64_x64+0x58>)
10004d0c:	667d      	str	r5, [r7, #100]	; 0x64
10004d0e:	6639      	str	r1, [r7, #96]	; 0x60
10004d10:	e7ff      	b.n	10004d12 <y64_x64+0xe>
10004d12:	e7ff      	b.n	10004d14 <y64_x64+0x10>
10004d14:	e7ff      	b.n	10004d16 <y64_x64+0x12>
10004d16:	e7ff      	b.n	10004d18 <y64_x64+0x14>
10004d18:	6f3c      	ldr	r4, [r7, #112]	; 0x70
10004d1a:	b295      	uxth	r5, r2
10004d1c:	b29e      	uxth	r6, r3
10004d1e:	4365      	muls	r5, r4
10004d20:	4366      	muls	r6, r4
10004d22:	1b40      	subs	r0, r0, r5
10004d24:	41b1      	sbcs	r1, r6
10004d26:	0c15      	lsrs	r5, r2, #16
10004d28:	0c1e      	lsrs	r6, r3, #16
10004d2a:	4365      	muls	r5, r4
10004d2c:	4366      	muls	r6, r4
10004d2e:	0436      	lsls	r6, r6, #16
10004d30:	0c2f      	lsrs	r7, r5, #16
10004d32:	433e      	orrs	r6, r7
10004d34:	042d      	lsls	r5, r5, #16
10004d36:	1b40      	subs	r0, r0, r5
10004d38:	41b1      	sbcs	r1, r6
10004d3a:	4299      	cmp	r1, r3
10004d3c:	d204      	bcs.n	10004d48 <y64_x64+0x44>
10004d3e:	0002      	movs	r2, r0
10004d40:	000b      	movs	r3, r1
10004d42:	0020      	movs	r0, r4
10004d44:	2100      	movs	r1, #0
10004d46:	bdf0      	pop	{r4, r5, r6, r7, pc}
10004d48:	d101      	bne.n	10004d4e <y64_x64+0x4a>
10004d4a:	4290      	cmp	r0, r2
10004d4c:	d3f7      	bcc.n	10004d3e <y64_x64+0x3a>
10004d4e:	1a80      	subs	r0, r0, r2
10004d50:	4199      	sbcs	r1, r3
10004d52:	3401      	adds	r4, #1
10004d54:	4299      	cmp	r1, r3
10004d56:	d3f2      	bcc.n	10004d3e <y64_x64+0x3a>
10004d58:	e7f6      	b.n	10004d48 <y64_x64+0x44>
10004d5a:	0000      	.short	0x0000
10004d5c:	d0000000 	.word	0xd0000000
10004d60:	ffffffff 	.word	0xffffffff

10004d64 <__wrap___aeabi_drsub>:
10004d64:	4048      	eors	r0, r1
10004d66:	4041      	eors	r1, r0
10004d68:	4048      	eors	r0, r1

10004d6a <__wrap___aeabi_dsub>:
10004d6a:	b418      	push	{r3, r4}
10004d6c:	4b11      	ldr	r3, [pc, #68]	; (10004db4 <__wrap___aeabi_dmul+0x14>)
10004d6e:	685b      	ldr	r3, [r3, #4]
10004d70:	46fc      	mov	ip, pc
10004d72:	9301      	str	r3, [sp, #4]
10004d74:	bd08      	pop	{r3, pc}
10004d76:	df04      	.short	0xdf04
10004d78:	10004f7f 	.word	0x10004f7f

10004d7c <__wrap___aeabi_dadd>:
10004d7c:	b418      	push	{r3, r4}
10004d7e:	4b0d      	ldr	r3, [pc, #52]	; (10004db4 <__wrap___aeabi_dmul+0x14>)
10004d80:	681b      	ldr	r3, [r3, #0]
10004d82:	46fc      	mov	ip, pc
10004d84:	9301      	str	r3, [sp, #4]
10004d86:	bd08      	pop	{r3, pc}
10004d88:	4f89df00 	.word	0x4f89df00
10004d8c:	1000      	.short	0x1000

10004d8e <__wrap___aeabi_ddiv>:
10004d8e:	b418      	push	{r3, r4}
10004d90:	4b08      	ldr	r3, [pc, #32]	; (10004db4 <__wrap___aeabi_dmul+0x14>)
10004d92:	68db      	ldr	r3, [r3, #12]
10004d94:	46fc      	mov	ip, pc
10004d96:	9301      	str	r3, [sp, #4]
10004d98:	bd08      	pop	{r3, pc}
10004d9a:	df0c      	.short	0xdf0c
10004d9c:	10005241 	.word	0x10005241

10004da0 <__wrap___aeabi_dmul>:
10004da0:	b418      	push	{r3, r4}
10004da2:	4b04      	ldr	r3, [pc, #16]	; (10004db4 <__wrap___aeabi_dmul+0x14>)
10004da4:	689b      	ldr	r3, [r3, #8]
10004da6:	46fc      	mov	ip, pc
10004da8:	9301      	str	r3, [sp, #4]
10004daa:	bd08      	pop	{r3, pc}
10004dac:	50e5df08 	.word	0x50e5df08
10004db0:	00001000 	.word	0x00001000
10004db4:	20000fb0 	.word	0x20000fb0

10004db8 <__wrap___aeabi_cdrcmple>:
10004db8:	b5ff      	push	{r0, r1, r2, r3, r4, r5, r6, r7, lr}
10004dba:	4050      	eors	r0, r2
10004dbc:	4042      	eors	r2, r0
10004dbe:	4050      	eors	r0, r2
10004dc0:	4059      	eors	r1, r3
10004dc2:	404b      	eors	r3, r1
10004dc4:	4059      	eors	r1, r3
10004dc6:	e000      	b.n	10004dca <__aeabi_dfcmple_guts>

10004dc8 <__wrap___aeabi_cdcmpeq>:
10004dc8:	b5ff      	push	{r0, r1, r2, r3, r4, r5, r6, r7, lr}

10004dca <__aeabi_dfcmple_guts>:
10004dca:	4f15      	ldr	r7, [pc, #84]	; (10004e20 <__aeabi_dfcmple_guts+0x56>)
10004dcc:	004c      	lsls	r4, r1, #1
10004dce:	0d64      	lsrs	r4, r4, #21
10004dd0:	d003      	beq.n	10004dda <__aeabi_dfcmple_guts+0x10>
10004dd2:	42bc      	cmp	r4, r7
10004dd4:	d104      	bne.n	10004de0 <__aeabi_dfcmple_guts+0x16>
10004dd6:	030c      	lsls	r4, r1, #12
10004dd8:	d814      	bhi.n	10004e04 <__aeabi_dfcmple_guts+0x3a>
10004dda:	2000      	movs	r0, #0
10004ddc:	0d09      	lsrs	r1, r1, #20
10004dde:	0509      	lsls	r1, r1, #20
10004de0:	005c      	lsls	r4, r3, #1
10004de2:	0d64      	lsrs	r4, r4, #21
10004de4:	d003      	beq.n	10004dee <__aeabi_dfcmple_guts+0x24>
10004de6:	42bc      	cmp	r4, r7
10004de8:	d104      	bne.n	10004df4 <__aeabi_dfcmple_guts+0x2a>
10004dea:	031c      	lsls	r4, r3, #12
10004dec:	d80a      	bhi.n	10004e04 <__aeabi_dfcmple_guts+0x3a>
10004dee:	2200      	movs	r2, #0
10004df0:	0d1b      	lsrs	r3, r3, #20
10004df2:	051b      	lsls	r3, r3, #20
10004df4:	2601      	movs	r6, #1
10004df6:	404b      	eors	r3, r1
10004df8:	d409      	bmi.n	10004e0e <__aeabi_dfcmple_guts+0x44>
10004dfa:	404b      	eors	r3, r1
10004dfc:	d503      	bpl.n	10004e06 <__aeabi_dfcmple_guts+0x3c>
10004dfe:	428b      	cmp	r3, r1
10004e00:	d100      	bne.n	10004e04 <__aeabi_dfcmple_guts+0x3a>
10004e02:	4282      	cmp	r2, r0
10004e04:	bdff      	pop	{r0, r1, r2, r3, r4, r5, r6, r7, pc}
10004e06:	4299      	cmp	r1, r3
10004e08:	d1fc      	bne.n	10004e04 <__aeabi_dfcmple_guts+0x3a>
10004e0a:	4290      	cmp	r0, r2
10004e0c:	bdff      	pop	{r0, r1, r2, r3, r4, r5, r6, r7, pc}
10004e0e:	430b      	orrs	r3, r1
10004e10:	18db      	adds	r3, r3, r3
10004e12:	4303      	orrs	r3, r0
10004e14:	4313      	orrs	r3, r2
10004e16:	d0f5      	beq.n	10004e04 <__aeabi_dfcmple_guts+0x3a>
10004e18:	43c9      	mvns	r1, r1
10004e1a:	1849      	adds	r1, r1, r1
10004e1c:	bdff      	pop	{r0, r1, r2, r3, r4, r5, r6, r7, pc}
10004e1e:	0000      	.short	0x0000
10004e20:	000007ff 	.word	0x000007ff

10004e24 <__wrap___aeabi_dcmplt>:
10004e24:	b500      	push	{lr}
10004e26:	f7ff ffcf 	bl	10004dc8 <__wrap___aeabi_cdcmpeq>
10004e2a:	4180      	sbcs	r0, r0
10004e2c:	bd00      	pop	{pc}
10004e2e:	46c0      	nop			; (mov r8, r8)

10004e30 <__wrap___aeabi_dcmpge>:
10004e30:	b500      	push	{lr}
10004e32:	f7ff ffc1 	bl	10004db8 <__wrap___aeabi_cdrcmple>
10004e36:	d901      	bls.n	10004e3c <__wrap___aeabi_dcmpge+0xc>
10004e38:	2000      	movs	r0, #0
10004e3a:	bd00      	pop	{pc}
10004e3c:	2001      	movs	r0, #1
10004e3e:	bd00      	pop	{pc}

10004e40 <__wrap___aeabi_dcmpgt>:
10004e40:	b500      	push	{lr}
10004e42:	f7ff ffb9 	bl	10004db8 <__wrap___aeabi_cdrcmple>
10004e46:	4180      	sbcs	r0, r0
10004e48:	bd00      	pop	{pc}

10004e4a <__wrap___aeabi_dcmpun>:
10004e4a:	2001      	movs	r0, #1
10004e4c:	0540      	lsls	r0, r0, #21
10004e4e:	004a      	lsls	r2, r1, #1
10004e50:	1812      	adds	r2, r2, r0
10004e52:	d804      	bhi.n	10004e5e <__wrap___aeabi_dcmpun+0x14>
10004e54:	005a      	lsls	r2, r3, #1
10004e56:	1812      	adds	r2, r2, r0
10004e58:	d801      	bhi.n	10004e5e <__wrap___aeabi_dcmpun+0x14>
10004e5a:	2000      	movs	r0, #0
10004e5c:	4770      	bx	lr
10004e5e:	2001      	movs	r0, #1
10004e60:	4770      	bx	lr
10004e62:	2000      	movs	r0, #0
10004e64:	4770      	bx	lr
	...

10004e68 <__wrap___aeabi_ui2d>:
10004e68:	2100      	movs	r1, #0
10004e6a:	2800      	cmp	r0, #0
10004e6c:	d105      	bne.n	10004e7a <__wrap___aeabi_i2d+0xa>
10004e6e:	4770      	bx	lr

10004e70 <__wrap___aeabi_i2d>:
10004e70:	17c1      	asrs	r1, r0, #31
10004e72:	4048      	eors	r0, r1
10004e74:	1a40      	subs	r0, r0, r1
10004e76:	d0fa      	beq.n	10004e6e <__wrap___aeabi_ui2d+0x6>
10004e78:	07c9      	lsls	r1, r1, #31
10004e7a:	b513      	push	{r0, r1, r4, lr}
10004e7c:	4b06      	ldr	r3, [pc, #24]	; (10004e98 <__wrap___aeabi_i2d+0x28>)
10004e7e:	681b      	ldr	r3, [r3, #0]
10004e80:	4798      	blx	r3
10004e82:	bc0c      	pop	{r2, r3}
10004e84:	1c44      	adds	r4, r0, #1
10004e86:	40a2      	lsls	r2, r4
10004e88:	0510      	lsls	r0, r2, #20
10004e8a:	0b12      	lsrs	r2, r2, #12
10004e8c:	4903      	ldr	r1, [pc, #12]	; (10004e9c <__wrap___aeabi_i2d+0x2c>)
10004e8e:	1b09      	subs	r1, r1, r4
10004e90:	0509      	lsls	r1, r1, #20
10004e92:	4319      	orrs	r1, r3
10004e94:	4311      	orrs	r1, r2
10004e96:	bd10      	pop	{r4, pc}
10004e98:	200011b0 	.word	0x200011b0
10004e9c:	0000041f 	.word	0x0000041f

10004ea0 <__wrap___aeabi_d2iz>:
10004ea0:	b510      	push	{r4, lr}
10004ea2:	004c      	lsls	r4, r1, #1
10004ea4:	0d62      	lsrs	r2, r4, #21
10004ea6:	2380      	movs	r3, #128	; 0x80
10004ea8:	18d2      	adds	r2, r2, r3
10004eaa:	00db      	lsls	r3, r3, #3
10004eac:	1ad2      	subs	r2, r2, r3
10004eae:	055b      	lsls	r3, r3, #21
10004eb0:	2a7e      	cmp	r2, #126	; 0x7e
10004eb2:	dd10      	ble.n	10004ed6 <__wrap___aeabi_d2iz+0x36>
10004eb4:	3a9e      	subs	r2, #158	; 0x9e
10004eb6:	da13      	bge.n	10004ee0 <__wrap___aeabi_d2iz+0x40>
10004eb8:	17cc      	asrs	r4, r1, #31
10004eba:	0309      	lsls	r1, r1, #12
10004ebc:	0849      	lsrs	r1, r1, #1
10004ebe:	4319      	orrs	r1, r3
10004ec0:	4252      	negs	r2, r2
10004ec2:	40d1      	lsrs	r1, r2
10004ec4:	0064      	lsls	r4, r4, #1
10004ec6:	3401      	adds	r4, #1
10004ec8:	3215      	adds	r2, #21
10004eca:	2a20      	cmp	r2, #32
10004ecc:	da05      	bge.n	10004eda <__wrap___aeabi_d2iz+0x3a>
10004ece:	40d0      	lsrs	r0, r2
10004ed0:	4308      	orrs	r0, r1
10004ed2:	4360      	muls	r0, r4
10004ed4:	bd10      	pop	{r4, pc}
10004ed6:	2000      	movs	r0, #0
10004ed8:	bd10      	pop	{r4, pc}
10004eda:	4608      	mov	r0, r1
10004edc:	4360      	muls	r0, r4
10004ede:	bd10      	pop	{r4, pc}
10004ee0:	0fc8      	lsrs	r0, r1, #31
10004ee2:	18c0      	adds	r0, r0, r3
10004ee4:	3801      	subs	r0, #1
10004ee6:	bd10      	pop	{r4, pc}

10004ee8 <__wrap___aeabi_d2uiz>:
10004ee8:	b418      	push	{r3, r4}
10004eea:	4b04      	ldr	r3, [pc, #16]	; (10004efc <__wrap___aeabi_d2uiz+0x14>)
10004eec:	6a5b      	ldr	r3, [r3, #36]	; 0x24
10004eee:	46fc      	mov	ip, pc
10004ef0:	9301      	str	r3, [sp, #4]
10004ef2:	bd08      	pop	{r3, pc}
10004ef4:	546ddf24 	.word	0x546ddf24
10004ef8:	00001000 	.word	0x00001000
10004efc:	20000fb0 	.word	0x20000fb0

10004f00 <__aeabi_double_init>:
10004f00:	2313      	movs	r3, #19
10004f02:	b570      	push	{r4, r5, r6, lr}
10004f04:	781c      	ldrb	r4, [r3, #0]
10004f06:	2c01      	cmp	r4, #1
10004f08:	d00c      	beq.n	10004f24 <__aeabi_double_init+0x24>
10004f0a:	dd15      	ble.n	10004f38 <__aeabi_double_init+0x38>
10004f0c:	480c      	ldr	r0, [pc, #48]	; (10004f40 <__aeabi_double_init+0x40>)
10004f0e:	f7ff fc95 	bl	1000483c <rom_data_lookup>
10004f12:	4d0c      	ldr	r5, [pc, #48]	; (10004f44 <__aeabi_double_init+0x44>)
10004f14:	0001      	movs	r1, r0
10004f16:	2280      	movs	r2, #128	; 0x80
10004f18:	0028      	movs	r0, r5
10004f1a:	f000 fb75 	bl	10005608 <__wrap___aeabi_memcpy>
10004f1e:	2c02      	cmp	r4, #2
10004f20:	d00b      	beq.n	10004f3a <__aeabi_double_init+0x3a>
10004f22:	bd70      	pop	{r4, r5, r6, pc}
10004f24:	4d07      	ldr	r5, [pc, #28]	; (10004f44 <__aeabi_double_init+0x44>)
10004f26:	4a08      	ldr	r2, [pc, #32]	; (10004f48 <__aeabi_double_init+0x48>)
10004f28:	0029      	movs	r1, r5
10004f2a:	002b      	movs	r3, r5
10004f2c:	3180      	adds	r1, #128	; 0x80
10004f2e:	c304      	stmia	r3!, {r2}
10004f30:	428b      	cmp	r3, r1
10004f32:	d1fc      	bne.n	10004f2e <__aeabi_double_init+0x2e>
10004f34:	64aa      	str	r2, [r5, #72]	; 0x48
10004f36:	e7f4      	b.n	10004f22 <__aeabi_double_init+0x22>
10004f38:	4d02      	ldr	r5, [pc, #8]	; (10004f44 <__aeabi_double_init+0x44>)
10004f3a:	4a03      	ldr	r2, [pc, #12]	; (10004f48 <__aeabi_double_init+0x48>)
10004f3c:	64aa      	str	r2, [r5, #72]	; 0x48
10004f3e:	e7f0      	b.n	10004f22 <__aeabi_double_init+0x22>
10004f40:	00004453 	.word	0x00004453
10004f44:	20000fb0 	.word	0x20000fb0
10004f48:	10004f4d 	.word	0x10004f4d

10004f4c <double_table_shim_on_use_helper>:
10004f4c:	b507      	push	{r0, r1, r2, lr}
10004f4e:	4660      	mov	r0, ip
10004f50:	8801      	ldrh	r1, [r0, #0]
10004f52:	0a0a      	lsrs	r2, r1, #8
10004f54:	3002      	adds	r0, #2
10004f56:	2adf      	cmp	r2, #223	; 0xdf
10004f58:	d1fa      	bne.n	10004f50 <double_table_shim_on_use_helper+0x4>
10004f5a:	b2c9      	uxtb	r1, r1
10004f5c:	0882      	lsrs	r2, r0, #2
10004f5e:	d304      	bcc.n	10004f6a <double_table_shim_on_use_helper+0x1e>
10004f60:	8802      	ldrh	r2, [r0, #0]
10004f62:	8840      	ldrh	r0, [r0, #2]
10004f64:	0400      	lsls	r0, r0, #16
10004f66:	4310      	orrs	r0, r2
10004f68:	e000      	b.n	10004f6c <double_table_shim_on_use_helper+0x20>
10004f6a:	6800      	ldr	r0, [r0, #0]
10004f6c:	4a01      	ldr	r2, [pc, #4]	; (10004f74 <double_table_shim_on_use_helper+0x28>)
10004f6e:	5050      	str	r0, [r2, r1]
10004f70:	9003      	str	r0, [sp, #12]
10004f72:	bd07      	pop	{r0, r1, r2, pc}
10004f74:	20000fb0 	.word	0x20000fb0

10004f78 <drsub_shim>:
10004f78:	b40f      	push	{r0, r1, r2, r3}
10004f7a:	bc03      	pop	{r0, r1}
10004f7c:	bc0c      	pop	{r2, r3}

10004f7e <dsub_shim>:
10004f7e:	b5f0      	push	{r4, r5, r6, r7, lr}
10004f80:	2401      	movs	r4, #1
10004f82:	07e4      	lsls	r4, r4, #31
10004f84:	4063      	eors	r3, r4
10004f86:	e000      	b.n	10004f8a <da_entry>

10004f88 <dadd_shim>:
10004f88:	b5f0      	push	{r4, r5, r6, r7, lr}

10004f8a <da_entry>:
10004f8a:	0d0c      	lsrs	r4, r1, #20
10004f8c:	0fcf      	lsrs	r7, r1, #31
10004f8e:	1e66      	subs	r6, r4, #1
10004f90:	0536      	lsls	r6, r6, #20
10004f92:	1b89      	subs	r1, r1, r6
10004f94:	0564      	lsls	r4, r4, #21
10004f96:	d303      	bcc.n	10004fa0 <l7_1>
10004f98:	43c9      	mvns	r1, r1
10004f9a:	4240      	negs	r0, r0
10004f9c:	d300      	bcc.n	10004fa0 <l7_1>
10004f9e:	3101      	adds	r1, #1

10004fa0 <l7_1>:
10004fa0:	0d64      	lsrs	r4, r4, #21
10004fa2:	d003      	beq.n	10004fac <l7_2>
10004fa4:	1c66      	adds	r6, r4, #1
10004fa6:	0af6      	lsrs	r6, r6, #11
10004fa8:	d007      	beq.n	10004fba <l7_3>
10004faa:	1be4      	subs	r4, r4, r7

10004fac <l7_2>:
10004fac:	2000      	movs	r0, #0
10004fae:	007f      	lsls	r7, r7, #1
10004fb0:	1c79      	adds	r1, r7, #1
10004fb2:	0789      	lsls	r1, r1, #30
10004fb4:	1289      	asrs	r1, r1, #10
10004fb6:	3c80      	subs	r4, #128	; 0x80
10004fb8:	0324      	lsls	r4, r4, #12

10004fba <l7_3>:
10004fba:	0d1d      	lsrs	r5, r3, #20
10004fbc:	0fdf      	lsrs	r7, r3, #31
10004fbe:	1e6e      	subs	r6, r5, #1
10004fc0:	0536      	lsls	r6, r6, #20
10004fc2:	1b9b      	subs	r3, r3, r6
10004fc4:	056d      	lsls	r5, r5, #21
10004fc6:	d303      	bcc.n	10004fd0 <l8_1>
10004fc8:	43db      	mvns	r3, r3
10004fca:	4252      	negs	r2, r2
10004fcc:	d300      	bcc.n	10004fd0 <l8_1>
10004fce:	3301      	adds	r3, #1

10004fd0 <l8_1>:
10004fd0:	0d6d      	lsrs	r5, r5, #21
10004fd2:	d003      	beq.n	10004fdc <l8_2>
10004fd4:	1c6e      	adds	r6, r5, #1
10004fd6:	0af6      	lsrs	r6, r6, #11
10004fd8:	d007      	beq.n	10004fea <l8_3>
10004fda:	1bed      	subs	r5, r5, r7

10004fdc <l8_2>:
10004fdc:	2200      	movs	r2, #0
10004fde:	007f      	lsls	r7, r7, #1
10004fe0:	1c7b      	adds	r3, r7, #1
10004fe2:	079b      	lsls	r3, r3, #30
10004fe4:	129b      	asrs	r3, r3, #10
10004fe6:	3d80      	subs	r5, #128	; 0x80
10004fe8:	032d      	lsls	r5, r5, #12

10004fea <l8_3>:
10004fea:	1b2f      	subs	r7, r5, r4
10004fec:	1b66      	subs	r6, r4, r5
10004fee:	d458      	bmi.n	100050a2 <da_ygtx>
10004ff0:	46a4      	mov	ip, r4
10004ff2:	2e20      	cmp	r6, #32
10004ff4:	da46      	bge.n	10005084 <da_xrgty>
10004ff6:	3720      	adds	r7, #32
10004ff8:	0014      	movs	r4, r2
10004ffa:	40bc      	lsls	r4, r7

10004ffc <da_xgty0>:
10004ffc:	001d      	movs	r5, r3
10004ffe:	40bd      	lsls	r5, r7
10005000:	40f2      	lsrs	r2, r6
10005002:	4133      	asrs	r3, r6
10005004:	432a      	orrs	r2, r5

10005006 <da_add>:
10005006:	1880      	adds	r0, r0, r2
10005008:	4159      	adcs	r1, r3

1000500a <da_pack>:
1000500a:	0fcb      	lsrs	r3, r1, #31
1000500c:	d005      	beq.n	1000501a <da_pack+0x10>
1000500e:	43c9      	mvns	r1, r1
10005010:	43c0      	mvns	r0, r0
10005012:	2200      	movs	r2, #0
10005014:	4264      	negs	r4, r4
10005016:	4150      	adcs	r0, r2
10005018:	4151      	adcs	r1, r2
1000501a:	4662      	mov	r2, ip
1000501c:	0d4d      	lsrs	r5, r1, #21
1000501e:	d128      	bne.n	10005072 <da_0>
10005020:	0d0d      	lsrs	r5, r1, #20
10005022:	d107      	bne.n	10005034 <da_1>
10005024:	2800      	cmp	r0, #0
10005026:	d01f      	beq.n	10005068 <da_5>

10005028 <da_2>:
10005028:	1924      	adds	r4, r4, r4
1000502a:	4140      	adcs	r0, r0
1000502c:	4149      	adcs	r1, r1
1000502e:	3a01      	subs	r2, #1
10005030:	0d0d      	lsrs	r5, r1, #20
10005032:	d0f9      	beq.n	10005028 <da_2>

10005034 <da_1>:
10005034:	0064      	lsls	r4, r4, #1
10005036:	d306      	bcc.n	10005046 <da_3>

10005038 <da_4>:
10005038:	3001      	adds	r0, #1
1000503a:	d300      	bcc.n	1000503e <da_4+0x6>
1000503c:	3101      	adds	r1, #1
1000503e:	2c00      	cmp	r4, #0
10005040:	d101      	bne.n	10005046 <da_3>
10005042:	0840      	lsrs	r0, r0, #1
10005044:	0040      	lsls	r0, r0, #1

10005046 <da_3>:
10005046:	3a01      	subs	r2, #1
10005048:	d40b      	bmi.n	10005062 <da_6>
1000504a:	1c94      	adds	r4, r2, #2
1000504c:	0ae4      	lsrs	r4, r4, #11
1000504e:	d104      	bne.n	1000505a <da_7>
10005050:	0512      	lsls	r2, r2, #20
10005052:	4411      	add	r1, r2
10005054:	07db      	lsls	r3, r3, #31
10005056:	4419      	add	r1, r3
10005058:	bdf0      	pop	{r4, r5, r6, r7, pc}

1000505a <da_7>:
1000505a:	07d9      	lsls	r1, r3, #31
1000505c:	4b20      	ldr	r3, [pc, #128]	; (100050e0 <da_xmgty+0x4>)
1000505e:	4319      	orrs	r1, r3
10005060:	e000      	b.n	10005064 <da_6+0x2>

10005062 <da_6>:
10005062:	07d9      	lsls	r1, r3, #31
10005064:	2000      	movs	r0, #0
10005066:	bdf0      	pop	{r4, r5, r6, r7, pc}

10005068 <da_5>:
10005068:	2900      	cmp	r1, #0
1000506a:	d1dd      	bne.n	10005028 <da_2>
1000506c:	2c00      	cmp	r4, #0
1000506e:	d1db      	bne.n	10005028 <da_2>
10005070:	bdf0      	pop	{r4, r5, r6, r7, pc}

10005072 <da_0>:
10005072:	3201      	adds	r2, #1
10005074:	07c6      	lsls	r6, r0, #31
10005076:	0840      	lsrs	r0, r0, #1
10005078:	07cd      	lsls	r5, r1, #31
1000507a:	4328      	orrs	r0, r5
1000507c:	0849      	lsrs	r1, r1, #1
1000507e:	2e00      	cmp	r6, #0
10005080:	d0e1      	beq.n	10005046 <da_3>
10005082:	e7d9      	b.n	10005038 <da_4>

10005084 <da_xrgty>:
10005084:	2e3c      	cmp	r6, #60	; 0x3c
10005086:	da29      	bge.n	100050dc <da_xmgty>
10005088:	3e20      	subs	r6, #32
1000508a:	3740      	adds	r7, #64	; 0x40
1000508c:	0014      	movs	r4, r2
1000508e:	40bc      	lsls	r4, r7
10005090:	d000      	beq.n	10005094 <da_xrgty+0x10>
10005092:	2401      	movs	r4, #1
10005094:	40f2      	lsrs	r2, r6
10005096:	4314      	orrs	r4, r2
10005098:	001a      	movs	r2, r3
1000509a:	40bb      	lsls	r3, r7
1000509c:	431c      	orrs	r4, r3
1000509e:	17d3      	asrs	r3, r2, #31
100050a0:	e7ac      	b.n	10004ffc <da_xgty0>

100050a2 <da_ygtx>:
100050a2:	46ac      	mov	ip, r5
100050a4:	2f20      	cmp	r7, #32
100050a6:	da08      	bge.n	100050ba <da_yrgtx>
100050a8:	3620      	adds	r6, #32
100050aa:	0004      	movs	r4, r0
100050ac:	40b4      	lsls	r4, r6

100050ae <da_ygtx0>:
100050ae:	000d      	movs	r5, r1
100050b0:	40b5      	lsls	r5, r6
100050b2:	40f8      	lsrs	r0, r7
100050b4:	4139      	asrs	r1, r7
100050b6:	4328      	orrs	r0, r5
100050b8:	e7a5      	b.n	10005006 <da_add>

100050ba <da_yrgtx>:
100050ba:	2f3c      	cmp	r7, #60	; 0x3c
100050bc:	da0c      	bge.n	100050d8 <da_ymgtx>
100050be:	3f20      	subs	r7, #32
100050c0:	3640      	adds	r6, #64	; 0x40
100050c2:	0004      	movs	r4, r0
100050c4:	40b4      	lsls	r4, r6
100050c6:	d000      	beq.n	100050ca <da_yrgtx+0x10>
100050c8:	2401      	movs	r4, #1
100050ca:	40f8      	lsrs	r0, r7
100050cc:	4304      	orrs	r4, r0
100050ce:	0008      	movs	r0, r1
100050d0:	40b1      	lsls	r1, r6
100050d2:	430c      	orrs	r4, r1
100050d4:	17c1      	asrs	r1, r0, #31
100050d6:	e7ea      	b.n	100050ae <da_ygtx0>

100050d8 <da_ymgtx>:
100050d8:	0010      	movs	r0, r2
100050da:	0019      	movs	r1, r3

100050dc <da_xmgty>:
100050dc:	2400      	movs	r4, #0
100050de:	e794      	b.n	1000500a <da_pack>
100050e0:	7ff00000 	.word	0x7ff00000

100050e4 <dmul_shim>:
100050e4:	b5f0      	push	{r4, r5, r6, r7, lr}
100050e6:	0d0c      	lsrs	r4, r1, #20
100050e8:	1e66      	subs	r6, r4, #1
100050ea:	0536      	lsls	r6, r6, #20
100050ec:	1b89      	subs	r1, r1, r6
100050ee:	0ae6      	lsrs	r6, r4, #11
100050f0:	0564      	lsls	r4, r4, #21
100050f2:	0d64      	lsrs	r4, r4, #21
100050f4:	d002      	beq.n	100050fc <l11_1>
100050f6:	1c65      	adds	r5, r4, #1
100050f8:	0aed      	lsrs	r5, r5, #11
100050fa:	d004      	beq.n	10005106 <l11_2>

100050fc <l11_1>:
100050fc:	2000      	movs	r0, #0
100050fe:	2101      	movs	r1, #1
10005100:	0509      	lsls	r1, r1, #20
10005102:	3c80      	subs	r4, #128	; 0x80
10005104:	0324      	lsls	r4, r4, #12

10005106 <l11_2>:
10005106:	46a4      	mov	ip, r4
10005108:	0d1c      	lsrs	r4, r3, #20
1000510a:	1e67      	subs	r7, r4, #1
1000510c:	053f      	lsls	r7, r7, #20
1000510e:	1bdb      	subs	r3, r3, r7
10005110:	0ae7      	lsrs	r7, r4, #11
10005112:	0564      	lsls	r4, r4, #21
10005114:	0d64      	lsrs	r4, r4, #21
10005116:	d002      	beq.n	1000511e <l12_1>
10005118:	1c65      	adds	r5, r4, #1
1000511a:	0aed      	lsrs	r5, r5, #11
1000511c:	d004      	beq.n	10005128 <l12_2>

1000511e <l12_1>:
1000511e:	2200      	movs	r2, #0
10005120:	2301      	movs	r3, #1
10005122:	051b      	lsls	r3, r3, #20
10005124:	3c80      	subs	r4, #128	; 0x80
10005126:	0324      	lsls	r4, r4, #12

10005128 <l12_2>:
10005128:	4077      	eors	r7, r6
1000512a:	4464      	add	r4, ip
1000512c:	b497      	push	{r0, r1, r2, r4, r7}
1000512e:	b284      	uxth	r4, r0
10005130:	b296      	uxth	r6, r2
10005132:	4374      	muls	r4, r6
10005134:	0c07      	lsrs	r7, r0, #16
10005136:	437e      	muls	r6, r7
10005138:	0c15      	lsrs	r5, r2, #16
1000513a:	436f      	muls	r7, r5
1000513c:	b280      	uxth	r0, r0
1000513e:	4368      	muls	r0, r5
10005140:	1836      	adds	r6, r6, r0
10005142:	d302      	bcc.n	1000514a <l13_1>
10005144:	2001      	movs	r0, #1
10005146:	0400      	lsls	r0, r0, #16
10005148:	183f      	adds	r7, r7, r0

1000514a <l13_1>:
1000514a:	0430      	lsls	r0, r6, #16
1000514c:	0c35      	lsrs	r5, r6, #16
1000514e:	1900      	adds	r0, r0, r4
10005150:	417d      	adcs	r5, r7
10005152:	4684      	mov	ip, r0
10005154:	b288      	uxth	r0, r1
10005156:	b29a      	uxth	r2, r3
10005158:	4350      	muls	r0, r2
1000515a:	0c0c      	lsrs	r4, r1, #16
1000515c:	4362      	muls	r2, r4
1000515e:	0c1f      	lsrs	r7, r3, #16
10005160:	437c      	muls	r4, r7
10005162:	b28e      	uxth	r6, r1
10005164:	437e      	muls	r6, r7
10005166:	1992      	adds	r2, r2, r6
10005168:	d302      	bcc.n	10005170 <l14_1>
1000516a:	2601      	movs	r6, #1
1000516c:	0436      	lsls	r6, r6, #16
1000516e:	19a4      	adds	r4, r4, r6

10005170 <l14_1>:
10005170:	0416      	lsls	r6, r2, #16
10005172:	0c17      	lsrs	r7, r2, #16
10005174:	1836      	adds	r6, r6, r0
10005176:	4167      	adcs	r7, r4
10005178:	bc01      	pop	{r0}
1000517a:	b281      	uxth	r1, r0
1000517c:	b29a      	uxth	r2, r3
1000517e:	4351      	muls	r1, r2
10005180:	0c04      	lsrs	r4, r0, #16
10005182:	4362      	muls	r2, r4
10005184:	0c1b      	lsrs	r3, r3, #16
10005186:	435c      	muls	r4, r3
10005188:	b280      	uxth	r0, r0
1000518a:	4358      	muls	r0, r3
1000518c:	1812      	adds	r2, r2, r0
1000518e:	d302      	bcc.n	10005196 <l15_1>
10005190:	2001      	movs	r0, #1
10005192:	0400      	lsls	r0, r0, #16
10005194:	1824      	adds	r4, r4, r0

10005196 <l15_1>:
10005196:	0410      	lsls	r0, r2, #16
10005198:	0c13      	lsrs	r3, r2, #16
1000519a:	1840      	adds	r0, r0, r1
1000519c:	4163      	adcs	r3, r4
1000519e:	182d      	adds	r5, r5, r0
100051a0:	415e      	adcs	r6, r3
100051a2:	2000      	movs	r0, #0
100051a4:	4147      	adcs	r7, r0
100051a6:	bc06      	pop	{r1, r2}
100051a8:	b288      	uxth	r0, r1
100051aa:	b293      	uxth	r3, r2
100051ac:	4358      	muls	r0, r3
100051ae:	0c0c      	lsrs	r4, r1, #16
100051b0:	4363      	muls	r3, r4
100051b2:	0c12      	lsrs	r2, r2, #16
100051b4:	4354      	muls	r4, r2
100051b6:	b289      	uxth	r1, r1
100051b8:	4351      	muls	r1, r2
100051ba:	185b      	adds	r3, r3, r1
100051bc:	d302      	bcc.n	100051c4 <l16_1>
100051be:	2101      	movs	r1, #1
100051c0:	0409      	lsls	r1, r1, #16
100051c2:	1864      	adds	r4, r4, r1

100051c4 <l16_1>:
100051c4:	0419      	lsls	r1, r3, #16
100051c6:	0c1a      	lsrs	r2, r3, #16
100051c8:	1809      	adds	r1, r1, r0
100051ca:	4162      	adcs	r2, r4
100051cc:	186d      	adds	r5, r5, r1
100051ce:	4156      	adcs	r6, r2
100051d0:	2000      	movs	r0, #0
100051d2:	4147      	adcs	r7, r0
100051d4:	bc18      	pop	{r3, r4}
100051d6:	02f9      	lsls	r1, r7, #11
100051d8:	0d72      	lsrs	r2, r6, #21
100051da:	4311      	orrs	r1, r2
100051dc:	02f0      	lsls	r0, r6, #11
100051de:	0d6a      	lsrs	r2, r5, #21
100051e0:	4310      	orrs	r0, r2
100051e2:	02ed      	lsls	r5, r5, #11
100051e4:	0d0a      	lsrs	r2, r1, #20
100051e6:	d103      	bne.n	100051f0 <l16_1+0x2c>
100051e8:	196d      	adds	r5, r5, r5
100051ea:	4140      	adcs	r0, r0
100051ec:	4149      	adcs	r1, r1
100051ee:	3b01      	subs	r3, #1
100051f0:	4e12      	ldr	r6, [pc, #72]	; (1000523c <dm_1+0xa>)
100051f2:	1b9b      	subs	r3, r3, r6
100051f4:	0076      	lsls	r6, r6, #1
100051f6:	42b3      	cmp	r3, r6
100051f8:	d20e      	bcs.n	10005218 <dm_0>
100051fa:	006d      	lsls	r5, r5, #1
100051fc:	d307      	bcc.n	1000520e <l16_1+0x4a>
100051fe:	3001      	adds	r0, #1
10005200:	2600      	movs	r6, #0
10005202:	4171      	adcs	r1, r6
10005204:	4666      	mov	r6, ip
10005206:	4335      	orrs	r5, r6
10005208:	d101      	bne.n	1000520e <l16_1+0x4a>
1000520a:	0840      	lsrs	r0, r0, #1
1000520c:	0040      	lsls	r0, r0, #1
1000520e:	051b      	lsls	r3, r3, #20
10005210:	18c9      	adds	r1, r1, r3

10005212 <dm_2>:
10005212:	07e4      	lsls	r4, r4, #31
10005214:	4421      	add	r1, r4
10005216:	bdf0      	pop	{r4, r5, r6, r7, pc}

10005218 <dm_0>:
10005218:	da0b      	bge.n	10005232 <dm_1>
1000521a:	3301      	adds	r3, #1
1000521c:	d106      	bne.n	1000522c <dm_0+0x14>
1000521e:	3001      	adds	r0, #1
10005220:	d104      	bne.n	1000522c <dm_0+0x14>
10005222:	3101      	adds	r1, #1
10005224:	0d4f      	lsrs	r7, r1, #21
10005226:	d001      	beq.n	1000522c <dm_0+0x14>
10005228:	0849      	lsrs	r1, r1, #1
1000522a:	e7f2      	b.n	10005212 <dm_2>
1000522c:	07e1      	lsls	r1, r4, #31
1000522e:	2000      	movs	r0, #0
10005230:	bdf0      	pop	{r4, r5, r6, r7, pc}

10005232 <dm_1>:
10005232:	3601      	adds	r6, #1
10005234:	0531      	lsls	r1, r6, #20
10005236:	2000      	movs	r0, #0
10005238:	e7eb      	b.n	10005212 <dm_2>
1000523a:	0000      	.short	0x0000
1000523c:	000003ff 	.word	0x000003ff

10005240 <ddiv_shim>:
10005240:	b5f0      	push	{r4, r5, r6, r7, lr}

10005242 <ddiv0>:
10005242:	0d1c      	lsrs	r4, r3, #20
10005244:	1e67      	subs	r7, r4, #1
10005246:	053f      	lsls	r7, r7, #20
10005248:	1bdb      	subs	r3, r3, r7
1000524a:	0ae7      	lsrs	r7, r4, #11
1000524c:	0564      	lsls	r4, r4, #21
1000524e:	0d64      	lsrs	r4, r4, #21
10005250:	d002      	beq.n	10005258 <l19_1>
10005252:	1c66      	adds	r6, r4, #1
10005254:	0af6      	lsrs	r6, r6, #11
10005256:	d004      	beq.n	10005262 <l19_2>

10005258 <l19_1>:
10005258:	2200      	movs	r2, #0
1000525a:	2301      	movs	r3, #1
1000525c:	051b      	lsls	r3, r3, #20
1000525e:	3c80      	subs	r4, #128	; 0x80
10005260:	0324      	lsls	r4, r4, #12

10005262 <l19_2>:
10005262:	25d0      	movs	r5, #208	; 0xd0
10005264:	062d      	lsls	r5, r5, #24
10005266:	2600      	movs	r6, #0
10005268:	43f6      	mvns	r6, r6
1000526a:	662e      	str	r6, [r5, #96]	; 0x60
1000526c:	091e      	lsrs	r6, r3, #4
1000526e:	666e      	str	r6, [r5, #100]	; 0x64
10005270:	0fce      	lsrs	r6, r1, #31
10005272:	19f6      	adds	r6, r6, r7
10005274:	46b4      	mov	ip, r6
10005276:	0049      	lsls	r1, r1, #1
10005278:	0d4f      	lsrs	r7, r1, #21
1000527a:	d002      	beq.n	10005282 <l19_2+0x20>
1000527c:	1c7e      	adds	r6, r7, #1
1000527e:	0af6      	lsrs	r6, r6, #11
10005280:	d003      	beq.n	1000528a <l19_2+0x28>
10005282:	2000      	movs	r0, #0
10005284:	2100      	movs	r1, #0
10005286:	3f40      	subs	r7, #64	; 0x40
10005288:	033f      	lsls	r7, r7, #12
1000528a:	1b3e      	subs	r6, r7, r4
1000528c:	00b6      	lsls	r6, r6, #2
1000528e:	44b4      	add	ip, r6
10005290:	3f01      	subs	r7, #1
10005292:	057f      	lsls	r7, r7, #21
10005294:	1bc9      	subs	r1, r1, r7
10005296:	0849      	lsrs	r1, r1, #1
10005298:	6f2e      	ldr	r6, [r5, #112]	; 0x70
1000529a:	3601      	adds	r6, #1
1000529c:	0876      	lsrs	r6, r6, #1
1000529e:	029c      	lsls	r4, r3, #10
100052a0:	0d95      	lsrs	r5, r2, #22
100052a2:	4325      	orrs	r5, r4
100052a4:	4375      	muls	r5, r6
100052a6:	13ed      	asrs	r5, r5, #15
100052a8:	4375      	muls	r5, r6
100052aa:	13ad      	asrs	r5, r5, #14
100052ac:	3501      	adds	r5, #1
100052ae:	106d      	asrs	r5, r5, #1
100052b0:	03f6      	lsls	r6, r6, #15
100052b2:	1b76      	subs	r6, r6, r5
100052b4:	b40c      	push	{r2, r3}
100052b6:	02cc      	lsls	r4, r1, #11
100052b8:	0d45      	lsrs	r5, r0, #21
100052ba:	432c      	orrs	r4, r5
100052bc:	b2a2      	uxth	r2, r4
100052be:	b2b3      	uxth	r3, r6
100052c0:	435a      	muls	r2, r3
100052c2:	0c27      	lsrs	r7, r4, #16
100052c4:	437b      	muls	r3, r7
100052c6:	0c35      	lsrs	r5, r6, #16
100052c8:	436f      	muls	r7, r5
100052ca:	b2a4      	uxth	r4, r4
100052cc:	436c      	muls	r4, r5
100052ce:	191b      	adds	r3, r3, r4
100052d0:	d302      	bcc.n	100052d8 <l20_1>
100052d2:	2401      	movs	r4, #1
100052d4:	0424      	lsls	r4, r4, #16
100052d6:	193f      	adds	r7, r7, r4

100052d8 <l20_1>:
100052d8:	041c      	lsls	r4, r3, #16
100052da:	0c1d      	lsrs	r5, r3, #16
100052dc:	18a4      	adds	r4, r4, r2
100052de:	417d      	adcs	r5, r7
100052e0:	1924      	adds	r4, r4, r4
100052e2:	416d      	adcs	r5, r5
100052e4:	9a00      	ldr	r2, [sp, #0]
100052e6:	b291      	uxth	r1, r2
100052e8:	b2ac      	uxth	r4, r5
100052ea:	4361      	muls	r1, r4
100052ec:	0c17      	lsrs	r7, r2, #16
100052ee:	437c      	muls	r4, r7
100052f0:	0c2b      	lsrs	r3, r5, #16
100052f2:	435f      	muls	r7, r3
100052f4:	b292      	uxth	r2, r2
100052f6:	435a      	muls	r2, r3
100052f8:	18a4      	adds	r4, r4, r2
100052fa:	d302      	bcc.n	10005302 <l21_1>
100052fc:	2201      	movs	r2, #1
100052fe:	0412      	lsls	r2, r2, #16
10005300:	18bf      	adds	r7, r7, r2

10005302 <l21_1>:
10005302:	0422      	lsls	r2, r4, #16
10005304:	0c23      	lsrs	r3, r4, #16
10005306:	1852      	adds	r2, r2, r1
10005308:	417b      	adcs	r3, r7
1000530a:	9c01      	ldr	r4, [sp, #4]
1000530c:	436c      	muls	r4, r5
1000530e:	191b      	adds	r3, r3, r4
10005310:	0e52      	lsrs	r2, r2, #25
10005312:	01d9      	lsls	r1, r3, #7
10005314:	430a      	orrs	r2, r1
10005316:	0144      	lsls	r4, r0, #5
10005318:	1aa0      	subs	r0, r4, r2
1000531a:	b281      	uxth	r1, r0
1000531c:	b2b2      	uxth	r2, r6
1000531e:	4351      	muls	r1, r2
10005320:	1403      	asrs	r3, r0, #16
10005322:	435a      	muls	r2, r3
10005324:	0c36      	lsrs	r6, r6, #16
10005326:	4373      	muls	r3, r6
10005328:	b287      	uxth	r7, r0
1000532a:	4377      	muls	r7, r6
1000532c:	17d6      	asrs	r6, r2, #31
1000532e:	19d2      	adds	r2, r2, r7
10005330:	2700      	movs	r7, #0
10005332:	417e      	adcs	r6, r7
10005334:	0436      	lsls	r6, r6, #16
10005336:	199b      	adds	r3, r3, r6
10005338:	0417      	lsls	r7, r2, #16
1000533a:	0c16      	lsrs	r6, r2, #16
1000533c:	187f      	adds	r7, r7, r1
1000533e:	415e      	adcs	r6, r3
10005340:	1673      	asrs	r3, r6, #25
10005342:	18ed      	adds	r5, r5, r3
10005344:	01f3      	lsls	r3, r6, #7
10005346:	2600      	movs	r6, #0
10005348:	3380      	adds	r3, #128	; 0x80
1000534a:	4175      	adcs	r5, r6
1000534c:	0fa9      	lsrs	r1, r5, #30
1000534e:	d106      	bne.n	1000535e <dd_0>
10005350:	0064      	lsls	r4, r4, #1
10005352:	0a69      	lsrs	r1, r5, #9
10005354:	05e8      	lsls	r0, r5, #23
10005356:	0a5b      	lsrs	r3, r3, #9
10005358:	4318      	orrs	r0, r3
1000535a:	d209      	bcs.n	10005370 <dd_1>
1000535c:	e02f      	b.n	100053be <dd_2>

1000535e <dd_0>:
1000535e:	2204      	movs	r2, #4
10005360:	4494      	add	ip, r2
10005362:	3380      	adds	r3, #128	; 0x80
10005364:	4175      	adcs	r5, r6
10005366:	0aa9      	lsrs	r1, r5, #10
10005368:	05a8      	lsls	r0, r5, #22
1000536a:	0a9b      	lsrs	r3, r3, #10
1000536c:	4318      	orrs	r0, r3
1000536e:	d326      	bcc.n	100053be <dd_2>

10005370 <dd_1>:
10005370:	4140      	adcs	r0, r0
10005372:	4149      	adcs	r1, r1
10005374:	0424      	lsls	r4, r4, #16
10005376:	9a00      	ldr	r2, [sp, #0]
10005378:	9b01      	ldr	r3, [sp, #4]
1000537a:	000d      	movs	r5, r1
1000537c:	4355      	muls	r5, r2
1000537e:	1b64      	subs	r4, r4, r5
10005380:	4343      	muls	r3, r0
10005382:	1ae4      	subs	r4, r4, r3
10005384:	b295      	uxth	r5, r2
10005386:	b286      	uxth	r6, r0
10005388:	4375      	muls	r5, r6
1000538a:	0c17      	lsrs	r7, r2, #16
1000538c:	437e      	muls	r6, r7
1000538e:	0c03      	lsrs	r3, r0, #16
10005390:	435f      	muls	r7, r3
10005392:	b292      	uxth	r2, r2
10005394:	435a      	muls	r2, r3
10005396:	18b6      	adds	r6, r6, r2
10005398:	d302      	bcc.n	100053a0 <l23_1>
1000539a:	2201      	movs	r2, #1
1000539c:	0412      	lsls	r2, r2, #16
1000539e:	18bf      	adds	r7, r7, r2

100053a0 <l23_1>:
100053a0:	0432      	lsls	r2, r6, #16
100053a2:	0c33      	lsrs	r3, r6, #16
100053a4:	1952      	adds	r2, r2, r5
100053a6:	417b      	adcs	r3, r7
100053a8:	4252      	negs	r2, r2
100053aa:	419c      	sbcs	r4, r3
100053ac:	2c00      	cmp	r4, #0
100053ae:	d402      	bmi.n	100053b6 <l23_1+0x16>
100053b0:	2200      	movs	r2, #0
100053b2:	3001      	adds	r0, #1
100053b4:	4151      	adcs	r1, r2
100053b6:	0840      	lsrs	r0, r0, #1
100053b8:	07ca      	lsls	r2, r1, #31
100053ba:	4310      	orrs	r0, r2
100053bc:	0849      	lsrs	r1, r1, #1

100053be <dd_2>:
100053be:	b002      	add	sp, #8
100053c0:	4662      	mov	r2, ip
100053c2:	07d7      	lsls	r7, r2, #31
100053c4:	1092      	asrs	r2, r2, #2
100053c6:	4b08      	ldr	r3, [pc, #32]	; (100053e8 <dd_4+0x6>)
100053c8:	18d2      	adds	r2, r2, r3
100053ca:	4b08      	ldr	r3, [pc, #32]	; (100053ec <dd_4+0xa>)
100053cc:	429a      	cmp	r2, r3
100053ce:	d203      	bcs.n	100053d8 <dd_3>
100053d0:	0512      	lsls	r2, r2, #20
100053d2:	1889      	adds	r1, r1, r2

100053d4 <dd_5>:
100053d4:	19c9      	adds	r1, r1, r7
100053d6:	bdf0      	pop	{r4, r5, r6, r7, pc}

100053d8 <dd_3>:
100053d8:	2000      	movs	r0, #0
100053da:	2a00      	cmp	r2, #0
100053dc:	dc01      	bgt.n	100053e2 <dd_4>
100053de:	0039      	movs	r1, r7
100053e0:	bdf0      	pop	{r4, r5, r6, r7, pc}

100053e2 <dd_4>:
100053e2:	3301      	adds	r3, #1
100053e4:	0519      	lsls	r1, r3, #20
100053e6:	e7f5      	b.n	100053d4 <dd_5>
100053e8:	000003fd 	.word	0x000003fd
100053ec:	000007fe 	.word	0x000007fe

100053f0 <dcordic_rot_step>:
100053f0:	4662      	mov	r2, ip
100053f2:	ca18      	ldmia	r2!, {r3, r4}
100053f4:	4694      	mov	ip, r2
100053f6:	2900      	cmp	r1, #0
100053f8:	da1a      	bge.n	10005430 <dcordic_rot_step+0x40>
100053fa:	18c0      	adds	r0, r0, r3
100053fc:	4161      	adcs	r1, r4
100053fe:	465b      	mov	r3, fp
10005400:	413b      	asrs	r3, r7
10005402:	465c      	mov	r4, fp
10005404:	40b4      	lsls	r4, r6
10005406:	4652      	mov	r2, sl
10005408:	40fa      	lsrs	r2, r7
1000540a:	4322      	orrs	r2, r4
1000540c:	4644      	mov	r4, r8
1000540e:	464d      	mov	r5, r9
10005410:	4162      	adcs	r2, r4
10005412:	416b      	adcs	r3, r5
10005414:	4690      	mov	r8, r2
10005416:	4699      	mov	r9, r3
10005418:	462b      	mov	r3, r5
1000541a:	40b3      	lsls	r3, r6
1000541c:	413d      	asrs	r5, r7
1000541e:	40fc      	lsrs	r4, r7
10005420:	431c      	orrs	r4, r3
10005422:	4652      	mov	r2, sl
10005424:	465b      	mov	r3, fp
10005426:	41a2      	sbcs	r2, r4
10005428:	41ab      	sbcs	r3, r5
1000542a:	4692      	mov	sl, r2
1000542c:	469b      	mov	fp, r3
1000542e:	4770      	bx	lr
10005430:	1ac0      	subs	r0, r0, r3
10005432:	41a1      	sbcs	r1, r4
10005434:	464b      	mov	r3, r9
10005436:	413b      	asrs	r3, r7
10005438:	464c      	mov	r4, r9
1000543a:	40b4      	lsls	r4, r6
1000543c:	4642      	mov	r2, r8
1000543e:	40fa      	lsrs	r2, r7
10005440:	4322      	orrs	r2, r4
10005442:	4654      	mov	r4, sl
10005444:	465d      	mov	r5, fp
10005446:	4162      	adcs	r2, r4
10005448:	416b      	adcs	r3, r5
1000544a:	4692      	mov	sl, r2
1000544c:	469b      	mov	fp, r3
1000544e:	462b      	mov	r3, r5
10005450:	40b3      	lsls	r3, r6
10005452:	413d      	asrs	r5, r7
10005454:	40fc      	lsrs	r4, r7
10005456:	431c      	orrs	r4, r3
10005458:	4642      	mov	r2, r8
1000545a:	464b      	mov	r3, r9
1000545c:	41a2      	sbcs	r2, r4
1000545e:	41ab      	sbcs	r3, r5
10005460:	4690      	mov	r8, r2
10005462:	4699      	mov	r9, r3
10005464:	4770      	bx	lr

10005466 <ret_dzero>:
10005466:	2000      	movs	r0, #0
10005468:	2100      	movs	r1, #0
1000546a:	4770      	bx	lr

1000546c <double2uint_shim>:
1000546c:	2200      	movs	r2, #0

1000546e <double2ufix_shim>:
1000546e:	b500      	push	{lr}
10005470:	3220      	adds	r2, #32
10005472:	f000 f804 	bl	1000547e <double2ufix64_shim>
10005476:	0008      	movs	r0, r1
10005478:	bd00      	pop	{pc}
	...

1000547c <double2uint64_shim>:
1000547c:	2200      	movs	r2, #0

1000547e <double2ufix64_shim>:
1000547e:	150b      	asrs	r3, r1, #20
10005480:	d4f1      	bmi.n	10005466 <ret_dzero>

10005482 <d2fix>:
10005482:	b510      	push	{r4, lr}
10005484:	4694      	mov	ip, r2
10005486:	f000 f82f 	bl	100054e8 <dunpacks>
1000548a:	1414      	asrs	r4, r2, #16
1000548c:	3401      	adds	r4, #1
1000548e:	da00      	bge.n	10005492 <d2fix+0x10>
10005490:	2100      	movs	r1, #0
10005492:	17cb      	asrs	r3, r1, #31
10005494:	4c13      	ldr	r4, [pc, #76]	; (100054e4 <d2fix_a+0x4c>)
10005496:	4720      	bx	r4

10005498 <d2fix_a>:
10005498:	4462      	add	r2, ip
1000549a:	3a34      	subs	r2, #52	; 0x34
1000549c:	d40c      	bmi.n	100054b8 <d2fix_a+0x20>
1000549e:	2a0c      	cmp	r2, #12
100054a0:	da07      	bge.n	100054b2 <d2fix_a+0x1a>
100054a2:	0004      	movs	r4, r0
100054a4:	4091      	lsls	r1, r2
100054a6:	4090      	lsls	r0, r2
100054a8:	4252      	negs	r2, r2
100054aa:	3220      	adds	r2, #32
100054ac:	40d4      	lsrs	r4, r2
100054ae:	4321      	orrs	r1, r4
100054b0:	bd10      	pop	{r4, pc}
100054b2:	43d8      	mvns	r0, r3
100054b4:	43d9      	mvns	r1, r3
100054b6:	bd10      	pop	{r4, pc}
100054b8:	3220      	adds	r2, #32
100054ba:	d407      	bmi.n	100054cc <d2fix_a+0x34>
100054bc:	460c      	mov	r4, r1
100054be:	4094      	lsls	r4, r2
100054c0:	4252      	negs	r2, r2
100054c2:	3220      	adds	r2, #32
100054c4:	4111      	asrs	r1, r2
100054c6:	40d0      	lsrs	r0, r2
100054c8:	4320      	orrs	r0, r4
100054ca:	bd10      	pop	{r4, pc}
100054cc:	0008      	movs	r0, r1
100054ce:	17c9      	asrs	r1, r1, #31
100054d0:	3220      	adds	r2, #32
100054d2:	d403      	bmi.n	100054dc <d2fix_a+0x44>
100054d4:	4252      	negs	r2, r2
100054d6:	3220      	adds	r2, #32
100054d8:	4110      	asrs	r0, r2
100054da:	bd10      	pop	{r4, pc}
100054dc:	0018      	movs	r0, r3
100054de:	0019      	movs	r1, r3
100054e0:	bd10      	pop	{r4, pc}
100054e2:	0000      	.short	0x0000
100054e4:	10005499 	.word	0x10005499

100054e8 <dunpacks>:
100054e8:	0d0a      	lsrs	r2, r1, #20
100054ea:	0fcc      	lsrs	r4, r1, #31
100054ec:	1e53      	subs	r3, r2, #1
100054ee:	051b      	lsls	r3, r3, #20
100054f0:	1ac9      	subs	r1, r1, r3
100054f2:	0552      	lsls	r2, r2, #21
100054f4:	d303      	bcc.n	100054fe <l60_1>
100054f6:	43c9      	mvns	r1, r1
100054f8:	4240      	negs	r0, r0
100054fa:	d300      	bcc.n	100054fe <l60_1>
100054fc:	3101      	adds	r1, #1

100054fe <l60_1>:
100054fe:	0d52      	lsrs	r2, r2, #21
10005500:	d003      	beq.n	1000550a <l60_2>
10005502:	1c53      	adds	r3, r2, #1
10005504:	0adb      	lsrs	r3, r3, #11
10005506:	d007      	beq.n	10005518 <l60_3>
10005508:	1b12      	subs	r2, r2, r4

1000550a <l60_2>:
1000550a:	2000      	movs	r0, #0
1000550c:	0064      	lsls	r4, r4, #1
1000550e:	1c61      	adds	r1, r4, #1
10005510:	0789      	lsls	r1, r1, #30
10005512:	1289      	asrs	r1, r1, #10
10005514:	3a80      	subs	r2, #128	; 0x80
10005516:	0312      	lsls	r2, r2, #12

10005518 <l60_3>:
10005518:	4b01      	ldr	r3, [pc, #4]	; (10005520 <l60_3+0x8>)
1000551a:	1ad2      	subs	r2, r2, r3
1000551c:	4770      	bx	lr
1000551e:	0000      	.short	0x0000
10005520:	000003ff 	.word	0x000003ff

10005524 <__wrap___aeabi_lmul>:
10005524:	4351      	muls	r1, r2
10005526:	4343      	muls	r3, r0
10005528:	18c9      	adds	r1, r1, r3
1000552a:	468c      	mov	ip, r1
1000552c:	0c11      	lsrs	r1, r2, #16
1000552e:	b283      	uxth	r3, r0
10005530:	434b      	muls	r3, r1
10005532:	b410      	push	{r4}
10005534:	0c04      	lsrs	r4, r0, #16
10005536:	4361      	muls	r1, r4
10005538:	b292      	uxth	r2, r2
1000553a:	b280      	uxth	r0, r0
1000553c:	4350      	muls	r0, r2
1000553e:	4362      	muls	r2, r4
10005540:	041c      	lsls	r4, r3, #16
10005542:	0c1b      	lsrs	r3, r3, #16
10005544:	1900      	adds	r0, r0, r4
10005546:	bc10      	pop	{r4}
10005548:	4159      	adcs	r1, r3
1000554a:	0413      	lsls	r3, r2, #16
1000554c:	0c12      	lsrs	r2, r2, #16
1000554e:	18c0      	adds	r0, r0, r3
10005550:	4151      	adcs	r1, r2
10005552:	4461      	add	r1, ip
10005554:	4770      	bx	lr
	...

10005558 <__aeabi_float_init>:
10005558:	2313      	movs	r3, #19
1000555a:	b510      	push	{r4, lr}
1000555c:	781c      	ldrb	r4, [r3, #0]
1000555e:	4813      	ldr	r0, [pc, #76]	; (100055ac <__aeabi_float_init+0x54>)
10005560:	f7ff f96c 	bl	1000483c <rom_data_lookup>
10005564:	2c01      	cmp	r4, #1
10005566:	d00b      	beq.n	10005580 <__aeabi_float_init+0x28>
10005568:	dd04      	ble.n	10005574 <__aeabi_float_init+0x1c>
1000556a:	0001      	movs	r1, r0
1000556c:	2280      	movs	r2, #128	; 0x80
1000556e:	4810      	ldr	r0, [pc, #64]	; (100055b0 <__aeabi_float_init+0x58>)
10005570:	f000 f84a 	bl	10005608 <__wrap___aeabi_memcpy>
10005574:	480f      	ldr	r0, [pc, #60]	; (100055b4 <__aeabi_float_init+0x5c>)
10005576:	f7ff f959 	bl	1000482c <rom_func_lookup>
1000557a:	4b0f      	ldr	r3, [pc, #60]	; (100055b8 <__aeabi_float_init+0x60>)
1000557c:	6018      	str	r0, [r3, #0]
1000557e:	bd10      	pop	{r4, pc}
10005580:	4c0b      	ldr	r4, [pc, #44]	; (100055b0 <__aeabi_float_init+0x58>)
10005582:	0001      	movs	r1, r0
10005584:	2254      	movs	r2, #84	; 0x54
10005586:	0020      	movs	r0, r4
10005588:	f000 f83e 	bl	10005608 <__wrap___aeabi_memcpy>
1000558c:	4b0b      	ldr	r3, [pc, #44]	; (100055bc <__aeabi_float_init+0x64>)
1000558e:	6563      	str	r3, [r4, #84]	; 0x54
10005590:	65a3      	str	r3, [r4, #88]	; 0x58
10005592:	65e3      	str	r3, [r4, #92]	; 0x5c
10005594:	6623      	str	r3, [r4, #96]	; 0x60
10005596:	6663      	str	r3, [r4, #100]	; 0x64
10005598:	66a3      	str	r3, [r4, #104]	; 0x68
1000559a:	66e3      	str	r3, [r4, #108]	; 0x6c
1000559c:	6723      	str	r3, [r4, #112]	; 0x70
1000559e:	6763      	str	r3, [r4, #116]	; 0x74
100055a0:	67a3      	str	r3, [r4, #120]	; 0x78
100055a2:	67e3      	str	r3, [r4, #124]	; 0x7c
100055a4:	6223      	str	r3, [r4, #32]
100055a6:	61e3      	str	r3, [r4, #28]
100055a8:	e7e4      	b.n	10005574 <__aeabi_float_init+0x1c>
100055aa:	46c0      	nop			; (mov r8, r8)
100055ac:	00004653 	.word	0x00004653
100055b0:	200010b0 	.word	0x200010b0
100055b4:	0000334c 	.word	0x0000334c
100055b8:	200011b0 	.word	0x200011b0
100055bc:	100055c1 	.word	0x100055c1

100055c0 <float_table_shim_on_use_helper>:
100055c0:	b507      	push	{r0, r1, r2, lr}
100055c2:	4660      	mov	r0, ip
100055c4:	8801      	ldrh	r1, [r0, #0]
100055c6:	0a0a      	lsrs	r2, r1, #8
100055c8:	3002      	adds	r0, #2
100055ca:	2adf      	cmp	r2, #223	; 0xdf
100055cc:	d1fa      	bne.n	100055c4 <float_table_shim_on_use_helper+0x4>
100055ce:	b2c9      	uxtb	r1, r1
100055d0:	0882      	lsrs	r2, r0, #2
100055d2:	d304      	bcc.n	100055de <float_table_shim_on_use_helper+0x1e>
100055d4:	8802      	ldrh	r2, [r0, #0]
100055d6:	8840      	ldrh	r0, [r0, #2]
100055d8:	0400      	lsls	r0, r0, #16
100055da:	4310      	orrs	r0, r2
100055dc:	e000      	b.n	100055e0 <float_table_shim_on_use_helper+0x20>
100055de:	6800      	ldr	r0, [r0, #0]
100055e0:	4a01      	ldr	r2, [pc, #4]	; (100055e8 <float_table_shim_on_use_helper+0x28>)
100055e2:	5050      	str	r0, [r2, r1]
100055e4:	9003      	str	r0, [sp, #12]
100055e6:	bd07      	pop	{r0, r1, r2, pc}
100055e8:	200010b0 	.word	0x200010b0

100055ec <__aeabi_mem_init>:
100055ec:	4801      	ldr	r0, [pc, #4]	; (100055f4 <__aeabi_mem_init+0x8>)
100055ee:	2104      	movs	r1, #4
100055f0:	4b01      	ldr	r3, [pc, #4]	; (100055f8 <__aeabi_mem_init+0xc>)
100055f2:	4718      	bx	r3
100055f4:	200002d0 	.word	0x200002d0
100055f8:	1000484d 	.word	0x1000484d

100055fc <__wrap_memset>:
100055fc:	4b01      	ldr	r3, [pc, #4]	; (10005604 <__wrap_memset+0x8>)
100055fe:	681b      	ldr	r3, [r3, #0]
10005600:	4718      	bx	r3
10005602:	0000      	.short	0x0000
10005604:	200002d0 	.word	0x200002d0

10005608 <__wrap___aeabi_memcpy>:
10005608:	4b01      	ldr	r3, [pc, #4]	; (10005610 <__wrap___aeabi_memcpy+0x8>)
1000560a:	685b      	ldr	r3, [r3, #4]
1000560c:	4718      	bx	r3
1000560e:	0000      	.short	0x0000
10005610:	200002d0 	.word	0x200002d0

10005614 <stdio_out_chars_crlf.part.0>:
10005614:	b5f0      	push	{r4, r5, r6, r7, lr}
10005616:	46c6      	mov	lr, r8
10005618:	0007      	movs	r7, r0
1000561a:	b500      	push	{lr}
1000561c:	000c      	movs	r4, r1
1000561e:	1e15      	subs	r5, r2, #0
10005620:	dd30      	ble.n	10005684 <stdio_out_chars_crlf.part.0+0x70>
10005622:	780a      	ldrb	r2, [r1, #0]
10005624:	7c03      	ldrb	r3, [r0, #16]
10005626:	2000      	movs	r0, #0
10005628:	2a0a      	cmp	r2, #10
1000562a:	d02e      	beq.n	1000568a <stdio_out_chars_crlf.part.0+0x76>
1000562c:	2101      	movs	r1, #1
1000562e:	2d01      	cmp	r5, #1
10005630:	d01b      	beq.n	1000566a <stdio_out_chars_crlf.part.0+0x56>
10005632:	4b1a      	ldr	r3, [pc, #104]	; (1000569c <stdio_out_chars_crlf.part.0+0x88>)
10005634:	4698      	mov	r8, r3
10005636:	e002      	b.n	1000563e <stdio_out_chars_crlf.part.0+0x2a>
10005638:	0031      	movs	r1, r6
1000563a:	42ae      	cmp	r6, r5
1000563c:	d015      	beq.n	1000566a <stdio_out_chars_crlf.part.0+0x56>
1000563e:	1e4b      	subs	r3, r1, #1
10005640:	5ce2      	ldrb	r2, [r4, r3]
10005642:	5c63      	ldrb	r3, [r4, r1]
10005644:	1c4e      	adds	r6, r1, #1
10005646:	2b0a      	cmp	r3, #10
10005648:	d1f6      	bne.n	10005638 <stdio_out_chars_crlf.part.0+0x24>
1000564a:	2a0d      	cmp	r2, #13
1000564c:	d0f4      	beq.n	10005638 <stdio_out_chars_crlf.part.0+0x24>
1000564e:	683b      	ldr	r3, [r7, #0]
10005650:	4288      	cmp	r0, r1
10005652:	da03      	bge.n	1000565c <stdio_out_chars_crlf.part.0+0x48>
10005654:	1a09      	subs	r1, r1, r0
10005656:	1820      	adds	r0, r4, r0
10005658:	4798      	blx	r3
1000565a:	683b      	ldr	r3, [r7, #0]
1000565c:	2102      	movs	r1, #2
1000565e:	4640      	mov	r0, r8
10005660:	4798      	blx	r3
10005662:	0030      	movs	r0, r6
10005664:	0031      	movs	r1, r6
10005666:	42ae      	cmp	r6, r5
10005668:	d1e9      	bne.n	1000563e <stdio_out_chars_crlf.part.0+0x2a>
1000566a:	4285      	cmp	r5, r0
1000566c:	dd03      	ble.n	10005676 <stdio_out_chars_crlf.part.0+0x62>
1000566e:	1a29      	subs	r1, r5, r0
10005670:	683b      	ldr	r3, [r7, #0]
10005672:	1820      	adds	r0, r4, r0
10005674:	4798      	blx	r3
10005676:	1964      	adds	r4, r4, r5
10005678:	3c01      	subs	r4, #1
1000567a:	7823      	ldrb	r3, [r4, #0]
1000567c:	3b0d      	subs	r3, #13
1000567e:	425a      	negs	r2, r3
10005680:	4153      	adcs	r3, r2
10005682:	743b      	strb	r3, [r7, #16]
10005684:	bc04      	pop	{r2}
10005686:	4690      	mov	r8, r2
10005688:	bdf0      	pop	{r4, r5, r6, r7, pc}
1000568a:	2b00      	cmp	r3, #0
1000568c:	d1ce      	bne.n	1000562c <stdio_out_chars_crlf.part.0+0x18>
1000568e:	4803      	ldr	r0, [pc, #12]	; (1000569c <stdio_out_chars_crlf.part.0+0x88>)
10005690:	2102      	movs	r1, #2
10005692:	683b      	ldr	r3, [r7, #0]
10005694:	4798      	blx	r3
10005696:	2001      	movs	r0, #1
10005698:	e7c8      	b.n	1000562c <stdio_out_chars_crlf.part.0+0x18>
1000569a:	46c0      	nop			; (mov r8, r8)
1000569c:	10008330 	.word	0x10008330

100056a0 <stdio_buffered_printer>:
100056a0:	b5f0      	push	{r4, r5, r6, r7, lr}
100056a2:	46c6      	mov	lr, r8
100056a4:	680b      	ldr	r3, [r1, #0]
100056a6:	b500      	push	{lr}
100056a8:	0006      	movs	r6, r0
100056aa:	000d      	movs	r5, r1
100056ac:	2b80      	cmp	r3, #128	; 0x80
100056ae:	d006      	beq.n	100056be <stdio_buffered_printer+0x1e>
100056b0:	1c5a      	adds	r2, r3, #1
100056b2:	602a      	str	r2, [r5, #0]
100056b4:	18ed      	adds	r5, r5, r3
100056b6:	712e      	strb	r6, [r5, #4]
100056b8:	bc04      	pop	{r2}
100056ba:	4690      	mov	r8, r2
100056bc:	bdf0      	pop	{r4, r5, r6, r7, pc}
100056be:	4b12      	ldr	r3, [pc, #72]	; (10005708 <stdio_buffered_printer+0x68>)
100056c0:	681c      	ldr	r4, [r3, #0]
100056c2:	2c00      	cmp	r4, #0
100056c4:	d017      	beq.n	100056f6 <stdio_buffered_printer+0x56>
100056c6:	1d0b      	adds	r3, r1, #4
100056c8:	4f10      	ldr	r7, [pc, #64]	; (1000570c <stdio_buffered_printer+0x6c>)
100056ca:	4698      	mov	r8, r3
100056cc:	e002      	b.n	100056d4 <stdio_buffered_printer+0x34>
100056ce:	68e4      	ldr	r4, [r4, #12]
100056d0:	2c00      	cmp	r4, #0
100056d2:	d010      	beq.n	100056f6 <stdio_buffered_printer+0x56>
100056d4:	6823      	ldr	r3, [r4, #0]
100056d6:	2b00      	cmp	r3, #0
100056d8:	d0f9      	beq.n	100056ce <stdio_buffered_printer+0x2e>
100056da:	683a      	ldr	r2, [r7, #0]
100056dc:	2a00      	cmp	r2, #0
100056de:	d001      	beq.n	100056e4 <stdio_buffered_printer+0x44>
100056e0:	42a2      	cmp	r2, r4
100056e2:	d1f4      	bne.n	100056ce <stdio_buffered_printer+0x2e>
100056e4:	7c60      	ldrb	r0, [r4, #17]
100056e6:	6829      	ldr	r1, [r5, #0]
100056e8:	2800      	cmp	r0, #0
100056ea:	d107      	bne.n	100056fc <stdio_buffered_printer+0x5c>
100056ec:	4640      	mov	r0, r8
100056ee:	4798      	blx	r3
100056f0:	68e4      	ldr	r4, [r4, #12]
100056f2:	2c00      	cmp	r4, #0
100056f4:	d1ee      	bne.n	100056d4 <stdio_buffered_printer+0x34>
100056f6:	2201      	movs	r2, #1
100056f8:	2300      	movs	r3, #0
100056fa:	e7da      	b.n	100056b2 <stdio_buffered_printer+0x12>
100056fc:	000a      	movs	r2, r1
100056fe:	0020      	movs	r0, r4
10005700:	4641      	mov	r1, r8
10005702:	f7ff ff87 	bl	10005614 <stdio_out_chars_crlf.part.0>
10005706:	e7e2      	b.n	100056ce <stdio_buffered_printer+0x2e>
10005708:	20000888 	.word	0x20000888
1000570c:	2000088c 	.word	0x2000088c

10005710 <__wrap_putchar>:
10005710:	b5f0      	push	{r4, r5, r6, r7, lr}
10005712:	46ce      	mov	lr, r9
10005714:	4647      	mov	r7, r8
10005716:	b580      	push	{r7, lr}
10005718:	b083      	sub	sp, #12
1000571a:	466b      	mov	r3, sp
1000571c:	1cde      	adds	r6, r3, #3
1000571e:	23d0      	movs	r3, #208	; 0xd0
10005720:	7030      	strb	r0, [r6, #0]
10005722:	061b      	lsls	r3, r3, #24
10005724:	681c      	ldr	r4, [r3, #0]
10005726:	4b22      	ldr	r3, [pc, #136]	; (100057b0 <__wrap_putchar+0xa0>)
10005728:	4680      	mov	r8, r0
1000572a:	a901      	add	r1, sp, #4
1000572c:	0018      	movs	r0, r3
1000572e:	4699      	mov	r9, r3
10005730:	f002 fc06 	bl	10007f40 <__mutex_try_enter_veneer>
10005734:	1e07      	subs	r7, r0, #0
10005736:	d12d      	bne.n	10005794 <__wrap_putchar+0x84>
10005738:	9b01      	ldr	r3, [sp, #4]
1000573a:	429c      	cmp	r4, r3
1000573c:	d025      	beq.n	1000578a <__wrap_putchar+0x7a>
1000573e:	4648      	mov	r0, r9
10005740:	f002 fc0e 	bl	10007f60 <__mutex_enter_blocking_veneer>
10005744:	4b1b      	ldr	r3, [pc, #108]	; (100057b4 <__wrap_putchar+0xa4>)
10005746:	2701      	movs	r7, #1
10005748:	681c      	ldr	r4, [r3, #0]
1000574a:	2c00      	cmp	r4, #0
1000574c:	d026      	beq.n	1000579c <__wrap_putchar+0x8c>
1000574e:	4d1a      	ldr	r5, [pc, #104]	; (100057b8 <__wrap_putchar+0xa8>)
10005750:	e002      	b.n	10005758 <__wrap_putchar+0x48>
10005752:	68e4      	ldr	r4, [r4, #12]
10005754:	2c00      	cmp	r4, #0
10005756:	d010      	beq.n	1000577a <__wrap_putchar+0x6a>
10005758:	6823      	ldr	r3, [r4, #0]
1000575a:	2b00      	cmp	r3, #0
1000575c:	d0f9      	beq.n	10005752 <__wrap_putchar+0x42>
1000575e:	682a      	ldr	r2, [r5, #0]
10005760:	2a00      	cmp	r2, #0
10005762:	d001      	beq.n	10005768 <__wrap_putchar+0x58>
10005764:	42a2      	cmp	r2, r4
10005766:	d1f4      	bne.n	10005752 <__wrap_putchar+0x42>
10005768:	7c62      	ldrb	r2, [r4, #17]
1000576a:	2a00      	cmp	r2, #0
1000576c:	d11a      	bne.n	100057a4 <__wrap_putchar+0x94>
1000576e:	2101      	movs	r1, #1
10005770:	0030      	movs	r0, r6
10005772:	4798      	blx	r3
10005774:	68e4      	ldr	r4, [r4, #12]
10005776:	2c00      	cmp	r4, #0
10005778:	d1ee      	bne.n	10005758 <__wrap_putchar+0x48>
1000577a:	2f00      	cmp	r7, #0
1000577c:	d10e      	bne.n	1000579c <__wrap_putchar+0x8c>
1000577e:	4640      	mov	r0, r8
10005780:	b003      	add	sp, #12
10005782:	bc0c      	pop	{r2, r3}
10005784:	4690      	mov	r8, r2
10005786:	4699      	mov	r9, r3
10005788:	bdf0      	pop	{r4, r5, r6, r7, pc}
1000578a:	4b0a      	ldr	r3, [pc, #40]	; (100057b4 <__wrap_putchar+0xa4>)
1000578c:	681c      	ldr	r4, [r3, #0]
1000578e:	2c00      	cmp	r4, #0
10005790:	d1dd      	bne.n	1000574e <__wrap_putchar+0x3e>
10005792:	e7f4      	b.n	1000577e <__wrap_putchar+0x6e>
10005794:	4b07      	ldr	r3, [pc, #28]	; (100057b4 <__wrap_putchar+0xa4>)
10005796:	681c      	ldr	r4, [r3, #0]
10005798:	2c00      	cmp	r4, #0
1000579a:	d1d8      	bne.n	1000574e <__wrap_putchar+0x3e>
1000579c:	4648      	mov	r0, r9
1000579e:	f002 fbb7 	bl	10007f10 <__mutex_exit_veneer>
100057a2:	e7ec      	b.n	1000577e <__wrap_putchar+0x6e>
100057a4:	2201      	movs	r2, #1
100057a6:	0031      	movs	r1, r6
100057a8:	0020      	movs	r0, r4
100057aa:	f7ff ff33 	bl	10005614 <stdio_out_chars_crlf.part.0>
100057ae:	e7d0      	b.n	10005752 <__wrap_putchar+0x42>
100057b0:	20000330 	.word	0x20000330
100057b4:	20000888 	.word	0x20000888
100057b8:	2000088c 	.word	0x2000088c

100057bc <__wrap_puts>:
100057bc:	b5f0      	push	{r4, r5, r6, r7, lr}
100057be:	46de      	mov	lr, fp
100057c0:	4645      	mov	r5, r8
100057c2:	4657      	mov	r7, sl
100057c4:	464e      	mov	r6, r9
100057c6:	b5e0      	push	{r5, r6, r7, lr}
100057c8:	b083      	sub	sp, #12
100057ca:	4680      	mov	r8, r0
100057cc:	f002 fb6c 	bl	10007ea8 <strlen>
100057d0:	23d0      	movs	r3, #208	; 0xd0
100057d2:	ad01      	add	r5, sp, #4
100057d4:	061b      	lsls	r3, r3, #24
100057d6:	0007      	movs	r7, r0
100057d8:	0029      	movs	r1, r5
100057da:	483c      	ldr	r0, [pc, #240]	; (100058cc <__wrap_puts+0x110>)
100057dc:	681c      	ldr	r4, [r3, #0]
100057de:	f002 fbaf 	bl	10007f40 <__mutex_try_enter_veneer>
100057e2:	4683      	mov	fp, r0
100057e4:	2800      	cmp	r0, #0
100057e6:	d14d      	bne.n	10005884 <__wrap_puts+0xc8>
100057e8:	9b01      	ldr	r3, [sp, #4]
100057ea:	429c      	cmp	r4, r3
100057ec:	d044      	beq.n	10005878 <__wrap_puts+0xbc>
100057ee:	4837      	ldr	r0, [pc, #220]	; (100058cc <__wrap_puts+0x110>)
100057f0:	f002 fbb6 	bl	10007f60 <__mutex_enter_blocking_veneer>
100057f4:	4b36      	ldr	r3, [pc, #216]	; (100058d0 <__wrap_puts+0x114>)
100057f6:	469a      	mov	sl, r3
100057f8:	681c      	ldr	r4, [r3, #0]
100057fa:	2301      	movs	r3, #1
100057fc:	469b      	mov	fp, r3
100057fe:	2c00      	cmp	r4, #0
10005800:	d045      	beq.n	1000588e <__wrap_puts+0xd2>
10005802:	230a      	movs	r3, #10
10005804:	4699      	mov	r9, r3
10005806:	003b      	movs	r3, r7
10005808:	4e32      	ldr	r6, [pc, #200]	; (100058d4 <__wrap_puts+0x118>)
1000580a:	4647      	mov	r7, r8
1000580c:	4698      	mov	r8, r3
1000580e:	e002      	b.n	10005816 <__wrap_puts+0x5a>
10005810:	68e4      	ldr	r4, [r4, #12]
10005812:	2c00      	cmp	r4, #0
10005814:	d019      	beq.n	1000584a <__wrap_puts+0x8e>
10005816:	6823      	ldr	r3, [r4, #0]
10005818:	2b00      	cmp	r3, #0
1000581a:	d0f9      	beq.n	10005810 <__wrap_puts+0x54>
1000581c:	6832      	ldr	r2, [r6, #0]
1000581e:	2a00      	cmp	r2, #0
10005820:	d001      	beq.n	10005826 <__wrap_puts+0x6a>
10005822:	42a2      	cmp	r2, r4
10005824:	d1f4      	bne.n	10005810 <__wrap_puts+0x54>
10005826:	7c62      	ldrb	r2, [r4, #17]
10005828:	2a00      	cmp	r2, #0
1000582a:	d140      	bne.n	100058ae <__wrap_puts+0xf2>
1000582c:	4641      	mov	r1, r8
1000582e:	0038      	movs	r0, r7
10005830:	4798      	blx	r3
10005832:	464b      	mov	r3, r9
10005834:	702b      	strb	r3, [r5, #0]
10005836:	7c62      	ldrb	r2, [r4, #17]
10005838:	6823      	ldr	r3, [r4, #0]
1000583a:	2a00      	cmp	r2, #0
1000583c:	d12b      	bne.n	10005896 <__wrap_puts+0xda>
1000583e:	2101      	movs	r1, #1
10005840:	0028      	movs	r0, r5
10005842:	4798      	blx	r3
10005844:	68e4      	ldr	r4, [r4, #12]
10005846:	2c00      	cmp	r4, #0
10005848:	d1e5      	bne.n	10005816 <__wrap_puts+0x5a>
1000584a:	465b      	mov	r3, fp
1000584c:	4647      	mov	r7, r8
1000584e:	2b00      	cmp	r3, #0
10005850:	d11d      	bne.n	1000588e <__wrap_puts+0xd2>
10005852:	4653      	mov	r3, sl
10005854:	681c      	ldr	r4, [r3, #0]
10005856:	2c00      	cmp	r4, #0
10005858:	d006      	beq.n	10005868 <__wrap_puts+0xac>
1000585a:	6863      	ldr	r3, [r4, #4]
1000585c:	2b00      	cmp	r3, #0
1000585e:	d02c      	beq.n	100058ba <__wrap_puts+0xfe>
10005860:	4798      	blx	r3
10005862:	68e4      	ldr	r4, [r4, #12]
10005864:	2c00      	cmp	r4, #0
10005866:	d1f8      	bne.n	1000585a <__wrap_puts+0x9e>
10005868:	0038      	movs	r0, r7
1000586a:	b003      	add	sp, #12
1000586c:	bc3c      	pop	{r2, r3, r4, r5}
1000586e:	4690      	mov	r8, r2
10005870:	4699      	mov	r9, r3
10005872:	46a2      	mov	sl, r4
10005874:	46ab      	mov	fp, r5
10005876:	bdf0      	pop	{r4, r5, r6, r7, pc}
10005878:	4b15      	ldr	r3, [pc, #84]	; (100058d0 <__wrap_puts+0x114>)
1000587a:	681c      	ldr	r4, [r3, #0]
1000587c:	469a      	mov	sl, r3
1000587e:	2c00      	cmp	r4, #0
10005880:	d1bf      	bne.n	10005802 <__wrap_puts+0x46>
10005882:	e7f1      	b.n	10005868 <__wrap_puts+0xac>
10005884:	4b12      	ldr	r3, [pc, #72]	; (100058d0 <__wrap_puts+0x114>)
10005886:	681c      	ldr	r4, [r3, #0]
10005888:	469a      	mov	sl, r3
1000588a:	2c00      	cmp	r4, #0
1000588c:	d1b9      	bne.n	10005802 <__wrap_puts+0x46>
1000588e:	480f      	ldr	r0, [pc, #60]	; (100058cc <__wrap_puts+0x110>)
10005890:	f002 fb3e 	bl	10007f10 <__mutex_exit_veneer>
10005894:	e7dd      	b.n	10005852 <__wrap_puts+0x96>
10005896:	7c22      	ldrb	r2, [r4, #16]
10005898:	2a00      	cmp	r2, #0
1000589a:	d112      	bne.n	100058c2 <__wrap_puts+0x106>
1000589c:	2102      	movs	r1, #2
1000589e:	480e      	ldr	r0, [pc, #56]	; (100058d8 <__wrap_puts+0x11c>)
100058a0:	4798      	blx	r3
100058a2:	782b      	ldrb	r3, [r5, #0]
100058a4:	3b0d      	subs	r3, #13
100058a6:	425a      	negs	r2, r3
100058a8:	4153      	adcs	r3, r2
100058aa:	7423      	strb	r3, [r4, #16]
100058ac:	e7b0      	b.n	10005810 <__wrap_puts+0x54>
100058ae:	4642      	mov	r2, r8
100058b0:	0039      	movs	r1, r7
100058b2:	0020      	movs	r0, r4
100058b4:	f7ff feae 	bl	10005614 <stdio_out_chars_crlf.part.0>
100058b8:	e7bb      	b.n	10005832 <__wrap_puts+0x76>
100058ba:	68e4      	ldr	r4, [r4, #12]
100058bc:	2c00      	cmp	r4, #0
100058be:	d1cc      	bne.n	1000585a <__wrap_puts+0x9e>
100058c0:	e7d2      	b.n	10005868 <__wrap_puts+0xac>
100058c2:	2101      	movs	r1, #1
100058c4:	0028      	movs	r0, r5
100058c6:	4798      	blx	r3
100058c8:	e7eb      	b.n	100058a2 <__wrap_puts+0xe6>
100058ca:	46c0      	nop			; (mov r8, r8)
100058cc:	20000330 	.word	0x20000330
100058d0:	20000888 	.word	0x20000888
100058d4:	2000088c 	.word	0x2000088c
100058d8:	10008330 	.word	0x10008330

100058dc <stdio_set_driver_enabled>:
100058dc:	4b0d      	ldr	r3, [pc, #52]	; (10005914 <stdio_set_driver_enabled+0x38>)
100058de:	681a      	ldr	r2, [r3, #0]
100058e0:	2a00      	cmp	r2, #0
100058e2:	d012      	beq.n	1000590a <stdio_set_driver_enabled+0x2e>
100058e4:	4282      	cmp	r2, r0
100058e6:	d103      	bne.n	100058f0 <stdio_set_driver_enabled+0x14>
100058e8:	e009      	b.n	100058fe <stdio_set_driver_enabled+0x22>
100058ea:	4298      	cmp	r0, r3
100058ec:	d007      	beq.n	100058fe <stdio_set_driver_enabled+0x22>
100058ee:	001a      	movs	r2, r3
100058f0:	68d3      	ldr	r3, [r2, #12]
100058f2:	2b00      	cmp	r3, #0
100058f4:	d1f9      	bne.n	100058ea <stdio_set_driver_enabled+0xe>
100058f6:	2900      	cmp	r1, #0
100058f8:	d000      	beq.n	100058fc <stdio_set_driver_enabled+0x20>
100058fa:	60d0      	str	r0, [r2, #12]
100058fc:	4770      	bx	lr
100058fe:	2900      	cmp	r1, #0
10005900:	d1fc      	bne.n	100058fc <stdio_set_driver_enabled+0x20>
10005902:	68c3      	ldr	r3, [r0, #12]
10005904:	60d3      	str	r3, [r2, #12]
10005906:	60c1      	str	r1, [r0, #12]
10005908:	e7f8      	b.n	100058fc <stdio_set_driver_enabled+0x20>
1000590a:	2900      	cmp	r1, #0
1000590c:	d0f6      	beq.n	100058fc <stdio_set_driver_enabled+0x20>
1000590e:	6018      	str	r0, [r3, #0]
10005910:	e7f4      	b.n	100058fc <stdio_set_driver_enabled+0x20>
10005912:	46c0      	nop			; (mov r8, r8)
10005914:	20000888 	.word	0x20000888

10005918 <__wrap_vprintf>:
10005918:	b5f0      	push	{r4, r5, r6, r7, lr}
1000591a:	4647      	mov	r7, r8
1000591c:	46ce      	mov	lr, r9
1000591e:	23d0      	movs	r3, #208	; 0xd0
10005920:	b580      	push	{r7, lr}
10005922:	061b      	lsls	r3, r3, #24
10005924:	4f30      	ldr	r7, [pc, #192]	; (100059e8 <__wrap_vprintf+0xd0>)
10005926:	b0a3      	sub	sp, #140	; 0x8c
10005928:	681b      	ldr	r3, [r3, #0]
1000592a:	0004      	movs	r4, r0
1000592c:	000d      	movs	r5, r1
1000592e:	0038      	movs	r0, r7
10005930:	a901      	add	r1, sp, #4
10005932:	4698      	mov	r8, r3
10005934:	f002 fb04 	bl	10007f40 <__mutex_try_enter_veneer>
10005938:	1e06      	subs	r6, r0, #0
1000593a:	d106      	bne.n	1000594a <__wrap_vprintf+0x32>
1000593c:	9b01      	ldr	r3, [sp, #4]
1000593e:	4598      	cmp	r8, r3
10005940:	d003      	beq.n	1000594a <__wrap_vprintf+0x32>
10005942:	0038      	movs	r0, r7
10005944:	f002 fb0c 	bl	10007f60 <__mutex_enter_blocking_veneer>
10005948:	3601      	adds	r6, #1
1000594a:	2284      	movs	r2, #132	; 0x84
1000594c:	2100      	movs	r1, #0
1000594e:	a801      	add	r0, sp, #4
10005950:	f7ff fe54 	bl	100055fc <__wrap_memset>
10005954:	002b      	movs	r3, r5
10005956:	0022      	movs	r2, r4
10005958:	a901      	add	r1, sp, #4
1000595a:	4824      	ldr	r0, [pc, #144]	; (100059ec <__wrap_vprintf+0xd4>)
1000595c:	f7fe ff36 	bl	100047cc <vfctprintf>
10005960:	9b01      	ldr	r3, [sp, #4]
10005962:	4680      	mov	r8, r0
10005964:	2b00      	cmp	r3, #0
10005966:	d117      	bne.n	10005998 <__wrap_vprintf+0x80>
10005968:	4b21      	ldr	r3, [pc, #132]	; (100059f0 <__wrap_vprintf+0xd8>)
1000596a:	681c      	ldr	r4, [r3, #0]
1000596c:	2c00      	cmp	r4, #0
1000596e:	d006      	beq.n	1000597e <__wrap_vprintf+0x66>
10005970:	6863      	ldr	r3, [r4, #4]
10005972:	2b00      	cmp	r3, #0
10005974:	d00e      	beq.n	10005994 <__wrap_vprintf+0x7c>
10005976:	4798      	blx	r3
10005978:	68e4      	ldr	r4, [r4, #12]
1000597a:	2c00      	cmp	r4, #0
1000597c:	d1f8      	bne.n	10005970 <__wrap_vprintf+0x58>
1000597e:	2e00      	cmp	r6, #0
10005980:	d002      	beq.n	10005988 <__wrap_vprintf+0x70>
10005982:	0038      	movs	r0, r7
10005984:	f002 fac4 	bl	10007f10 <__mutex_exit_veneer>
10005988:	4640      	mov	r0, r8
1000598a:	b023      	add	sp, #140	; 0x8c
1000598c:	bc0c      	pop	{r2, r3}
1000598e:	4690      	mov	r8, r2
10005990:	4699      	mov	r9, r3
10005992:	bdf0      	pop	{r4, r5, r6, r7, pc}
10005994:	68e4      	ldr	r4, [r4, #12]
10005996:	e7e9      	b.n	1000596c <__wrap_vprintf+0x54>
10005998:	4b15      	ldr	r3, [pc, #84]	; (100059f0 <__wrap_vprintf+0xd8>)
1000599a:	681d      	ldr	r5, [r3, #0]
1000599c:	4699      	mov	r9, r3
1000599e:	2d00      	cmp	r5, #0
100059a0:	d01f      	beq.n	100059e2 <__wrap_vprintf+0xca>
100059a2:	4c14      	ldr	r4, [pc, #80]	; (100059f4 <__wrap_vprintf+0xdc>)
100059a4:	e002      	b.n	100059ac <__wrap_vprintf+0x94>
100059a6:	68ed      	ldr	r5, [r5, #12]
100059a8:	2d00      	cmp	r5, #0
100059aa:	d010      	beq.n	100059ce <__wrap_vprintf+0xb6>
100059ac:	682b      	ldr	r3, [r5, #0]
100059ae:	2b00      	cmp	r3, #0
100059b0:	d0f9      	beq.n	100059a6 <__wrap_vprintf+0x8e>
100059b2:	6822      	ldr	r2, [r4, #0]
100059b4:	2a00      	cmp	r2, #0
100059b6:	d001      	beq.n	100059bc <__wrap_vprintf+0xa4>
100059b8:	42aa      	cmp	r2, r5
100059ba:	d1f4      	bne.n	100059a6 <__wrap_vprintf+0x8e>
100059bc:	7c68      	ldrb	r0, [r5, #17]
100059be:	9901      	ldr	r1, [sp, #4]
100059c0:	2800      	cmp	r0, #0
100059c2:	d108      	bne.n	100059d6 <__wrap_vprintf+0xbe>
100059c4:	a802      	add	r0, sp, #8
100059c6:	4798      	blx	r3
100059c8:	68ed      	ldr	r5, [r5, #12]
100059ca:	2d00      	cmp	r5, #0
100059cc:	d1ee      	bne.n	100059ac <__wrap_vprintf+0x94>
100059ce:	464b      	mov	r3, r9
100059d0:	9501      	str	r5, [sp, #4]
100059d2:	681c      	ldr	r4, [r3, #0]
100059d4:	e7ca      	b.n	1000596c <__wrap_vprintf+0x54>
100059d6:	000a      	movs	r2, r1
100059d8:	0028      	movs	r0, r5
100059da:	a902      	add	r1, sp, #8
100059dc:	f7ff fe1a 	bl	10005614 <stdio_out_chars_crlf.part.0>
100059e0:	e7e1      	b.n	100059a6 <__wrap_vprintf+0x8e>
100059e2:	9501      	str	r5, [sp, #4]
100059e4:	e7cb      	b.n	1000597e <__wrap_vprintf+0x66>
100059e6:	46c0      	nop			; (mov r8, r8)
100059e8:	20000330 	.word	0x20000330
100059ec:	100056a1 	.word	0x100056a1
100059f0:	20000888 	.word	0x20000888
100059f4:	2000088c 	.word	0x2000088c

100059f8 <__wrap_printf>:
100059f8:	b40f      	push	{r0, r1, r2, r3}
100059fa:	b500      	push	{lr}
100059fc:	b083      	sub	sp, #12
100059fe:	a904      	add	r1, sp, #16
10005a00:	c901      	ldmia	r1!, {r0}
10005a02:	9101      	str	r1, [sp, #4]
10005a04:	f7ff ff88 	bl	10005918 <__wrap_vprintf>
10005a08:	b003      	add	sp, #12
10005a0a:	bc08      	pop	{r3}
10005a0c:	b004      	add	sp, #16
10005a0e:	4718      	bx	r3

10005a10 <stdio_init_all>:
10005a10:	b510      	push	{r4, lr}
10005a12:	f000 f847 	bl	10005aa4 <stdio_uart_init>
10005a16:	f000 f99b 	bl	10005d50 <stdio_usb_init>
10005a1a:	bd10      	pop	{r4, pc}

10005a1c <stdio_uart_out_chars>:
10005a1c:	b5f0      	push	{r4, r5, r6, r7, lr}
10005a1e:	2900      	cmp	r1, #0
10005a20:	dd15      	ble.n	10005a4e <stdio_uart_out_chars+0x32>
10005a22:	4b0e      	ldr	r3, [pc, #56]	; (10005a5c <stdio_uart_out_chars+0x40>)
10005a24:	270d      	movs	r7, #13
10005a26:	681a      	ldr	r2, [r3, #0]
10005a28:	4b0d      	ldr	r3, [pc, #52]	; (10005a60 <stdio_uart_out_chars+0x44>)
10005a2a:	1841      	adds	r1, r0, r1
10005a2c:	18d3      	adds	r3, r2, r3
10005a2e:	425c      	negs	r4, r3
10005a30:	4163      	adcs	r3, r4
10005a32:	4c0c      	ldr	r4, [pc, #48]	; (10005a64 <stdio_uart_out_chars+0x48>)
10005a34:	005b      	lsls	r3, r3, #1
10005a36:	5f1e      	ldrsh	r6, [r3, r4]
10005a38:	2420      	movs	r4, #32
10005a3a:	7805      	ldrb	r5, [r0, #0]
10005a3c:	42ae      	cmp	r6, r5
10005a3e:	d007      	beq.n	10005a50 <stdio_uart_out_chars+0x34>
10005a40:	6993      	ldr	r3, [r2, #24]
10005a42:	421c      	tst	r4, r3
10005a44:	d1fc      	bne.n	10005a40 <stdio_uart_out_chars+0x24>
10005a46:	3001      	adds	r0, #1
10005a48:	6015      	str	r5, [r2, #0]
10005a4a:	4288      	cmp	r0, r1
10005a4c:	d1f5      	bne.n	10005a3a <stdio_uart_out_chars+0x1e>
10005a4e:	bdf0      	pop	{r4, r5, r6, r7, pc}
10005a50:	6993      	ldr	r3, [r2, #24]
10005a52:	421c      	tst	r4, r3
10005a54:	d1fc      	bne.n	10005a50 <stdio_uart_out_chars+0x34>
10005a56:	6017      	str	r7, [r2, #0]
10005a58:	e7f2      	b.n	10005a40 <stdio_uart_out_chars+0x24>
10005a5a:	46c0      	nop			; (mov r8, r8)
10005a5c:	20000fa0 	.word	0x20000fa0
10005a60:	bffc8000 	.word	0xbffc8000
10005a64:	20000fac 	.word	0x20000fac

10005a68 <stdio_uart_in_chars>:
10005a68:	b530      	push	{r4, r5, lr}
10005a6a:	2900      	cmp	r1, #0
10005a6c:	dd15      	ble.n	10005a9a <stdio_uart_in_chars+0x32>
10005a6e:	4b0c      	ldr	r3, [pc, #48]	; (10005aa0 <stdio_uart_in_chars+0x38>)
10005a70:	681a      	ldr	r2, [r3, #0]
10005a72:	6993      	ldr	r3, [r2, #24]
10005a74:	06db      	lsls	r3, r3, #27
10005a76:	d410      	bmi.n	10005a9a <stdio_uart_in_chars+0x32>
10005a78:	2500      	movs	r5, #0
10005a7a:	2410      	movs	r4, #16
10005a7c:	3501      	adds	r5, #1
10005a7e:	6993      	ldr	r3, [r2, #24]
10005a80:	421c      	tst	r4, r3
10005a82:	d1fc      	bne.n	10005a7e <stdio_uart_in_chars+0x16>
10005a84:	6813      	ldr	r3, [r2, #0]
10005a86:	7003      	strb	r3, [r0, #0]
10005a88:	42a9      	cmp	r1, r5
10005a8a:	d004      	beq.n	10005a96 <stdio_uart_in_chars+0x2e>
10005a8c:	6993      	ldr	r3, [r2, #24]
10005a8e:	3001      	adds	r0, #1
10005a90:	421c      	tst	r4, r3
10005a92:	d0f3      	beq.n	10005a7c <stdio_uart_in_chars+0x14>
10005a94:	0029      	movs	r1, r5
10005a96:	0008      	movs	r0, r1
10005a98:	bd30      	pop	{r4, r5, pc}
10005a9a:	2003      	movs	r0, #3
10005a9c:	4240      	negs	r0, r0
10005a9e:	e7fb      	b.n	10005a98 <stdio_uart_in_chars+0x30>
10005aa0:	20000fa0 	.word	0x20000fa0

10005aa4 <stdio_uart_init>:
10005aa4:	21e1      	movs	r1, #225	; 0xe1
10005aa6:	b510      	push	{r4, lr}
10005aa8:	4b0b      	ldr	r3, [pc, #44]	; (10005ad8 <stdio_uart_init+0x34>)
10005aaa:	480c      	ldr	r0, [pc, #48]	; (10005adc <stdio_uart_init+0x38>)
10005aac:	781b      	ldrb	r3, [r3, #0]
10005aae:	4b0c      	ldr	r3, [pc, #48]	; (10005ae0 <stdio_uart_init+0x3c>)
10005ab0:	0249      	lsls	r1, r1, #9
10005ab2:	781b      	ldrb	r3, [r3, #0]
10005ab4:	4b0b      	ldr	r3, [pc, #44]	; (10005ae4 <stdio_uart_init+0x40>)
10005ab6:	6018      	str	r0, [r3, #0]
10005ab8:	f7fa fdf2 	bl	100006a0 <uart_init>
10005abc:	2102      	movs	r1, #2
10005abe:	2000      	movs	r0, #0
10005ac0:	f7fa fd00 	bl	100004c4 <gpio_set_function>
10005ac4:	2102      	movs	r1, #2
10005ac6:	2001      	movs	r0, #1
10005ac8:	f7fa fcfc 	bl	100004c4 <gpio_set_function>
10005acc:	2101      	movs	r1, #1
10005ace:	4806      	ldr	r0, [pc, #24]	; (10005ae8 <stdio_uart_init+0x44>)
10005ad0:	f7ff ff04 	bl	100058dc <stdio_set_driver_enabled>
10005ad4:	bd10      	pop	{r4, pc}
10005ad6:	46c0      	nop			; (mov r8, r8)
10005ad8:	100085e0 	.word	0x100085e0
10005adc:	40034000 	.word	0x40034000
10005ae0:	100085e4 	.word	0x100085e4
10005ae4:	20000fa0 	.word	0x20000fa0
10005ae8:	200002e0 	.word	0x200002e0

10005aec <resetd_init>:
10005aec:	4770      	bx	lr
10005aee:	46c0      	nop			; (mov r8, r8)

10005af0 <resetd_reset>:
10005af0:	2200      	movs	r2, #0
10005af2:	4b01      	ldr	r3, [pc, #4]	; (10005af8 <resetd_reset+0x8>)
10005af4:	701a      	strb	r2, [r3, #0]
10005af6:	4770      	bx	lr
10005af8:	20000fa9 	.word	0x20000fa9

10005afc <resetd_control_complete_cb>:
10005afc:	2001      	movs	r0, #1
10005afe:	4770      	bx	lr

10005b00 <resetd_xfer_cb>:
10005b00:	2001      	movs	r0, #1
10005b02:	4770      	bx	lr

10005b04 <resetd_open>:
10005b04:	794b      	ldrb	r3, [r1, #5]
10005b06:	2000      	movs	r0, #0
10005b08:	2bff      	cmp	r3, #255	; 0xff
10005b0a:	d000      	beq.n	10005b0e <resetd_open+0xa>
10005b0c:	4770      	bx	lr
10005b0e:	798b      	ldrb	r3, [r1, #6]
10005b10:	2b00      	cmp	r3, #0
10005b12:	d1fb      	bne.n	10005b0c <resetd_open+0x8>
10005b14:	79cb      	ldrb	r3, [r1, #7]
10005b16:	2b01      	cmp	r3, #1
10005b18:	d1f8      	bne.n	10005b0c <resetd_open+0x8>
10005b1a:	2a08      	cmp	r2, #8
10005b1c:	d9f6      	bls.n	10005b0c <resetd_open+0x8>
10005b1e:	788a      	ldrb	r2, [r1, #2]
10005b20:	4b01      	ldr	r3, [pc, #4]	; (10005b28 <resetd_open+0x24>)
10005b22:	3009      	adds	r0, #9
10005b24:	701a      	strb	r2, [r3, #0]
10005b26:	e7f1      	b.n	10005b0c <resetd_open+0x8>
10005b28:	20000fa9 	.word	0x20000fa9

10005b2c <resetd_control_request_cb>:
10005b2c:	b570      	push	{r4, r5, r6, lr}
10005b2e:	4a14      	ldr	r2, [pc, #80]	; (10005b80 <resetd_control_request_cb+0x54>)
10005b30:	794b      	ldrb	r3, [r1, #5]
10005b32:	7908      	ldrb	r0, [r1, #4]
10005b34:	7812      	ldrb	r2, [r2, #0]
10005b36:	021b      	lsls	r3, r3, #8
10005b38:	4303      	orrs	r3, r0
10005b3a:	2000      	movs	r0, #0
10005b3c:	429a      	cmp	r2, r3
10005b3e:	d000      	beq.n	10005b42 <resetd_control_request_cb+0x16>
10005b40:	bd70      	pop	{r4, r5, r6, pc}
10005b42:	784b      	ldrb	r3, [r1, #1]
10005b44:	2b01      	cmp	r3, #1
10005b46:	d008      	beq.n	10005b5a <resetd_control_request_cb+0x2e>
10005b48:	2b02      	cmp	r3, #2
10005b4a:	d1f9      	bne.n	10005b40 <resetd_control_request_cb+0x14>
10005b4c:	2000      	movs	r0, #0
10005b4e:	2264      	movs	r2, #100	; 0x64
10005b50:	2100      	movs	r1, #0
10005b52:	f7fc f903 	bl	10001d5c <watchdog_reboot>
10005b56:	2001      	movs	r0, #1
10005b58:	e7f2      	b.n	10005b40 <resetd_control_request_cb+0x14>
10005b5a:	78cc      	ldrb	r4, [r1, #3]
10005b5c:	788a      	ldrb	r2, [r1, #2]
10005b5e:	0224      	lsls	r4, r4, #8
10005b60:	4314      	orrs	r4, r2
10005b62:	0005      	movs	r5, r0
10005b64:	05e2      	lsls	r2, r4, #23
10005b66:	d502      	bpl.n	10005b6e <resetd_control_request_cb+0x42>
10005b68:	0a62      	lsrs	r2, r4, #9
10005b6a:	4093      	lsls	r3, r2
10005b6c:	001d      	movs	r5, r3
10005b6e:	4805      	ldr	r0, [pc, #20]	; (10005b84 <resetd_control_request_cb+0x58>)
10005b70:	f7fe fe5c 	bl	1000482c <rom_func_lookup>
10005b74:	217f      	movs	r1, #127	; 0x7f
10005b76:	0003      	movs	r3, r0
10005b78:	4021      	ands	r1, r4
10005b7a:	0028      	movs	r0, r5
10005b7c:	4798      	blx	r3
10005b7e:	46c0      	nop			; (mov r8, r8)
10005b80:	20000fa9 	.word	0x20000fa9
10005b84:	00004255 	.word	0x00004255

10005b88 <usbd_app_driver_get_cb>:
10005b88:	2301      	movs	r3, #1
10005b8a:	7003      	strb	r3, [r0, #0]
10005b8c:	4800      	ldr	r0, [pc, #0]	; (10005b90 <usbd_app_driver_get_cb+0x8>)
10005b8e:	4770      	bx	lr
10005b90:	10008374 	.word	0x10008374

10005b94 <tud_cdc_line_coding_cb>:
10005b94:	784a      	ldrb	r2, [r1, #1]
10005b96:	780b      	ldrb	r3, [r1, #0]
10005b98:	0212      	lsls	r2, r2, #8
10005b9a:	431a      	orrs	r2, r3
10005b9c:	788b      	ldrb	r3, [r1, #2]
10005b9e:	b510      	push	{r4, lr}
10005ba0:	041b      	lsls	r3, r3, #16
10005ba2:	431a      	orrs	r2, r3
10005ba4:	78cb      	ldrb	r3, [r1, #3]
10005ba6:	061b      	lsls	r3, r3, #24
10005ba8:	4313      	orrs	r3, r2
10005baa:	2296      	movs	r2, #150	; 0x96
10005bac:	00d2      	lsls	r2, r2, #3
10005bae:	4293      	cmp	r3, r2
10005bb0:	d000      	beq.n	10005bb4 <tud_cdc_line_coding_cb+0x20>
10005bb2:	bd10      	pop	{r4, pc}
10005bb4:	4803      	ldr	r0, [pc, #12]	; (10005bc4 <tud_cdc_line_coding_cb+0x30>)
10005bb6:	f7fe fe39 	bl	1000482c <rom_func_lookup>
10005bba:	2100      	movs	r1, #0
10005bbc:	0003      	movs	r3, r0
10005bbe:	0008      	movs	r0, r1
10005bc0:	4798      	blx	r3
10005bc2:	46c0      	nop			; (mov r8, r8)
10005bc4:	00004255 	.word	0x00004255

10005bc8 <stdio_usb_in_chars>:
10005bc8:	b570      	push	{r4, r5, r6, lr}
10005bca:	4c18      	ldr	r4, [pc, #96]	; (10005c2c <stdio_usb_in_chars+0x64>)
10005bcc:	b082      	sub	sp, #8
10005bce:	0005      	movs	r5, r0
10005bd0:	000e      	movs	r6, r1
10005bd2:	0020      	movs	r0, r4
10005bd4:	a901      	add	r1, sp, #4
10005bd6:	f002 f9b3 	bl	10007f40 <__mutex_try_enter_veneer>
10005bda:	2800      	cmp	r0, #0
10005bdc:	d108      	bne.n	10005bf0 <stdio_usb_in_chars+0x28>
10005bde:	23d0      	movs	r3, #208	; 0xd0
10005be0:	061b      	lsls	r3, r3, #24
10005be2:	681b      	ldr	r3, [r3, #0]
10005be4:	9a01      	ldr	r2, [sp, #4]
10005be6:	429a      	cmp	r2, r3
10005be8:	d01c      	beq.n	10005c24 <stdio_usb_in_chars+0x5c>
10005bea:	0020      	movs	r0, r4
10005bec:	f002 f9b8 	bl	10007f60 <__mutex_enter_blocking_veneer>
10005bf0:	2000      	movs	r0, #0
10005bf2:	f001 fc25 	bl	10007440 <tud_cdc_n_connected>
10005bf6:	2800      	cmp	r0, #0
10005bf8:	d107      	bne.n	10005c0a <stdio_usb_in_chars+0x42>
10005bfa:	2503      	movs	r5, #3
10005bfc:	426d      	negs	r5, r5
10005bfe:	0020      	movs	r0, r4
10005c00:	f002 f986 	bl	10007f10 <__mutex_exit_veneer>
10005c04:	0028      	movs	r0, r5
10005c06:	b002      	add	sp, #8
10005c08:	bd70      	pop	{r4, r5, r6, pc}
10005c0a:	2000      	movs	r0, #0
10005c0c:	f001 fc32 	bl	10007474 <tud_cdc_n_available>
10005c10:	2800      	cmp	r0, #0
10005c12:	d0f2      	beq.n	10005bfa <stdio_usb_in_chars+0x32>
10005c14:	0029      	movs	r1, r5
10005c16:	0032      	movs	r2, r6
10005c18:	2000      	movs	r0, #0
10005c1a:	f001 fc3b 	bl	10007494 <tud_cdc_n_read>
10005c1e:	1e05      	subs	r5, r0, #0
10005c20:	d0eb      	beq.n	10005bfa <stdio_usb_in_chars+0x32>
10005c22:	e7ec      	b.n	10005bfe <stdio_usb_in_chars+0x36>
10005c24:	2503      	movs	r5, #3
10005c26:	426d      	negs	r5, r5
10005c28:	e7ec      	b.n	10005c04 <stdio_usb_in_chars+0x3c>
10005c2a:	46c0      	nop			; (mov r8, r8)
10005c2c:	20000f88 	.word	0x20000f88

10005c30 <timer_task>:
10005c30:	b510      	push	{r4, lr}
10005c32:	201f      	movs	r0, #31
10005c34:	f7fc f92c 	bl	10001e90 <irq_set_pending>
10005c38:	20fa      	movs	r0, #250	; 0xfa
10005c3a:	2100      	movs	r1, #0
10005c3c:	0080      	lsls	r0, r0, #2
10005c3e:	bd10      	pop	{r4, pc}

10005c40 <low_priority_worker_irq>:
10005c40:	b510      	push	{r4, lr}
10005c42:	4c06      	ldr	r4, [pc, #24]	; (10005c5c <low_priority_worker_irq+0x1c>)
10005c44:	2100      	movs	r1, #0
10005c46:	0020      	movs	r0, r4
10005c48:	f002 f97a 	bl	10007f40 <__mutex_try_enter_veneer>
10005c4c:	2800      	cmp	r0, #0
10005c4e:	d004      	beq.n	10005c5a <low_priority_worker_irq+0x1a>
10005c50:	f000 fd66 	bl	10006720 <tud_task>
10005c54:	0020      	movs	r0, r4
10005c56:	f002 f95b 	bl	10007f10 <__mutex_exit_veneer>
10005c5a:	bd10      	pop	{r4, pc}
10005c5c:	20000f88 	.word	0x20000f88

10005c60 <stdio_usb_out_chars>:
10005c60:	b5f0      	push	{r4, r5, r6, r7, lr}
10005c62:	4646      	mov	r6, r8
10005c64:	464f      	mov	r7, r9
10005c66:	46d6      	mov	lr, sl
10005c68:	b5c0      	push	{r6, r7, lr}
10005c6a:	4f36      	ldr	r7, [pc, #216]	; (10005d44 <stdio_usb_out_chars+0xe4>)
10005c6c:	b082      	sub	sp, #8
10005c6e:	4680      	mov	r8, r0
10005c70:	000e      	movs	r6, r1
10005c72:	0038      	movs	r0, r7
10005c74:	a901      	add	r1, sp, #4
10005c76:	f002 f963 	bl	10007f40 <__mutex_try_enter_veneer>
10005c7a:	2800      	cmp	r0, #0
10005c7c:	d10e      	bne.n	10005c9c <stdio_usb_out_chars+0x3c>
10005c7e:	23d0      	movs	r3, #208	; 0xd0
10005c80:	061b      	lsls	r3, r3, #24
10005c82:	681b      	ldr	r3, [r3, #0]
10005c84:	9a01      	ldr	r2, [sp, #4]
10005c86:	429a      	cmp	r2, r3
10005c88:	d105      	bne.n	10005c96 <stdio_usb_out_chars+0x36>
10005c8a:	b002      	add	sp, #8
10005c8c:	bc1c      	pop	{r2, r3, r4}
10005c8e:	4690      	mov	r8, r2
10005c90:	4699      	mov	r9, r3
10005c92:	46a2      	mov	sl, r4
10005c94:	bdf0      	pop	{r4, r5, r6, r7, pc}
10005c96:	0038      	movs	r0, r7
10005c98:	f002 f962 	bl	10007f60 <__mutex_enter_blocking_veneer>
10005c9c:	2000      	movs	r0, #0
10005c9e:	f001 fbcf 	bl	10007440 <tud_cdc_n_connected>
10005ca2:	2800      	cmp	r0, #0
10005ca4:	d032      	beq.n	10005d0c <stdio_usb_out_chars+0xac>
10005ca6:	2400      	movs	r4, #0
10005ca8:	2e00      	cmp	r6, #0
10005caa:	dd34      	ble.n	10005d16 <stdio_usb_out_chars+0xb6>
10005cac:	4b26      	ldr	r3, [pc, #152]	; (10005d48 <stdio_usb_out_chars+0xe8>)
10005cae:	4699      	mov	r9, r3
10005cb0:	469a      	mov	sl, r3
10005cb2:	e012      	b.n	10005cda <stdio_usb_out_chars+0x7a>
10005cb4:	2800      	cmp	r0, #0
10005cb6:	d143      	bne.n	10005d40 <stdio_usb_out_chars+0xe0>
10005cb8:	f000 fd32 	bl	10006720 <tud_task>
10005cbc:	2000      	movs	r0, #0
10005cbe:	f001 fc71 	bl	100075a4 <tud_cdc_n_write_flush>
10005cc2:	2000      	movs	r0, #0
10005cc4:	f001 fbbc 	bl	10007440 <tud_cdc_n_connected>
10005cc8:	2800      	cmp	r0, #0
10005cca:	d024      	beq.n	10005d16 <stdio_usb_out_chars+0xb6>
10005ccc:	2000      	movs	r0, #0
10005cce:	f001 fca9 	bl	10007624 <tud_cdc_n_write_available>
10005cd2:	2800      	cmp	r0, #0
10005cd4:	d023      	beq.n	10005d1e <stdio_usb_out_chars+0xbe>
10005cd6:	42a6      	cmp	r6, r4
10005cd8:	dd1d      	ble.n	10005d16 <stdio_usb_out_chars+0xb6>
10005cda:	2000      	movs	r0, #0
10005cdc:	1b35      	subs	r5, r6, r4
10005cde:	f001 fca1 	bl	10007624 <tud_cdc_n_write_available>
10005ce2:	4285      	cmp	r5, r0
10005ce4:	dce6      	bgt.n	10005cb4 <stdio_usb_out_chars+0x54>
10005ce6:	4643      	mov	r3, r8
10005ce8:	002a      	movs	r2, r5
10005cea:	1919      	adds	r1, r3, r4
10005cec:	2000      	movs	r0, #0
10005cee:	f001 fc0b 	bl	10007508 <tud_cdc_n_write>
10005cf2:	0005      	movs	r5, r0
10005cf4:	f000 fd14 	bl	10006720 <tud_task>
10005cf8:	2000      	movs	r0, #0
10005cfa:	f001 fc53 	bl	100075a4 <tud_cdc_n_write_flush>
10005cfe:	f7fb fa33 	bl	10001168 <time_us_64>
10005d02:	464b      	mov	r3, r9
10005d04:	1964      	adds	r4, r4, r5
10005d06:	6018      	str	r0, [r3, #0]
10005d08:	6059      	str	r1, [r3, #4]
10005d0a:	e7e4      	b.n	10005cd6 <stdio_usb_out_chars+0x76>
10005d0c:	2000      	movs	r0, #0
10005d0e:	2100      	movs	r1, #0
10005d10:	4b0d      	ldr	r3, [pc, #52]	; (10005d48 <stdio_usb_out_chars+0xe8>)
10005d12:	6018      	str	r0, [r3, #0]
10005d14:	6059      	str	r1, [r3, #4]
10005d16:	0038      	movs	r0, r7
10005d18:	f002 f8fa 	bl	10007f10 <__mutex_exit_veneer>
10005d1c:	e7b5      	b.n	10005c8a <stdio_usb_out_chars+0x2a>
10005d1e:	f7fb fa23 	bl	10001168 <time_us_64>
10005d22:	4653      	mov	r3, sl
10005d24:	000d      	movs	r5, r1
10005d26:	681a      	ldr	r2, [r3, #0]
10005d28:	685b      	ldr	r3, [r3, #4]
10005d2a:	2100      	movs	r1, #0
10005d2c:	4684      	mov	ip, r0
10005d2e:	4807      	ldr	r0, [pc, #28]	; (10005d4c <stdio_usb_out_chars+0xec>)
10005d30:	1812      	adds	r2, r2, r0
10005d32:	414b      	adcs	r3, r1
10005d34:	429d      	cmp	r5, r3
10005d36:	d8ee      	bhi.n	10005d16 <stdio_usb_out_chars+0xb6>
10005d38:	d1cd      	bne.n	10005cd6 <stdio_usb_out_chars+0x76>
10005d3a:	4594      	cmp	ip, r2
10005d3c:	d9cb      	bls.n	10005cd6 <stdio_usb_out_chars+0x76>
10005d3e:	e7ea      	b.n	10005d16 <stdio_usb_out_chars+0xb6>
10005d40:	0005      	movs	r5, r0
10005d42:	e7d0      	b.n	10005ce6 <stdio_usb_out_chars+0x86>
10005d44:	20000f88 	.word	0x20000f88
10005d48:	20000450 	.word	0x20000450
10005d4c:	0007a120 	.word	0x0007a120

10005d50 <stdio_usb_init>:
10005d50:	b510      	push	{r4, lr}
10005d52:	4b1d      	ldr	r3, [pc, #116]	; (10005dc8 <stdio_usb_init+0x78>)
10005d54:	b084      	sub	sp, #16
10005d56:	781b      	ldrb	r3, [r3, #0]
10005d58:	f001 fe70 	bl	10007a3c <tusb_init>
10005d5c:	491b      	ldr	r1, [pc, #108]	; (10005dcc <stdio_usb_init+0x7c>)
10005d5e:	201f      	movs	r0, #31
10005d60:	f7fc f8a6 	bl	10001eb0 <irq_set_exclusive_handler>
10005d64:	2101      	movs	r1, #1
10005d66:	201f      	movs	r0, #31
10005d68:	f7fc f880 	bl	10001e6c <irq_set_enabled>
10005d6c:	4818      	ldr	r0, [pc, #96]	; (10005dd0 <stdio_usb_init+0x80>)
10005d6e:	f7fb faf1 	bl	10001354 <mutex_init>
10005d72:	f7fa fed1 	bl	10000b18 <alarm_pool_get_default>
10005d76:	0004      	movs	r4, r0
10005d78:	f7fb f9f6 	bl	10001168 <time_us_64>
10005d7c:	22fa      	movs	r2, #250	; 0xfa
10005d7e:	2300      	movs	r3, #0
10005d80:	0092      	lsls	r2, r2, #2
10005d82:	1812      	adds	r2, r2, r0
10005d84:	414b      	adcs	r3, r1
10005d86:	4299      	cmp	r1, r3
10005d88:	d918      	bls.n	10005dbc <stdio_usb_init+0x6c>
10005d8a:	2201      	movs	r2, #1
10005d8c:	4252      	negs	r2, r2
10005d8e:	17d3      	asrs	r3, r2, #31
10005d90:	2101      	movs	r1, #1
10005d92:	9102      	str	r1, [sp, #8]
10005d94:	2100      	movs	r1, #0
10005d96:	9101      	str	r1, [sp, #4]
10005d98:	490e      	ldr	r1, [pc, #56]	; (10005dd4 <stdio_usb_init+0x84>)
10005d9a:	0020      	movs	r0, r4
10005d9c:	9100      	str	r1, [sp, #0]
10005d9e:	f7fa febf 	bl	10000b20 <alarm_pool_add_alarm_at>
10005da2:	0004      	movs	r4, r0
10005da4:	1e63      	subs	r3, r4, #1
10005da6:	419c      	sbcs	r4, r3
10005da8:	b2e4      	uxtb	r4, r4
10005daa:	2800      	cmp	r0, #0
10005dac:	d003      	beq.n	10005db6 <stdio_usb_init+0x66>
10005dae:	2101      	movs	r1, #1
10005db0:	4809      	ldr	r0, [pc, #36]	; (10005dd8 <stdio_usb_init+0x88>)
10005db2:	f7ff fd93 	bl	100058dc <stdio_set_driver_enabled>
10005db6:	0020      	movs	r0, r4
10005db8:	b004      	add	sp, #16
10005dba:	bd10      	pop	{r4, pc}
10005dbc:	4299      	cmp	r1, r3
10005dbe:	d1e7      	bne.n	10005d90 <stdio_usb_init+0x40>
10005dc0:	4290      	cmp	r0, r2
10005dc2:	d8e2      	bhi.n	10005d8a <stdio_usb_init+0x3a>
10005dc4:	e7e4      	b.n	10005d90 <stdio_usb_init+0x40>
10005dc6:	46c0      	nop			; (mov r8, r8)
10005dc8:	100085e8 	.word	0x100085e8
10005dcc:	10005c41 	.word	0x10005c41
10005dd0:	20000f88 	.word	0x20000f88
10005dd4:	10005c31 	.word	0x10005c31
10005dd8:	200002f4 	.word	0x200002f4

10005ddc <tud_descriptor_device_cb>:
10005ddc:	4800      	ldr	r0, [pc, #0]	; (10005de0 <tud_descriptor_device_cb+0x4>)
10005dde:	4770      	bx	lr
10005de0:	10008440 	.word	0x10008440

10005de4 <tud_descriptor_configuration_cb>:
10005de4:	4800      	ldr	r0, [pc, #0]	; (10005de8 <tud_descriptor_configuration_cb+0x4>)
10005de6:	4770      	bx	lr
10005de8:	100083ec 	.word	0x100083ec

10005dec <tud_descriptor_string_cb>:
10005dec:	b510      	push	{r4, lr}
10005dee:	2800      	cmp	r0, #0
10005df0:	d106      	bne.n	10005e00 <tud_descriptor_string_cb+0x14>
10005df2:	4b11      	ldr	r3, [pc, #68]	; (10005e38 <tud_descriptor_string_cb+0x4c>)
10005df4:	4811      	ldr	r0, [pc, #68]	; (10005e3c <tud_descriptor_string_cb+0x50>)
10005df6:	8043      	strh	r3, [r0, #2]
10005df8:	3b06      	subs	r3, #6
10005dfa:	3bff      	subs	r3, #255	; 0xff
10005dfc:	8003      	strh	r3, [r0, #0]
10005dfe:	bd10      	pop	{r4, pc}
10005e00:	2805      	cmp	r0, #5
10005e02:	d817      	bhi.n	10005e34 <tud_descriptor_string_cb+0x48>
10005e04:	4b0e      	ldr	r3, [pc, #56]	; (10005e40 <tud_descriptor_string_cb+0x54>)
10005e06:	0080      	lsls	r0, r0, #2
10005e08:	58c2      	ldr	r2, [r0, r3]
10005e0a:	2301      	movs	r3, #1
10005e0c:	480b      	ldr	r0, [pc, #44]	; (10005e3c <tud_descriptor_string_cb+0x50>)
10005e0e:	e005      	b.n	10005e1c <tud_descriptor_string_cb+0x30>
10005e10:	005c      	lsls	r4, r3, #1
10005e12:	3301      	adds	r3, #1
10005e14:	5301      	strh	r1, [r0, r4]
10005e16:	3201      	adds	r2, #1
10005e18:	2b14      	cmp	r3, #20
10005e1a:	d008      	beq.n	10005e2e <tud_descriptor_string_cb+0x42>
10005e1c:	7811      	ldrb	r1, [r2, #0]
10005e1e:	2900      	cmp	r1, #0
10005e20:	d1f6      	bne.n	10005e10 <tud_descriptor_string_cb+0x24>
10005e22:	22c0      	movs	r2, #192	; 0xc0
10005e24:	005b      	lsls	r3, r3, #1
10005e26:	0092      	lsls	r2, r2, #2
10005e28:	4313      	orrs	r3, r2
10005e2a:	b29b      	uxth	r3, r3
10005e2c:	e7e6      	b.n	10005dfc <tud_descriptor_string_cb+0x10>
10005e2e:	23ca      	movs	r3, #202	; 0xca
10005e30:	009b      	lsls	r3, r3, #2
10005e32:	e7e3      	b.n	10005dfc <tud_descriptor_string_cb+0x10>
10005e34:	2000      	movs	r0, #0
10005e36:	e7e2      	b.n	10005dfe <tud_descriptor_string_cb+0x12>
10005e38:	00000409 	.word	0x00000409
10005e3c:	20000860 	.word	0x20000860
10005e40:	10008454 	.word	0x10008454

10005e44 <dcd_rp2040_irq>:
10005e44:	b5f0      	push	{r4, r5, r6, r7, lr}
10005e46:	4645      	mov	r5, r8
10005e48:	46de      	mov	lr, fp
10005e4a:	4657      	mov	r7, sl
10005e4c:	464e      	mov	r6, r9
10005e4e:	2398      	movs	r3, #152	; 0x98
10005e50:	2480      	movs	r4, #128	; 0x80
10005e52:	b5e0      	push	{r5, r6, r7, lr}
10005e54:	4a41      	ldr	r2, [pc, #260]	; (10005f5c <dcd_rp2040_irq+0x118>)
10005e56:	0264      	lsls	r4, r4, #9
10005e58:	58d3      	ldr	r3, [r2, r3]
10005e5a:	b085      	sub	sp, #20
10005e5c:	4698      	mov	r8, r3
10005e5e:	4223      	tst	r3, r4
10005e60:	d024      	beq.n	10005eac <dcd_rp2040_irq+0x68>
10005e62:	2101      	movs	r1, #1
10005e64:	2039      	movs	r0, #57	; 0x39
10005e66:	2200      	movs	r2, #0
10005e68:	4b3d      	ldr	r3, [pc, #244]	; (10005f60 <dcd_rp2040_irq+0x11c>)
10005e6a:	5419      	strb	r1, [r3, r0]
10005e6c:	7159      	strb	r1, [r3, #5]
10005e6e:	3147      	adds	r1, #71	; 0x47
10005e70:	545a      	strb	r2, [r3, r1]
10005e72:	751a      	strb	r2, [r3, #20]
10005e74:	493b      	ldr	r1, [pc, #236]	; (10005f64 <dcd_rp2040_irq+0x120>)
10005e76:	3201      	adds	r2, #1
10005e78:	2000      	movs	r0, #0
10005e7a:	f001 f8cb 	bl	10007014 <dcd_event_setup_received>
10005e7e:	2280      	movs	r2, #128	; 0x80
10005e80:	4b39      	ldr	r3, [pc, #228]	; (10005f68 <dcd_rp2040_irq+0x124>)
10005e82:	0292      	lsls	r2, r2, #10
10005e84:	651a      	str	r2, [r3, #80]	; 0x50
10005e86:	4b39      	ldr	r3, [pc, #228]	; (10005f6c <dcd_rp2040_irq+0x128>)
10005e88:	9303      	str	r3, [sp, #12]
10005e8a:	4643      	mov	r3, r8
10005e8c:	06db      	lsls	r3, r3, #27
10005e8e:	d413      	bmi.n	10005eb8 <dcd_rp2040_irq+0x74>
10005e90:	2380      	movs	r3, #128	; 0x80
10005e92:	4642      	mov	r2, r8
10005e94:	015b      	lsls	r3, r3, #5
10005e96:	421a      	tst	r2, r3
10005e98:	d13e      	bne.n	10005f18 <dcd_rp2040_irq+0xd4>
10005e9a:	4544      	cmp	r4, r8
10005e9c:	d158      	bne.n	10005f50 <dcd_rp2040_irq+0x10c>
10005e9e:	b005      	add	sp, #20
10005ea0:	bc3c      	pop	{r2, r3, r4, r5}
10005ea2:	4690      	mov	r8, r2
10005ea4:	4699      	mov	r9, r3
10005ea6:	46a2      	mov	sl, r4
10005ea8:	46ab      	mov	fp, r5
10005eaa:	bdf0      	pop	{r4, r5, r6, r7, pc}
10005eac:	2310      	movs	r3, #16
10005eae:	9303      	str	r3, [sp, #12]
10005eb0:	4643      	mov	r3, r8
10005eb2:	2400      	movs	r4, #0
10005eb4:	06db      	lsls	r3, r3, #27
10005eb6:	d5eb      	bpl.n	10005e90 <dcd_rp2040_irq+0x4c>
10005eb8:	4b28      	ldr	r3, [pc, #160]	; (10005f5c <dcd_rp2040_irq+0x118>)
10005eba:	6d9f      	ldr	r7, [r3, #88]	; 0x58
10005ebc:	2f00      	cmp	r7, #0
10005ebe:	d025      	beq.n	10005f0c <dcd_rp2040_irq+0xc8>
10005ec0:	4699      	mov	r9, r3
10005ec2:	4b29      	ldr	r3, [pc, #164]	; (10005f68 <dcd_rp2040_irq+0x124>)
10005ec4:	2600      	movs	r6, #0
10005ec6:	2501      	movs	r5, #1
10005ec8:	469b      	mov	fp, r3
10005eca:	e003      	b.n	10005ed4 <dcd_rp2040_irq+0x90>
10005ecc:	006d      	lsls	r5, r5, #1
10005ece:	3601      	adds	r6, #1
10005ed0:	2e20      	cmp	r6, #32
10005ed2:	d01b      	beq.n	10005f0c <dcd_rp2040_irq+0xc8>
10005ed4:	423d      	tst	r5, r7
10005ed6:	d0f9      	beq.n	10005ecc <dcd_rp2040_irq+0x88>
10005ed8:	464b      	mov	r3, r9
10005eda:	6ddb      	ldr	r3, [r3, #92]	; 0x5c
10005edc:	465b      	mov	r3, fp
10005ede:	659d      	str	r5, [r3, #88]	; 0x58
10005ee0:	2301      	movs	r3, #1
10005ee2:	2434      	movs	r4, #52	; 0x34
10005ee4:	469a      	mov	sl, r3
10005ee6:	43b3      	bics	r3, r6
10005ee8:	435c      	muls	r4, r3
10005eea:	2368      	movs	r3, #104	; 0x68
10005eec:	0872      	lsrs	r2, r6, #1
10005eee:	4353      	muls	r3, r2
10005ef0:	18e4      	adds	r4, r4, r3
10005ef2:	4b1b      	ldr	r3, [pc, #108]	; (10005f60 <dcd_rp2040_irq+0x11c>)
10005ef4:	469c      	mov	ip, r3
10005ef6:	4464      	add	r4, ip
10005ef8:	0020      	movs	r0, r4
10005efa:	f000 fa81 	bl	10006400 <_hw_endpoint_xfer_continue>
10005efe:	2800      	cmp	r0, #0
10005f00:	d11a      	bne.n	10005f38 <dcd_rp2040_irq+0xf4>
10005f02:	43af      	bics	r7, r5
10005f04:	3601      	adds	r6, #1
10005f06:	006d      	lsls	r5, r5, #1
10005f08:	2f00      	cmp	r7, #0
10005f0a:	d1e1      	bne.n	10005ed0 <dcd_rp2040_irq+0x8c>
10005f0c:	2380      	movs	r3, #128	; 0x80
10005f0e:	4642      	mov	r2, r8
10005f10:	015b      	lsls	r3, r3, #5
10005f12:	9c03      	ldr	r4, [sp, #12]
10005f14:	421a      	tst	r2, r3
10005f16:	d0c0      	beq.n	10005e9a <dcd_rp2040_irq+0x56>
10005f18:	2200      	movs	r2, #0
10005f1a:	4915      	ldr	r1, [pc, #84]	; (10005f70 <dcd_rp2040_irq+0x12c>)
10005f1c:	2000      	movs	r0, #0
10005f1e:	700a      	strb	r2, [r1, #0]
10005f20:	490e      	ldr	r1, [pc, #56]	; (10005f5c <dcd_rp2040_irq+0x118>)
10005f22:	431c      	orrs	r4, r3
10005f24:	600a      	str	r2, [r1, #0]
10005f26:	3201      	adds	r2, #1
10005f28:	2101      	movs	r1, #1
10005f2a:	f001 f801 	bl	10006f30 <dcd_event_bus_signal>
10005f2e:	2280      	movs	r2, #128	; 0x80
10005f30:	4b0d      	ldr	r3, [pc, #52]	; (10005f68 <dcd_rp2040_irq+0x124>)
10005f32:	0312      	lsls	r2, r2, #12
10005f34:	651a      	str	r2, [r3, #80]	; 0x50
10005f36:	e7b0      	b.n	10005e9a <dcd_rp2040_irq+0x56>
10005f38:	4653      	mov	r3, sl
10005f3a:	69e2      	ldr	r2, [r4, #28]
10005f3c:	7921      	ldrb	r1, [r4, #4]
10005f3e:	2000      	movs	r0, #0
10005f40:	9300      	str	r3, [sp, #0]
10005f42:	2300      	movs	r3, #0
10005f44:	f001 f88e 	bl	10007064 <dcd_event_xfer_complete>
10005f48:	0020      	movs	r0, r4
10005f4a:	f000 f9e1 	bl	10006310 <hw_endpoint_reset_transfer>
10005f4e:	e7d8      	b.n	10005f02 <dcd_rp2040_irq+0xbe>
10005f50:	4641      	mov	r1, r8
10005f52:	4808      	ldr	r0, [pc, #32]	; (10005f74 <dcd_rp2040_irq+0x130>)
10005f54:	4061      	eors	r1, r4
10005f56:	f7fb fd5f 	bl	10001a18 <panic>
10005f5a:	46c0      	nop			; (mov r8, r8)
10005f5c:	50110000 	.word	0x50110000
10005f60:	20000890 	.word	0x20000890
10005f64:	50100000 	.word	0x50100000
10005f68:	50113000 	.word	0x50113000
10005f6c:	00010010 	.word	0x00010010
10005f70:	20000fa6 	.word	0x20000fa6
10005f74:	10008494 	.word	0x10008494

10005f78 <dcd_int_enable>:
10005f78:	b510      	push	{r4, lr}
10005f7a:	2101      	movs	r1, #1
10005f7c:	2005      	movs	r0, #5
10005f7e:	f7fb ff75 	bl	10001e6c <irq_set_enabled>
10005f82:	bd10      	pop	{r4, pc}

10005f84 <dcd_set_address>:
10005f84:	4b09      	ldr	r3, [pc, #36]	; (10005fac <dcd_set_address+0x28>)
10005f86:	b510      	push	{r4, lr}
10005f88:	2201      	movs	r2, #1
10005f8a:	7019      	strb	r1, [r3, #0]
10005f8c:	2139      	movs	r1, #57	; 0x39
10005f8e:	2300      	movs	r3, #0
10005f90:	4807      	ldr	r0, [pc, #28]	; (10005fb0 <dcd_set_address+0x2c>)
10005f92:	5442      	strb	r2, [r0, r1]
10005f94:	7142      	strb	r2, [r0, #5]
10005f96:	3247      	adds	r2, #71	; 0x47
10005f98:	5483      	strb	r3, [r0, r2]
10005f9a:	7503      	strb	r3, [r0, #20]
10005f9c:	2200      	movs	r2, #0
10005f9e:	3034      	adds	r0, #52	; 0x34
10005fa0:	3301      	adds	r3, #1
10005fa2:	2100      	movs	r1, #0
10005fa4:	f000 fab0 	bl	10006508 <_hw_endpoint_xfer>
10005fa8:	bd10      	pop	{r4, pc}
10005faa:	46c0      	nop			; (mov r8, r8)
10005fac:	20000fa6 	.word	0x20000fa6
10005fb0:	20000890 	.word	0x20000890

10005fb4 <dcd_connect>:
10005fb4:	2280      	movs	r2, #128	; 0x80
10005fb6:	4b02      	ldr	r3, [pc, #8]	; (10005fc0 <dcd_connect+0xc>)
10005fb8:	0252      	lsls	r2, r2, #9
10005fba:	64da      	str	r2, [r3, #76]	; 0x4c
10005fbc:	4770      	bx	lr
10005fbe:	46c0      	nop			; (mov r8, r8)
10005fc0:	50112000 	.word	0x50112000

10005fc4 <dcd_init>:
10005fc4:	b570      	push	{r4, r5, r6, lr}
10005fc6:	0005      	movs	r5, r0
10005fc8:	f000 f97a 	bl	100062c0 <rp2040_usb_init>
10005fcc:	491d      	ldr	r1, [pc, #116]	; (10006044 <dcd_init+0x80>)
10005fce:	2005      	movs	r0, #5
10005fd0:	f7fb ff6e 	bl	10001eb0 <irq_set_exclusive_handler>
10005fd4:	22d0      	movs	r2, #208	; 0xd0
10005fd6:	4c1c      	ldr	r4, [pc, #112]	; (10006048 <dcd_init+0x84>)
10005fd8:	00d2      	lsls	r2, r2, #3
10005fda:	2100      	movs	r1, #0
10005fdc:	0020      	movs	r0, r4
10005fde:	f7ff fb0d 	bl	100055fc <__wrap_memset>
10005fe2:	2300      	movs	r3, #0
10005fe4:	4a19      	ldr	r2, [pc, #100]	; (1000604c <dcd_init+0x88>)
10005fe6:	491a      	ldr	r1, [pc, #104]	; (10006050 <dcd_init+0x8c>)
10005fe8:	7013      	strb	r3, [r2, #0]
10005fea:	4a1a      	ldr	r2, [pc, #104]	; (10006054 <dcd_init+0x90>)
10005fec:	2040      	movs	r0, #64	; 0x40
10005fee:	6011      	str	r1, [r2, #0]
10005ff0:	2635      	movs	r6, #53	; 0x35
10005ff2:	2201      	movs	r2, #1
10005ff4:	4918      	ldr	r1, [pc, #96]	; (10006058 <dcd_init+0x94>)
10005ff6:	70e2      	strb	r2, [r4, #3]
10005ff8:	7162      	strb	r2, [r4, #5]
10005ffa:	62e0      	str	r0, [r4, #44]	; 0x2c
10005ffc:	60e1      	str	r1, [r4, #12]
10005ffe:	600b      	str	r3, [r1, #0]
10006000:	55a2      	strb	r2, [r4, r6]
10006002:	3602      	adds	r6, #2
10006004:	55a3      	strb	r3, [r4, r6]
10006006:	6620      	str	r0, [r4, #96]	; 0x60
10006008:	3e01      	subs	r6, #1
1000600a:	3024      	adds	r0, #36	; 0x24
1000600c:	55a3      	strb	r3, [r4, r6]
1000600e:	5423      	strb	r3, [r4, r0]
10006010:	4912      	ldr	r1, [pc, #72]	; (1000605c <dcd_init+0x98>)
10006012:	4813      	ldr	r0, [pc, #76]	; (10006060 <dcd_init+0x9c>)
10006014:	364b      	adds	r6, #75	; 0x4b
10006016:	36ff      	adds	r6, #255	; 0xff
10006018:	60a3      	str	r3, [r4, #8]
1000601a:	6121      	str	r1, [r4, #16]
1000601c:	7022      	strb	r2, [r4, #0]
1000601e:	8726      	strh	r6, [r4, #56]	; 0x38
10006020:	6420      	str	r0, [r4, #64]	; 0x40
10006022:	6003      	str	r3, [r0, #0]
10006024:	63e3      	str	r3, [r4, #60]	; 0x3c
10006026:	3334      	adds	r3, #52	; 0x34
10006028:	54e2      	strb	r2, [r4, r3]
1000602a:	4b0e      	ldr	r3, [pc, #56]	; (10006064 <dcd_init+0xa0>)
1000602c:	6461      	str	r1, [r4, #68]	; 0x44
1000602e:	641a      	str	r2, [r3, #64]	; 0x40
10006030:	2280      	movs	r2, #128	; 0x80
10006032:	0592      	lsls	r2, r2, #22
10006034:	64da      	str	r2, [r3, #76]	; 0x4c
10006036:	2290      	movs	r2, #144	; 0x90
10006038:	490b      	ldr	r1, [pc, #44]	; (10006068 <dcd_init+0xa4>)
1000603a:	0028      	movs	r0, r5
1000603c:	5099      	str	r1, [r3, r2]
1000603e:	f7ff ffb9 	bl	10005fb4 <dcd_connect>
10006042:	bd70      	pop	{r4, r5, r6, pc}
10006044:	10005e45 	.word	0x10005e45
10006048:	20000890 	.word	0x20000890
1000604c:	20000fa6 	.word	0x20000fa6
10006050:	50100180 	.word	0x50100180
10006054:	20000f74 	.word	0x20000f74
10006058:	50100084 	.word	0x50100084
1000605c:	50100100 	.word	0x50100100
10006060:	50100080 	.word	0x50100080
10006064:	50110000 	.word	0x50110000
10006068:	00011010 	.word	0x00011010

1000606c <dcd_edpt0_status_complete>:
1000606c:	780b      	ldrb	r3, [r1, #0]
1000606e:	065b      	lsls	r3, r3, #25
10006070:	d102      	bne.n	10006078 <dcd_edpt0_status_complete+0xc>
10006072:	784b      	ldrb	r3, [r1, #1]
10006074:	2b05      	cmp	r3, #5
10006076:	d009      	beq.n	1000608c <dcd_edpt0_status_complete+0x20>
10006078:	2101      	movs	r1, #1
1000607a:	2039      	movs	r0, #57	; 0x39
1000607c:	2200      	movs	r2, #0
1000607e:	4b06      	ldr	r3, [pc, #24]	; (10006098 <dcd_edpt0_status_complete+0x2c>)
10006080:	7159      	strb	r1, [r3, #5]
10006082:	5419      	strb	r1, [r3, r0]
10006084:	3147      	adds	r1, #71	; 0x47
10006086:	751a      	strb	r2, [r3, #20]
10006088:	545a      	strb	r2, [r3, r1]
1000608a:	4770      	bx	lr
1000608c:	4b03      	ldr	r3, [pc, #12]	; (1000609c <dcd_edpt0_status_complete+0x30>)
1000608e:	781a      	ldrb	r2, [r3, #0]
10006090:	4b03      	ldr	r3, [pc, #12]	; (100060a0 <dcd_edpt0_status_complete+0x34>)
10006092:	601a      	str	r2, [r3, #0]
10006094:	e7f0      	b.n	10006078 <dcd_edpt0_status_complete+0xc>
10006096:	46c0      	nop			; (mov r8, r8)
10006098:	20000890 	.word	0x20000890
1000609c:	20000fa6 	.word	0x20000fa6
100060a0:	50110000 	.word	0x50110000

100060a4 <dcd_edpt_open>:
100060a4:	b5f8      	push	{r3, r4, r5, r6, r7, lr}
100060a6:	4647      	mov	r7, r8
100060a8:	46ce      	mov	lr, r9
100060aa:	2307      	movs	r3, #7
100060ac:	b580      	push	{r7, lr}
100060ae:	790a      	ldrb	r2, [r1, #4]
100060b0:	788e      	ldrb	r6, [r1, #2]
100060b2:	7948      	ldrb	r0, [r1, #5]
100060b4:	78cf      	ldrb	r7, [r1, #3]
100060b6:	217f      	movs	r1, #127	; 0x7f
100060b8:	2568      	movs	r5, #104	; 0x68
100060ba:	4003      	ands	r3, r0
100060bc:	07bf      	lsls	r7, r7, #30
100060be:	021b      	lsls	r3, r3, #8
100060c0:	0fbf      	lsrs	r7, r7, #30
100060c2:	4313      	orrs	r3, r2
100060c4:	b2fa      	uxtb	r2, r7
100060c6:	4691      	mov	r9, r2
100060c8:	b272      	sxtb	r2, r6
100060ca:	4694      	mov	ip, r2
100060cc:	4031      	ands	r1, r6
100060ce:	434d      	muls	r5, r1
100060d0:	2234      	movs	r2, #52	; 0x34
100060d2:	46a8      	mov	r8, r5
100060d4:	4665      	mov	r5, ip
100060d6:	09f4      	lsrs	r4, r6, #7
100060d8:	4362      	muls	r2, r4
100060da:	483d      	ldr	r0, [pc, #244]	; (100061d0 <dcd_edpt_open+0x12c>)
100060dc:	4442      	add	r2, r8
100060de:	1882      	adds	r2, r0, r2
100060e0:	7116      	strb	r6, [r2, #4]
100060e2:	0fee      	lsrs	r6, r5, #31
100060e4:	7056      	strb	r6, [r2, #1]
100060e6:	43ee      	mvns	r6, r5
100060e8:	0ff6      	lsrs	r6, r6, #31
100060ea:	70d6      	strb	r6, [r2, #3]
100060ec:	424e      	negs	r6, r1
100060ee:	414e      	adcs	r6, r1
100060f0:	7091      	strb	r1, [r2, #2]
100060f2:	7156      	strb	r6, [r2, #5]
100060f4:	464a      	mov	r2, r9
100060f6:	2a01      	cmp	r2, #1
100060f8:	d05c      	beq.n	100061b4 <dcd_edpt_open+0x110>
100060fa:	2b40      	cmp	r3, #64	; 0x40
100060fc:	d85d      	bhi.n	100061ba <dcd_edpt_open+0x116>
100060fe:	2234      	movs	r2, #52	; 0x34
10006100:	2668      	movs	r6, #104	; 0x68
10006102:	4362      	muls	r2, r4
10006104:	434e      	muls	r6, r1
10006106:	1992      	adds	r2, r2, r6
10006108:	1882      	adds	r2, r0, r2
1000610a:	0016      	movs	r6, r2
1000610c:	4665      	mov	r5, ip
1000610e:	3630      	adds	r6, #48	; 0x30
10006110:	7037      	strb	r7, [r6, #0]
10006112:	62d3      	str	r3, [r2, #44]	; 0x2c
10006114:	00ce      	lsls	r6, r1, #3
10006116:	2d00      	cmp	r5, #0
10006118:	db3c      	blt.n	10006194 <dcd_edpt_open+0xf0>
1000611a:	4d2e      	ldr	r5, [pc, #184]	; (100061d4 <dcd_edpt_open+0x130>)
1000611c:	2700      	movs	r7, #0
1000611e:	46ac      	mov	ip, r5
10006120:	4466      	add	r6, ip
10006122:	60d6      	str	r6, [r2, #12]
10006124:	6037      	str	r7, [r6, #0]
10006126:	2900      	cmp	r1, #0
10006128:	d03c      	beq.n	100061a4 <dcd_edpt_open+0x100>
1000612a:	4d2b      	ldr	r5, [pc, #172]	; (100061d8 <dcd_edpt_open+0x134>)
1000612c:	00ce      	lsls	r6, r1, #3
1000612e:	46ac      	mov	ip, r5
10006130:	4466      	add	r6, ip
10006132:	6096      	str	r6, [r2, #8]
10006134:	2568      	movs	r5, #104	; 0x68
10006136:	2234      	movs	r2, #52	; 0x34
10006138:	434d      	muls	r5, r1
1000613a:	46ac      	mov	ip, r5
1000613c:	4362      	muls	r2, r4
1000613e:	4f27      	ldr	r7, [pc, #156]	; (100061dc <dcd_edpt_open+0x138>)
10006140:	4462      	add	r2, ip
10006142:	683e      	ldr	r6, [r7, #0]
10006144:	1882      	adds	r2, r0, r2
10006146:	6116      	str	r6, [r2, #16]
10006148:	2b40      	cmp	r3, #64	; 0x40
1000614a:	d200      	bcs.n	1000614e <dcd_edpt_open+0xaa>
1000614c:	2340      	movs	r3, #64	; 0x40
1000614e:	223f      	movs	r2, #63	; 0x3f
10006150:	18f3      	adds	r3, r6, r3
10006152:	4213      	tst	r3, r2
10006154:	d001      	beq.n	1000615a <dcd_edpt_open+0xb6>
10006156:	4393      	bics	r3, r2
10006158:	3340      	adds	r3, #64	; 0x40
1000615a:	603b      	str	r3, [r7, #0]
1000615c:	4b20      	ldr	r3, [pc, #128]	; (100061e0 <dcd_edpt_open+0x13c>)
1000615e:	2268      	movs	r2, #104	; 0x68
10006160:	4073      	eors	r3, r6
10006162:	26a0      	movs	r6, #160	; 0xa0
10006164:	0636      	lsls	r6, r6, #24
10006166:	431e      	orrs	r6, r3
10006168:	464b      	mov	r3, r9
1000616a:	069d      	lsls	r5, r3, #26
1000616c:	2334      	movs	r3, #52	; 0x34
1000616e:	434a      	muls	r2, r1
10006170:	4363      	muls	r3, r4
10006172:	189b      	adds	r3, r3, r2
10006174:	18c3      	adds	r3, r0, r3
10006176:	689b      	ldr	r3, [r3, #8]
10006178:	4335      	orrs	r5, r6
1000617a:	601d      	str	r5, [r3, #0]
1000617c:	2334      	movs	r3, #52	; 0x34
1000617e:	435c      	muls	r4, r3
10006180:	3334      	adds	r3, #52	; 0x34
10006182:	4359      	muls	r1, r3
10006184:	3b67      	subs	r3, #103	; 0x67
10006186:	1861      	adds	r1, r4, r1
10006188:	5443      	strb	r3, [r0, r1]
1000618a:	2001      	movs	r0, #1
1000618c:	bc0c      	pop	{r2, r3}
1000618e:	4690      	mov	r8, r2
10006190:	4699      	mov	r9, r3
10006192:	bdf8      	pop	{r3, r4, r5, r6, r7, pc}
10006194:	4d13      	ldr	r5, [pc, #76]	; (100061e4 <dcd_edpt_open+0x140>)
10006196:	2700      	movs	r7, #0
10006198:	46ac      	mov	ip, r5
1000619a:	4466      	add	r6, ip
1000619c:	60d6      	str	r6, [r2, #12]
1000619e:	6037      	str	r7, [r6, #0]
100061a0:	2900      	cmp	r1, #0
100061a2:	d10e      	bne.n	100061c2 <dcd_edpt_open+0x11e>
100061a4:	2334      	movs	r3, #52	; 0x34
100061a6:	2200      	movs	r2, #0
100061a8:	4363      	muls	r3, r4
100061aa:	18c3      	adds	r3, r0, r3
100061ac:	609a      	str	r2, [r3, #8]
100061ae:	4a0e      	ldr	r2, [pc, #56]	; (100061e8 <dcd_edpt_open+0x144>)
100061b0:	611a      	str	r2, [r3, #16]
100061b2:	e7e3      	b.n	1000617c <dcd_edpt_open+0xd8>
100061b4:	4a0d      	ldr	r2, [pc, #52]	; (100061ec <dcd_edpt_open+0x148>)
100061b6:	4293      	cmp	r3, r2
100061b8:	d9a1      	bls.n	100060fe <dcd_edpt_open+0x5a>
100061ba:	0019      	movs	r1, r3
100061bc:	480c      	ldr	r0, [pc, #48]	; (100061f0 <dcd_edpt_open+0x14c>)
100061be:	f7fb fc2b 	bl	10001a18 <panic>
100061c2:	4d07      	ldr	r5, [pc, #28]	; (100061e0 <dcd_edpt_open+0x13c>)
100061c4:	00ce      	lsls	r6, r1, #3
100061c6:	46ac      	mov	ip, r5
100061c8:	4466      	add	r6, ip
100061ca:	6096      	str	r6, [r2, #8]
100061cc:	e7b2      	b.n	10006134 <dcd_edpt_open+0x90>
100061ce:	46c0      	nop			; (mov r8, r8)
100061d0:	20000890 	.word	0x20000890
100061d4:	50100084 	.word	0x50100084
100061d8:	50100004 	.word	0x50100004
100061dc:	20000f74 	.word	0x20000f74
100061e0:	50100000 	.word	0x50100000
100061e4:	50100080 	.word	0x50100080
100061e8:	50100100 	.word	0x50100100
100061ec:	000003ff 	.word	0x000003ff
100061f0:	1000846c 	.word	0x1000846c

100061f4 <dcd_edpt_xfer>:
100061f4:	b510      	push	{r4, lr}
100061f6:	000c      	movs	r4, r1
100061f8:	2034      	movs	r0, #52	; 0x34
100061fa:	0011      	movs	r1, r2
100061fc:	001a      	movs	r2, r3
100061fe:	09e3      	lsrs	r3, r4, #7
10006200:	4358      	muls	r0, r3
10006202:	237f      	movs	r3, #127	; 0x7f
10006204:	401c      	ands	r4, r3
10006206:	3b17      	subs	r3, #23
10006208:	4363      	muls	r3, r4
1000620a:	18c0      	adds	r0, r0, r3
1000620c:	4b03      	ldr	r3, [pc, #12]	; (1000621c <dcd_edpt_xfer+0x28>)
1000620e:	18c0      	adds	r0, r0, r3
10006210:	2301      	movs	r3, #1
10006212:	f000 f979 	bl	10006508 <_hw_endpoint_xfer>
10006216:	2001      	movs	r0, #1
10006218:	bd10      	pop	{r4, pc}
1000621a:	46c0      	nop			; (mov r8, r8)
1000621c:	20000890 	.word	0x20000890

10006220 <dcd_edpt_stall>:
10006220:	b570      	push	{r4, r5, r6, lr}
10006222:	257f      	movs	r5, #127	; 0x7f
10006224:	2034      	movs	r0, #52	; 0x34
10006226:	2368      	movs	r3, #104	; 0x68
10006228:	400d      	ands	r5, r1
1000622a:	09cc      	lsrs	r4, r1, #7
1000622c:	436b      	muls	r3, r5
1000622e:	4360      	muls	r0, r4
10006230:	4e0c      	ldr	r6, [pc, #48]	; (10006264 <dcd_edpt_stall+0x44>)
10006232:	18c0      	adds	r0, r0, r3
10006234:	1830      	adds	r0, r6, r0
10006236:	7883      	ldrb	r3, [r0, #2]
10006238:	2b00      	cmp	r3, #0
1000623a:	d105      	bne.n	10006248 <dcd_edpt_stall+0x28>
1000623c:	7843      	ldrb	r3, [r0, #1]
1000623e:	425a      	negs	r2, r3
10006240:	4153      	adcs	r3, r2
10006242:	4a09      	ldr	r2, [pc, #36]	; (10006268 <dcd_edpt_stall+0x48>)
10006244:	3301      	adds	r3, #1
10006246:	6693      	str	r3, [r2, #104]	; 0x68
10006248:	2280      	movs	r2, #128	; 0x80
1000624a:	4908      	ldr	r1, [pc, #32]	; (1000626c <dcd_edpt_stall+0x4c>)
1000624c:	0112      	lsls	r2, r2, #4
1000624e:	f000 f869 	bl	10006324 <_hw_endpoint_buffer_control_update32>
10006252:	2368      	movs	r3, #104	; 0x68
10006254:	2134      	movs	r1, #52	; 0x34
10006256:	435d      	muls	r5, r3
10006258:	4361      	muls	r1, r4
1000625a:	1949      	adds	r1, r1, r5
1000625c:	1871      	adds	r1, r6, r1
1000625e:	3b67      	subs	r3, #103	; 0x67
10006260:	750b      	strb	r3, [r1, #20]
10006262:	bd70      	pop	{r4, r5, r6, pc}
10006264:	20000890 	.word	0x20000890
10006268:	50112000 	.word	0x50112000
1000626c:	fffff7ff 	.word	0xfffff7ff

10006270 <dcd_edpt_clear_stall>:
10006270:	b570      	push	{r4, r5, r6, lr}
10006272:	257f      	movs	r5, #127	; 0x7f
10006274:	2034      	movs	r0, #52	; 0x34
10006276:	2368      	movs	r3, #104	; 0x68
10006278:	400d      	ands	r5, r1
1000627a:	09cc      	lsrs	r4, r1, #7
1000627c:	436b      	muls	r3, r5
1000627e:	4360      	muls	r0, r4
10006280:	4e0c      	ldr	r6, [pc, #48]	; (100062b4 <dcd_edpt_clear_stall+0x44>)
10006282:	18c0      	adds	r0, r0, r3
10006284:	1830      	adds	r0, r6, r0
10006286:	7883      	ldrb	r3, [r0, #2]
10006288:	2b00      	cmp	r3, #0
1000628a:	d105      	bne.n	10006298 <dcd_edpt_clear_stall+0x28>
1000628c:	7843      	ldrb	r3, [r0, #1]
1000628e:	425a      	negs	r2, r3
10006290:	4153      	adcs	r3, r2
10006292:	4a09      	ldr	r2, [pc, #36]	; (100062b8 <dcd_edpt_clear_stall+0x48>)
10006294:	3301      	adds	r3, #1
10006296:	6693      	str	r3, [r2, #104]	; 0x68
10006298:	2200      	movs	r2, #0
1000629a:	4908      	ldr	r1, [pc, #32]	; (100062bc <dcd_edpt_clear_stall+0x4c>)
1000629c:	f000 f842 	bl	10006324 <_hw_endpoint_buffer_control_update32>
100062a0:	2368      	movs	r3, #104	; 0x68
100062a2:	2134      	movs	r1, #52	; 0x34
100062a4:	435d      	muls	r5, r3
100062a6:	2300      	movs	r3, #0
100062a8:	4361      	muls	r1, r4
100062aa:	1949      	adds	r1, r1, r5
100062ac:	1871      	adds	r1, r6, r1
100062ae:	750b      	strb	r3, [r1, #20]
100062b0:	bd70      	pop	{r4, r5, r6, pc}
100062b2:	46c0      	nop			; (mov r8, r8)
100062b4:	20000890 	.word	0x20000890
100062b8:	50113000 	.word	0x50113000
100062bc:	fffff7ff 	.word	0xfffff7ff

100062c0 <rp2040_usb_init>:
100062c0:	2280      	movs	r2, #128	; 0x80
100062c2:	4b0e      	ldr	r3, [pc, #56]	; (100062fc <rp2040_usb_init+0x3c>)
100062c4:	0452      	lsls	r2, r2, #17
100062c6:	b510      	push	{r4, lr}
100062c8:	601a      	str	r2, [r3, #0]
100062ca:	4b0d      	ldr	r3, [pc, #52]	; (10006300 <rp2040_usb_init+0x40>)
100062cc:	490d      	ldr	r1, [pc, #52]	; (10006304 <rp2040_usb_init+0x44>)
100062ce:	601a      	str	r2, [r3, #0]
100062d0:	0010      	movs	r0, r2
100062d2:	688b      	ldr	r3, [r1, #8]
100062d4:	4398      	bics	r0, r3
100062d6:	d1fb      	bne.n	100062d0 <rp2040_usb_init+0x10>
100062d8:	4c0b      	ldr	r4, [pc, #44]	; (10006308 <rp2040_usb_init+0x48>)
100062da:	229c      	movs	r2, #156	; 0x9c
100062dc:	2100      	movs	r1, #0
100062de:	0020      	movs	r0, r4
100062e0:	f7ff f98c 	bl	100055fc <__wrap_memset>
100062e4:	2280      	movs	r2, #128	; 0x80
100062e6:	2100      	movs	r1, #0
100062e8:	0152      	lsls	r2, r2, #5
100062ea:	4808      	ldr	r0, [pc, #32]	; (1000630c <rp2040_usb_init+0x4c>)
100062ec:	f7ff f986 	bl	100055fc <__wrap_memset>
100062f0:	2309      	movs	r3, #9
100062f2:	6763      	str	r3, [r4, #116]	; 0x74
100062f4:	3303      	adds	r3, #3
100062f6:	67a3      	str	r3, [r4, #120]	; 0x78
100062f8:	bd10      	pop	{r4, pc}
100062fa:	46c0      	nop			; (mov r8, r8)
100062fc:	4000e000 	.word	0x4000e000
10006300:	4000f000 	.word	0x4000f000
10006304:	4000c000 	.word	0x4000c000
10006308:	50110000 	.word	0x50110000
1000630c:	50100000 	.word	0x50100000

10006310 <hw_endpoint_reset_transfer>:
10006310:	2300      	movs	r3, #0
10006312:	2232      	movs	r2, #50	; 0x32
10006314:	7503      	strb	r3, [r0, #20]
10006316:	7543      	strb	r3, [r0, #21]
10006318:	5483      	strb	r3, [r0, r2]
1000631a:	6183      	str	r3, [r0, #24]
1000631c:	61c3      	str	r3, [r0, #28]
1000631e:	6203      	str	r3, [r0, #32]
10006320:	6283      	str	r3, [r0, #40]	; 0x28
10006322:	4770      	bx	lr

10006324 <_hw_endpoint_buffer_control_update32>:
10006324:	b510      	push	{r4, lr}
10006326:	68c3      	ldr	r3, [r0, #12]
10006328:	2900      	cmp	r1, #0
1000632a:	d001      	beq.n	10006330 <_hw_endpoint_buffer_control_update32+0xc>
1000632c:	681c      	ldr	r4, [r3, #0]
1000632e:	4021      	ands	r1, r4
10006330:	2a00      	cmp	r2, #0
10006332:	d011      	beq.n	10006358 <_hw_endpoint_buffer_control_update32+0x34>
10006334:	2480      	movs	r4, #128	; 0x80
10006336:	00e4      	lsls	r4, r4, #3
10006338:	4311      	orrs	r1, r2
1000633a:	4222      	tst	r2, r4
1000633c:	d00c      	beq.n	10006358 <_hw_endpoint_buffer_control_update32+0x34>
1000633e:	681a      	ldr	r2, [r3, #0]
10006340:	4222      	tst	r2, r4
10006342:	d10b      	bne.n	1000635c <_hw_endpoint_buffer_control_update32+0x38>
10006344:	4a09      	ldr	r2, [pc, #36]	; (1000636c <_hw_endpoint_buffer_control_update32+0x48>)
10006346:	400a      	ands	r2, r1
10006348:	601a      	str	r2, [r3, #0]
1000634a:	e7ff      	b.n	1000634c <_hw_endpoint_buffer_control_update32+0x28>
1000634c:	e7ff      	b.n	1000634e <_hw_endpoint_buffer_control_update32+0x2a>
1000634e:	e7ff      	b.n	10006350 <_hw_endpoint_buffer_control_update32+0x2c>
10006350:	e7ff      	b.n	10006352 <_hw_endpoint_buffer_control_update32+0x2e>
10006352:	e7ff      	b.n	10006354 <_hw_endpoint_buffer_control_update32+0x30>
10006354:	e7ff      	b.n	10006356 <_hw_endpoint_buffer_control_update32+0x32>
10006356:	68c3      	ldr	r3, [r0, #12]
10006358:	6019      	str	r1, [r3, #0]
1000635a:	bd10      	pop	{r4, pc}
1000635c:	7843      	ldrb	r3, [r0, #1]
1000635e:	4a04      	ldr	r2, [pc, #16]	; (10006370 <_hw_endpoint_buffer_control_update32+0x4c>)
10006360:	009b      	lsls	r3, r3, #2
10006362:	7881      	ldrb	r1, [r0, #2]
10006364:	589a      	ldr	r2, [r3, r2]
10006366:	4803      	ldr	r0, [pc, #12]	; (10006374 <_hw_endpoint_buffer_control_update32+0x50>)
10006368:	f7fb fb56 	bl	10001a18 <panic>
1000636c:	fffffbff 	.word	0xfffffbff
10006370:	20000308 	.word	0x20000308
10006374:	100084a8 	.word	0x100084a8

10006378 <_hw_endpoint_start_next_buffer>:
10006378:	b570      	push	{r4, r5, r6, lr}
1000637a:	78c3      	ldrb	r3, [r0, #3]
1000637c:	0004      	movs	r4, r0
1000637e:	6a05      	ldr	r5, [r0, #32]
10006380:	2b00      	cmp	r3, #0
10006382:	d022      	beq.n	100063ca <_hw_endpoint_start_next_buffer+0x52>
10006384:	2280      	movs	r2, #128	; 0x80
10006386:	00d2      	lsls	r2, r2, #3
10006388:	432a      	orrs	r2, r5
1000638a:	7963      	ldrb	r3, [r4, #5]
1000638c:	2b00      	cmp	r3, #0
1000638e:	d002      	beq.n	10006396 <_hw_endpoint_start_next_buffer+0x1e>
10006390:	2180      	movs	r1, #128	; 0x80
10006392:	0189      	lsls	r1, r1, #6
10006394:	430a      	orrs	r2, r1
10006396:	2101      	movs	r1, #1
10006398:	404b      	eors	r3, r1
1000639a:	7163      	strb	r3, [r4, #5]
1000639c:	2324      	movs	r3, #36	; 0x24
1000639e:	5ce3      	ldrb	r3, [r4, r3]
100063a0:	2b00      	cmp	r3, #0
100063a2:	d002      	beq.n	100063aa <_hw_endpoint_start_next_buffer+0x32>
100063a4:	2380      	movs	r3, #128	; 0x80
100063a6:	01db      	lsls	r3, r3, #7
100063a8:	431a      	orrs	r2, r3
100063aa:	68e1      	ldr	r1, [r4, #12]
100063ac:	680b      	ldr	r3, [r1, #0]
100063ae:	055b      	lsls	r3, r3, #21
100063b0:	d418      	bmi.n	100063e4 <_hw_endpoint_start_next_buffer+0x6c>
100063b2:	4b10      	ldr	r3, [pc, #64]	; (100063f4 <_hw_endpoint_start_next_buffer+0x7c>)
100063b4:	4013      	ands	r3, r2
100063b6:	600b      	str	r3, [r1, #0]
100063b8:	e7ff      	b.n	100063ba <_hw_endpoint_start_next_buffer+0x42>
100063ba:	e7ff      	b.n	100063bc <_hw_endpoint_start_next_buffer+0x44>
100063bc:	e7ff      	b.n	100063be <_hw_endpoint_start_next_buffer+0x46>
100063be:	e7ff      	b.n	100063c0 <_hw_endpoint_start_next_buffer+0x48>
100063c0:	e7ff      	b.n	100063c2 <_hw_endpoint_start_next_buffer+0x4a>
100063c2:	e7ff      	b.n	100063c4 <_hw_endpoint_start_next_buffer+0x4c>
100063c4:	68e3      	ldr	r3, [r4, #12]
100063c6:	601a      	str	r2, [r3, #0]
100063c8:	bd70      	pop	{r4, r5, r6, pc}
100063ca:	69c2      	ldr	r2, [r0, #28]
100063cc:	6a83      	ldr	r3, [r0, #40]	; 0x28
100063ce:	4694      	mov	ip, r2
100063d0:	4463      	add	r3, ip
100063d2:	002a      	movs	r2, r5
100063d4:	0019      	movs	r1, r3
100063d6:	6900      	ldr	r0, [r0, #16]
100063d8:	f7ff f916 	bl	10005608 <__wrap___aeabi_memcpy>
100063dc:	2284      	movs	r2, #132	; 0x84
100063de:	0212      	lsls	r2, r2, #8
100063e0:	432a      	orrs	r2, r5
100063e2:	e7d2      	b.n	1000638a <_hw_endpoint_start_next_buffer+0x12>
100063e4:	7863      	ldrb	r3, [r4, #1]
100063e6:	4a04      	ldr	r2, [pc, #16]	; (100063f8 <_hw_endpoint_start_next_buffer+0x80>)
100063e8:	009b      	lsls	r3, r3, #2
100063ea:	78a1      	ldrb	r1, [r4, #2]
100063ec:	589a      	ldr	r2, [r3, r2]
100063ee:	4803      	ldr	r0, [pc, #12]	; (100063fc <_hw_endpoint_start_next_buffer+0x84>)
100063f0:	f7fb fb12 	bl	10001a18 <panic>
100063f4:	fffffbff 	.word	0xfffffbff
100063f8:	20000308 	.word	0x20000308
100063fc:	100084a8 	.word	0x100084a8

10006400 <_hw_endpoint_xfer_continue>:
10006400:	b5f8      	push	{r3, r4, r5, r6, r7, lr}
10006402:	7d46      	ldrb	r6, [r0, #21]
10006404:	0004      	movs	r4, r0
10006406:	2e00      	cmp	r6, #0
10006408:	d100      	bne.n	1000640c <_hw_endpoint_xfer_continue+0xc>
1000640a:	e062      	b.n	100064d2 <_hw_endpoint_xfer_continue+0xd2>
1000640c:	68c3      	ldr	r3, [r0, #12]
1000640e:	78c0      	ldrb	r0, [r0, #3]
10006410:	681d      	ldr	r5, [r3, #0]
10006412:	69e1      	ldr	r1, [r4, #28]
10006414:	05ad      	lsls	r5, r5, #22
10006416:	0dad      	lsrs	r5, r5, #22
10006418:	2800      	cmp	r0, #0
1000641a:	d137      	bne.n	1000648c <_hw_endpoint_xfer_continue+0x8c>
1000641c:	1869      	adds	r1, r5, r1
1000641e:	61e1      	str	r1, [r4, #28]
10006420:	69a2      	ldr	r2, [r4, #24]
10006422:	1a55      	subs	r5, r2, r1
10006424:	2d40      	cmp	r5, #64	; 0x40
10006426:	d82f      	bhi.n	10006488 <_hw_endpoint_xfer_continue+0x88>
10006428:	186b      	adds	r3, r5, r1
1000642a:	1a9b      	subs	r3, r3, r2
1000642c:	425f      	negs	r7, r3
1000642e:	417b      	adcs	r3, r7
10006430:	2724      	movs	r7, #36	; 0x24
10006432:	b2db      	uxtb	r3, r3
10006434:	6225      	str	r5, [r4, #32]
10006436:	55e3      	strb	r3, [r4, r7]
10006438:	428a      	cmp	r2, r1
1000643a:	d34f      	bcc.n	100064dc <_hw_endpoint_xfer_continue+0xdc>
1000643c:	d022      	beq.n	10006484 <_hw_endpoint_xfer_continue+0x84>
1000643e:	2800      	cmp	r0, #0
10006440:	d03b      	beq.n	100064ba <_hw_endpoint_xfer_continue+0xba>
10006442:	2280      	movs	r2, #128	; 0x80
10006444:	00d2      	lsls	r2, r2, #3
10006446:	4315      	orrs	r5, r2
10006448:	7962      	ldrb	r2, [r4, #5]
1000644a:	2a00      	cmp	r2, #0
1000644c:	d002      	beq.n	10006454 <_hw_endpoint_xfer_continue+0x54>
1000644e:	2180      	movs	r1, #128	; 0x80
10006450:	0189      	lsls	r1, r1, #6
10006452:	430d      	orrs	r5, r1
10006454:	2101      	movs	r1, #1
10006456:	404a      	eors	r2, r1
10006458:	7162      	strb	r2, [r4, #5]
1000645a:	2b00      	cmp	r3, #0
1000645c:	d002      	beq.n	10006464 <_hw_endpoint_xfer_continue+0x64>
1000645e:	2380      	movs	r3, #128	; 0x80
10006460:	01db      	lsls	r3, r3, #7
10006462:	431d      	orrs	r5, r3
10006464:	68e2      	ldr	r2, [r4, #12]
10006466:	6813      	ldr	r3, [r2, #0]
10006468:	055b      	lsls	r3, r3, #21
1000646a:	d43a      	bmi.n	100064e2 <_hw_endpoint_xfer_continue+0xe2>
1000646c:	4b21      	ldr	r3, [pc, #132]	; (100064f4 <_hw_endpoint_xfer_continue+0xf4>)
1000646e:	402b      	ands	r3, r5
10006470:	6013      	str	r3, [r2, #0]
10006472:	e7ff      	b.n	10006474 <_hw_endpoint_xfer_continue+0x74>
10006474:	e7ff      	b.n	10006476 <_hw_endpoint_xfer_continue+0x76>
10006476:	e7ff      	b.n	10006478 <_hw_endpoint_xfer_continue+0x78>
10006478:	e7ff      	b.n	1000647a <_hw_endpoint_xfer_continue+0x7a>
1000647a:	e7ff      	b.n	1000647c <_hw_endpoint_xfer_continue+0x7c>
1000647c:	e7ff      	b.n	1000647e <_hw_endpoint_xfer_continue+0x7e>
1000647e:	2600      	movs	r6, #0
10006480:	68e3      	ldr	r3, [r4, #12]
10006482:	601d      	str	r5, [r3, #0]
10006484:	0030      	movs	r0, r6
10006486:	bdf8      	pop	{r3, r4, r5, r6, r7, pc}
10006488:	2540      	movs	r5, #64	; 0x40
1000648a:	e7cd      	b.n	10006428 <_hw_endpoint_xfer_continue+0x28>
1000648c:	6aa3      	ldr	r3, [r4, #40]	; 0x28
1000648e:	002a      	movs	r2, r5
10006490:	1858      	adds	r0, r3, r1
10006492:	6921      	ldr	r1, [r4, #16]
10006494:	f7ff f8b8 	bl	10005608 <__wrap___aeabi_memcpy>
10006498:	69e3      	ldr	r3, [r4, #28]
1000649a:	78e0      	ldrb	r0, [r4, #3]
1000649c:	18e9      	adds	r1, r5, r3
1000649e:	61e1      	str	r1, [r4, #28]
100064a0:	2800      	cmp	r0, #0
100064a2:	d0bd      	beq.n	10006420 <_hw_endpoint_xfer_continue+0x20>
100064a4:	6a23      	ldr	r3, [r4, #32]
100064a6:	429d      	cmp	r5, r3
100064a8:	d2ba      	bcs.n	10006420 <_hw_endpoint_xfer_continue+0x20>
100064aa:	2300      	movs	r3, #0
100064ac:	2201      	movs	r2, #1
100064ae:	6223      	str	r3, [r4, #32]
100064b0:	3324      	adds	r3, #36	; 0x24
100064b2:	61a1      	str	r1, [r4, #24]
100064b4:	0006      	movs	r6, r0
100064b6:	54e2      	strb	r2, [r4, r3]
100064b8:	e7e4      	b.n	10006484 <_hw_endpoint_xfer_continue+0x84>
100064ba:	6aa3      	ldr	r3, [r4, #40]	; 0x28
100064bc:	002a      	movs	r2, r5
100064be:	469c      	mov	ip, r3
100064c0:	6920      	ldr	r0, [r4, #16]
100064c2:	4461      	add	r1, ip
100064c4:	f7ff f8a0 	bl	10005608 <__wrap___aeabi_memcpy>
100064c8:	2384      	movs	r3, #132	; 0x84
100064ca:	021b      	lsls	r3, r3, #8
100064cc:	431d      	orrs	r5, r3
100064ce:	5de3      	ldrb	r3, [r4, r7]
100064d0:	e7ba      	b.n	10006448 <_hw_endpoint_xfer_continue+0x48>
100064d2:	7881      	ldrb	r1, [r0, #2]
100064d4:	4a08      	ldr	r2, [pc, #32]	; (100064f8 <_hw_endpoint_xfer_continue+0xf8>)
100064d6:	4809      	ldr	r0, [pc, #36]	; (100064fc <_hw_endpoint_xfer_continue+0xfc>)
100064d8:	f7fb fa9e 	bl	10001a18 <panic>
100064dc:	4808      	ldr	r0, [pc, #32]	; (10006500 <_hw_endpoint_xfer_continue+0x100>)
100064de:	f7fb fa9b 	bl	10001a18 <panic>
100064e2:	7863      	ldrb	r3, [r4, #1]
100064e4:	4a04      	ldr	r2, [pc, #16]	; (100064f8 <_hw_endpoint_xfer_continue+0xf8>)
100064e6:	009b      	lsls	r3, r3, #2
100064e8:	78a1      	ldrb	r1, [r4, #2]
100064ea:	589a      	ldr	r2, [r3, r2]
100064ec:	4805      	ldr	r0, [pc, #20]	; (10006504 <_hw_endpoint_xfer_continue+0x104>)
100064ee:	f7fb fa93 	bl	10001a18 <panic>
100064f2:	46c0      	nop			; (mov r8, r8)
100064f4:	fffffbff 	.word	0xfffffbff
100064f8:	20000308 	.word	0x20000308
100064fc:	100084c8 	.word	0x100084c8
10006500:	100084f4 	.word	0x100084f4
10006504:	100084a8 	.word	0x100084a8

10006508 <_hw_endpoint_xfer>:
10006508:	b570      	push	{r4, r5, r6, lr}
1000650a:	001e      	movs	r6, r3
1000650c:	0004      	movs	r4, r0
1000650e:	7d43      	ldrb	r3, [r0, #21]
10006510:	2e00      	cmp	r6, #0
10006512:	d048      	beq.n	100065a6 <_hw_endpoint_xfer+0x9e>
10006514:	2b00      	cmp	r3, #0
10006516:	d003      	beq.n	10006520 <_hw_endpoint_xfer+0x18>
10006518:	2300      	movs	r3, #0
1000651a:	7503      	strb	r3, [r0, #20]
1000651c:	2032      	movs	r0, #50	; 0x32
1000651e:	5423      	strb	r3, [r4, r0]
10006520:	2300      	movs	r3, #0
10006522:	61a2      	str	r2, [r4, #24]
10006524:	61e3      	str	r3, [r4, #28]
10006526:	1c15      	adds	r5, r2, #0
10006528:	2a40      	cmp	r2, #64	; 0x40
1000652a:	d831      	bhi.n	10006590 <_hw_endpoint_xfer+0x88>
1000652c:	2301      	movs	r3, #1
1000652e:	b2ad      	uxth	r5, r5
10006530:	1b52      	subs	r2, r2, r5
10006532:	7563      	strb	r3, [r4, #21]
10006534:	4253      	negs	r3, r2
10006536:	4153      	adcs	r3, r2
10006538:	2624      	movs	r6, #36	; 0x24
1000653a:	2225      	movs	r2, #37	; 0x25
1000653c:	2000      	movs	r0, #0
1000653e:	b2db      	uxtb	r3, r3
10006540:	6225      	str	r5, [r4, #32]
10006542:	62a1      	str	r1, [r4, #40]	; 0x28
10006544:	55a3      	strb	r3, [r4, r6]
10006546:	54a0      	strb	r0, [r4, r2]
10006548:	78e2      	ldrb	r2, [r4, #3]
1000654a:	2a00      	cmp	r2, #0
1000654c:	d022      	beq.n	10006594 <_hw_endpoint_xfer+0x8c>
1000654e:	2280      	movs	r2, #128	; 0x80
10006550:	00d2      	lsls	r2, r2, #3
10006552:	432a      	orrs	r2, r5
10006554:	7961      	ldrb	r1, [r4, #5]
10006556:	2900      	cmp	r1, #0
10006558:	d002      	beq.n	10006560 <_hw_endpoint_xfer+0x58>
1000655a:	2080      	movs	r0, #128	; 0x80
1000655c:	0180      	lsls	r0, r0, #6
1000655e:	4302      	orrs	r2, r0
10006560:	2001      	movs	r0, #1
10006562:	4041      	eors	r1, r0
10006564:	7161      	strb	r1, [r4, #5]
10006566:	2b00      	cmp	r3, #0
10006568:	d002      	beq.n	10006570 <_hw_endpoint_xfer+0x68>
1000656a:	2380      	movs	r3, #128	; 0x80
1000656c:	01db      	lsls	r3, r3, #7
1000656e:	431a      	orrs	r2, r3
10006570:	68e1      	ldr	r1, [r4, #12]
10006572:	680b      	ldr	r3, [r1, #0]
10006574:	055b      	lsls	r3, r3, #21
10006576:	d44f      	bmi.n	10006618 <_hw_endpoint_xfer+0x110>
10006578:	4b2e      	ldr	r3, [pc, #184]	; (10006634 <_hw_endpoint_xfer+0x12c>)
1000657a:	4013      	ands	r3, r2
1000657c:	600b      	str	r3, [r1, #0]
1000657e:	e7ff      	b.n	10006580 <_hw_endpoint_xfer+0x78>
10006580:	e7ff      	b.n	10006582 <_hw_endpoint_xfer+0x7a>
10006582:	e7ff      	b.n	10006584 <_hw_endpoint_xfer+0x7c>
10006584:	e7ff      	b.n	10006586 <_hw_endpoint_xfer+0x7e>
10006586:	e7ff      	b.n	10006588 <_hw_endpoint_xfer+0x80>
10006588:	e7ff      	b.n	1000658a <_hw_endpoint_xfer+0x82>
1000658a:	68e3      	ldr	r3, [r4, #12]
1000658c:	601a      	str	r2, [r3, #0]
1000658e:	bd70      	pop	{r4, r5, r6, pc}
10006590:	2540      	movs	r5, #64	; 0x40
10006592:	e7cb      	b.n	1000652c <_hw_endpoint_xfer+0x24>
10006594:	002a      	movs	r2, r5
10006596:	6920      	ldr	r0, [r4, #16]
10006598:	f7ff f836 	bl	10005608 <__wrap___aeabi_memcpy>
1000659c:	2284      	movs	r2, #132	; 0x84
1000659e:	0212      	lsls	r2, r2, #8
100065a0:	432a      	orrs	r2, r5
100065a2:	5da3      	ldrb	r3, [r4, r6]
100065a4:	e7d6      	b.n	10006554 <_hw_endpoint_xfer+0x4c>
100065a6:	2b00      	cmp	r3, #0
100065a8:	d03e      	beq.n	10006628 <_hw_endpoint_xfer+0x120>
100065aa:	68c3      	ldr	r3, [r0, #12]
100065ac:	69c0      	ldr	r0, [r0, #28]
100065ae:	681d      	ldr	r5, [r3, #0]
100065b0:	78e3      	ldrb	r3, [r4, #3]
100065b2:	05ad      	lsls	r5, r5, #22
100065b4:	0dad      	lsrs	r5, r5, #22
100065b6:	2b00      	cmp	r3, #0
100065b8:	d115      	bne.n	100065e6 <_hw_endpoint_xfer+0xde>
100065ba:	1828      	adds	r0, r5, r0
100065bc:	61e0      	str	r0, [r4, #28]
100065be:	69a2      	ldr	r2, [r4, #24]
100065c0:	1a13      	subs	r3, r2, r0
100065c2:	2b40      	cmp	r3, #64	; 0x40
100065c4:	d80d      	bhi.n	100065e2 <_hw_endpoint_xfer+0xda>
100065c6:	6223      	str	r3, [r4, #32]
100065c8:	181b      	adds	r3, r3, r0
100065ca:	1a9b      	subs	r3, r3, r2
100065cc:	4259      	negs	r1, r3
100065ce:	414b      	adcs	r3, r1
100065d0:	2124      	movs	r1, #36	; 0x24
100065d2:	5463      	strb	r3, [r4, r1]
100065d4:	4282      	cmp	r2, r0
100065d6:	d31c      	bcc.n	10006612 <_hw_endpoint_xfer+0x10a>
100065d8:	d0d9      	beq.n	1000658e <_hw_endpoint_xfer+0x86>
100065da:	0020      	movs	r0, r4
100065dc:	f7ff fecc 	bl	10006378 <_hw_endpoint_start_next_buffer>
100065e0:	e7d5      	b.n	1000658e <_hw_endpoint_xfer+0x86>
100065e2:	2340      	movs	r3, #64	; 0x40
100065e4:	e7ef      	b.n	100065c6 <_hw_endpoint_xfer+0xbe>
100065e6:	6aa3      	ldr	r3, [r4, #40]	; 0x28
100065e8:	002a      	movs	r2, r5
100065ea:	469c      	mov	ip, r3
100065ec:	6921      	ldr	r1, [r4, #16]
100065ee:	4460      	add	r0, ip
100065f0:	f7ff f80a 	bl	10005608 <__wrap___aeabi_memcpy>
100065f4:	69e3      	ldr	r3, [r4, #28]
100065f6:	18e8      	adds	r0, r5, r3
100065f8:	78e3      	ldrb	r3, [r4, #3]
100065fa:	61e0      	str	r0, [r4, #28]
100065fc:	2b00      	cmp	r3, #0
100065fe:	d0de      	beq.n	100065be <_hw_endpoint_xfer+0xb6>
10006600:	6a23      	ldr	r3, [r4, #32]
10006602:	429d      	cmp	r5, r3
10006604:	d2db      	bcs.n	100065be <_hw_endpoint_xfer+0xb6>
10006606:	2324      	movs	r3, #36	; 0x24
10006608:	2201      	movs	r2, #1
1000660a:	61a0      	str	r0, [r4, #24]
1000660c:	6226      	str	r6, [r4, #32]
1000660e:	54e2      	strb	r2, [r4, r3]
10006610:	e7bd      	b.n	1000658e <_hw_endpoint_xfer+0x86>
10006612:	4809      	ldr	r0, [pc, #36]	; (10006638 <_hw_endpoint_xfer+0x130>)
10006614:	f7fb fa00 	bl	10001a18 <panic>
10006618:	7863      	ldrb	r3, [r4, #1]
1000661a:	4a08      	ldr	r2, [pc, #32]	; (1000663c <_hw_endpoint_xfer+0x134>)
1000661c:	009b      	lsls	r3, r3, #2
1000661e:	78a1      	ldrb	r1, [r4, #2]
10006620:	589a      	ldr	r2, [r3, r2]
10006622:	4807      	ldr	r0, [pc, #28]	; (10006640 <_hw_endpoint_xfer+0x138>)
10006624:	f7fb f9f8 	bl	10001a18 <panic>
10006628:	7881      	ldrb	r1, [r0, #2]
1000662a:	4a04      	ldr	r2, [pc, #16]	; (1000663c <_hw_endpoint_xfer+0x134>)
1000662c:	4805      	ldr	r0, [pc, #20]	; (10006644 <_hw_endpoint_xfer+0x13c>)
1000662e:	f7fb f9f3 	bl	10001a18 <panic>
10006632:	46c0      	nop			; (mov r8, r8)
10006634:	fffffbff 	.word	0xfffffbff
10006638:	100084f4 	.word	0x100084f4
1000663c:	20000308 	.word	0x20000308
10006640:	100084a8 	.word	0x100084a8
10006644:	100084c8 	.word	0x100084c8

10006648 <tud_mounted>:
10006648:	4b02      	ldr	r3, [pc, #8]	; (10006654 <tud_mounted+0xc>)
1000664a:	7858      	ldrb	r0, [r3, #1]
1000664c:	1e43      	subs	r3, r0, #1
1000664e:	4198      	sbcs	r0, r3
10006650:	b2c0      	uxtb	r0, r0
10006652:	4770      	bx	lr
10006654:	200007a4 	.word	0x200007a4

10006658 <tud_suspended>:
10006658:	4b02      	ldr	r3, [pc, #8]	; (10006664 <tud_suspended+0xc>)
1000665a:	7818      	ldrb	r0, [r3, #0]
1000665c:	0740      	lsls	r0, r0, #29
1000665e:	0fc0      	lsrs	r0, r0, #31
10006660:	4770      	bx	lr
10006662:	46c0      	nop			; (mov r8, r8)
10006664:	200007a4 	.word	0x200007a4

10006668 <tud_init>:
10006668:	b5f8      	push	{r3, r4, r5, r6, r7, lr}
1000666a:	2237      	movs	r2, #55	; 0x37
1000666c:	2100      	movs	r1, #0
1000666e:	4823      	ldr	r0, [pc, #140]	; (100066fc <tud_init+0x94>)
10006670:	f7fe ffc4 	bl	100055fc <__wrap_memset>
10006674:	4c22      	ldr	r4, [pc, #136]	; (10006700 <tud_init+0x98>)
10006676:	0020      	movs	r0, r4
10006678:	f7fa fe6c 	bl	10001354 <mutex_init>
1000667c:	4b21      	ldr	r3, [pc, #132]	; (10006704 <tud_init+0x9c>)
1000667e:	601c      	str	r4, [r3, #0]
10006680:	4c21      	ldr	r4, [pc, #132]	; (10006708 <tud_init+0xa0>)
10006682:	0020      	movs	r0, r4
10006684:	3018      	adds	r0, #24
10006686:	f7fa fe73 	bl	10001370 <critical_section_init>
1000668a:	0020      	movs	r0, r4
1000668c:	f001 fbdc 	bl	10007e48 <tu_fifo_clear>
10006690:	4b1e      	ldr	r3, [pc, #120]	; (1000670c <tud_init+0xa4>)
10006692:	601c      	str	r4, [r3, #0]
10006694:	4b1e      	ldr	r3, [pc, #120]	; (10006710 <tud_init+0xa8>)
10006696:	2b00      	cmp	r3, #0
10006698:	d026      	beq.n	100066e8 <tud_init+0x80>
1000669a:	4d1e      	ldr	r5, [pc, #120]	; (10006714 <tud_init+0xac>)
1000669c:	2400      	movs	r4, #0
1000669e:	0028      	movs	r0, r5
100066a0:	f7ff fa72 	bl	10005b88 <usbd_app_driver_get_cb>
100066a4:	4e1c      	ldr	r6, [pc, #112]	; (10006718 <tud_init+0xb0>)
100066a6:	782b      	ldrb	r3, [r5, #0]
100066a8:	6030      	str	r0, [r6, #0]
100066aa:	4f1c      	ldr	r7, [pc, #112]	; (1000671c <tud_init+0xb4>)
100066ac:	e00a      	b.n	100066c4 <tud_init+0x5c>
100066ae:	00e3      	lsls	r3, r4, #3
100066b0:	1b1b      	subs	r3, r3, r4
100066b2:	6832      	ldr	r2, [r6, #0]
100066b4:	009b      	lsls	r3, r3, #2
100066b6:	589b      	ldr	r3, [r3, r2]
100066b8:	4798      	blx	r3
100066ba:	3401      	adds	r4, #1
100066bc:	782b      	ldrb	r3, [r5, #0]
100066be:	b2e4      	uxtb	r4, r4
100066c0:	42a3      	cmp	r3, r4
100066c2:	d309      	bcc.n	100066d8 <tud_init+0x70>
100066c4:	429c      	cmp	r4, r3
100066c6:	d3f2      	bcc.n	100066ae <tud_init+0x46>
100066c8:	d114      	bne.n	100066f4 <tud_init+0x8c>
100066ca:	003b      	movs	r3, r7
100066cc:	4798      	blx	r3
100066ce:	3401      	adds	r4, #1
100066d0:	782b      	ldrb	r3, [r5, #0]
100066d2:	b2e4      	uxtb	r4, r4
100066d4:	42a3      	cmp	r3, r4
100066d6:	d2f5      	bcs.n	100066c4 <tud_init+0x5c>
100066d8:	2000      	movs	r0, #0
100066da:	f7ff fc73 	bl	10005fc4 <dcd_init>
100066de:	2000      	movs	r0, #0
100066e0:	f7ff fc4a 	bl	10005f78 <dcd_int_enable>
100066e4:	2001      	movs	r0, #1
100066e6:	bdf8      	pop	{r3, r4, r5, r6, r7, pc}
100066e8:	f000 ffac 	bl	10007644 <cdcd_init>
100066ec:	4b09      	ldr	r3, [pc, #36]	; (10006714 <tud_init+0xac>)
100066ee:	781b      	ldrb	r3, [r3, #0]
100066f0:	2b00      	cmp	r3, #0
100066f2:	d0f1      	beq.n	100066d8 <tud_init+0x70>
100066f4:	2300      	movs	r3, #0
100066f6:	681b      	ldr	r3, [r3, #0]
100066f8:	deff      	udf	#255	; 0xff
100066fa:	46c0      	nop			; (mov r8, r8)
100066fc:	200007a4 	.word	0x200007a4
10006700:	2000075c 	.word	0x2000075c
10006704:	200007dc 	.word	0x200007dc
10006708:	20000310 	.word	0x20000310
1000670c:	200007e0 	.word	0x200007e0
10006710:	10005b89 	.word	0x10005b89
10006714:	20000fa4 	.word	0x20000fa4
10006718:	20000474 	.word	0x20000474
1000671c:	10007645 	.word	0x10007645

10006720 <tud_task>:
10006720:	b5f0      	push	{r4, r5, r6, r7, lr}
10006722:	46de      	mov	lr, fp
10006724:	4657      	mov	r7, sl
10006726:	464e      	mov	r6, r9
10006728:	4645      	mov	r5, r8
1000672a:	b5e0      	push	{r5, r6, r7, lr}
1000672c:	b08b      	sub	sp, #44	; 0x2c
1000672e:	f001 f995 	bl	10007a5c <tusb_inited>
10006732:	2800      	cmp	r0, #0
10006734:	d100      	bne.n	10006738 <tud_task+0x18>
10006736:	e16c      	b.n	10006a12 <tud_task+0x2f2>
10006738:	4bca      	ldr	r3, [pc, #808]	; (10006a64 <tud_task+0x344>)
1000673a:	ac07      	add	r4, sp, #28
1000673c:	469a      	mov	sl, r3
1000673e:	4bca      	ldr	r3, [pc, #808]	; (10006a68 <tud_task+0x348>)
10006740:	469b      	mov	fp, r3
10006742:	4653      	mov	r3, sl
10006744:	681e      	ldr	r6, [r3, #0]
10006746:	69b2      	ldr	r2, [r6, #24]
10006748:	f3ef 8110 	mrs	r1, PRIMASK
1000674c:	b672      	cpsid	i
1000674e:	6813      	ldr	r3, [r2, #0]
10006750:	2b00      	cmp	r3, #0
10006752:	d0fc      	beq.n	1000674e <tud_task+0x2e>
10006754:	f3bf 8f5f 	dmb	sy
10006758:	61f1      	str	r1, [r6, #28]
1000675a:	0030      	movs	r0, r6
1000675c:	0021      	movs	r1, r4
1000675e:	f001 f9df 	bl	10007b20 <tu_fifo_read>
10006762:	69b2      	ldr	r2, [r6, #24]
10006764:	0005      	movs	r5, r0
10006766:	69f3      	ldr	r3, [r6, #28]
10006768:	f3bf 8f5f 	dmb	sy
1000676c:	2100      	movs	r1, #0
1000676e:	6011      	str	r1, [r2, #0]
10006770:	f383 8810 	msr	PRIMASK, r3
10006774:	2800      	cmp	r0, #0
10006776:	d100      	bne.n	1000677a <tud_task+0x5a>
10006778:	e14b      	b.n	10006a12 <tud_task+0x2f2>
1000677a:	7863      	ldrb	r3, [r4, #1]
1000677c:	2b08      	cmp	r3, #8
1000677e:	d8e0      	bhi.n	10006742 <tud_task+0x22>
10006780:	465a      	mov	r2, fp
10006782:	009b      	lsls	r3, r3, #2
10006784:	58d3      	ldr	r3, [r2, r3]
10006786:	469f      	mov	pc, r3
10006788:	6863      	ldr	r3, [r4, #4]
1000678a:	2b00      	cmp	r3, #0
1000678c:	d0d9      	beq.n	10006742 <tud_task+0x22>
1000678e:	68a0      	ldr	r0, [r4, #8]
10006790:	4798      	blx	r3
10006792:	e7d6      	b.n	10006742 <tud_task+0x22>
10006794:	227f      	movs	r2, #127	; 0x7f
10006796:	7921      	ldrb	r1, [r4, #4]
10006798:	4bb4      	ldr	r3, [pc, #720]	; (10006a6c <tud_task+0x34c>)
1000679a:	400a      	ands	r2, r1
1000679c:	0055      	lsls	r5, r2, #1
1000679e:	09c8      	lsrs	r0, r1, #7
100067a0:	195b      	adds	r3, r3, r5
100067a2:	181b      	adds	r3, r3, r0
100067a4:	0018      	movs	r0, r3
100067a6:	2601      	movs	r6, #1
100067a8:	3020      	adds	r0, #32
100067aa:	7945      	ldrb	r5, [r0, #5]
100067ac:	43b5      	bics	r5, r6
100067ae:	7145      	strb	r5, [r0, #5]
100067b0:	7945      	ldrb	r5, [r0, #5]
100067b2:	3603      	adds	r6, #3
100067b4:	43b5      	bics	r5, r6
100067b6:	7145      	strb	r5, [r0, #5]
100067b8:	2a00      	cmp	r2, #0
100067ba:	d100      	bne.n	100067be <tud_task+0x9e>
100067bc:	e172      	b.n	10006aa4 <tud_task+0x384>
100067be:	4aac      	ldr	r2, [pc, #688]	; (10006a70 <tud_task+0x350>)
100067c0:	7cdb      	ldrb	r3, [r3, #19]
100067c2:	2a00      	cmp	r2, #0
100067c4:	d100      	bne.n	100067c8 <tud_task+0xa8>
100067c6:	e169      	b.n	10006a9c <tud_task+0x37c>
100067c8:	4aaa      	ldr	r2, [pc, #680]	; (10006a74 <tud_task+0x354>)
100067ca:	7812      	ldrb	r2, [r2, #0]
100067cc:	4293      	cmp	r3, r2
100067ce:	d300      	bcc.n	100067d2 <tud_task+0xb2>
100067d0:	e162      	b.n	10006a98 <tud_task+0x378>
100067d2:	00da      	lsls	r2, r3, #3
100067d4:	1ad3      	subs	r3, r2, r3
100067d6:	4aa8      	ldr	r2, [pc, #672]	; (10006a78 <tud_task+0x358>)
100067d8:	009b      	lsls	r3, r3, #2
100067da:	6812      	ldr	r2, [r2, #0]
100067dc:	18d3      	adds	r3, r2, r3
100067de:	2b00      	cmp	r3, #0
100067e0:	d100      	bne.n	100067e4 <tud_task+0xc4>
100067e2:	e116      	b.n	10006a12 <tud_task+0x2f2>
100067e4:	695d      	ldr	r5, [r3, #20]
100067e6:	7962      	ldrb	r2, [r4, #5]
100067e8:	7820      	ldrb	r0, [r4, #0]
100067ea:	68a3      	ldr	r3, [r4, #8]
100067ec:	47a8      	blx	r5
100067ee:	e7a8      	b.n	10006742 <tud_task+0x22>
100067f0:	4b9e      	ldr	r3, [pc, #632]	; (10006a6c <tud_task+0x34c>)
100067f2:	2201      	movs	r2, #1
100067f4:	4699      	mov	r9, r3
100067f6:	781b      	ldrb	r3, [r3, #0]
100067f8:	2000      	movs	r0, #0
100067fa:	4313      	orrs	r3, r2
100067fc:	464a      	mov	r2, r9
100067fe:	7013      	strb	r3, [r2, #0]
10006800:	7823      	ldrb	r3, [r4, #0]
10006802:	9301      	str	r3, [sp, #4]
10006804:	f000 fd92 	bl	1000732c <usbd_control_set_complete_callback>
10006808:	2360      	movs	r3, #96	; 0x60
1000680a:	7926      	ldrb	r6, [r4, #4]
1000680c:	4033      	ands	r3, r6
1000680e:	2b60      	cmp	r3, #96	; 0x60
10006810:	d100      	bne.n	10006814 <tud_task+0xf4>
10006812:	e11e      	b.n	10006a52 <tud_task+0x332>
10006814:	2b40      	cmp	r3, #64	; 0x40
10006816:	d100      	bne.n	1000681a <tud_task+0xfa>
10006818:	e10b      	b.n	10006a32 <tud_task+0x312>
1000681a:	06f6      	lsls	r6, r6, #27
1000681c:	0ef6      	lsrs	r6, r6, #27
1000681e:	2e01      	cmp	r6, #1
10006820:	d100      	bne.n	10006824 <tud_task+0x104>
10006822:	e151      	b.n	10006ac8 <tud_task+0x3a8>
10006824:	2e00      	cmp	r6, #0
10006826:	d100      	bne.n	1000682a <tud_task+0x10a>
10006828:	e142      	b.n	10006ab0 <tud_task+0x390>
1000682a:	2e02      	cmp	r6, #2
1000682c:	d000      	beq.n	10006830 <tud_task+0x110>
1000682e:	e110      	b.n	10006a52 <tud_task+0x332>
10006830:	277f      	movs	r7, #127	; 0x7f
10006832:	7a21      	ldrb	r1, [r4, #8]
10006834:	400f      	ands	r7, r1
10006836:	2f08      	cmp	r7, #8
10006838:	d900      	bls.n	1000683c <tud_task+0x11c>
1000683a:	e10a      	b.n	10006a52 <tud_task+0x332>
1000683c:	09ca      	lsrs	r2, r1, #7
1000683e:	4690      	mov	r8, r2
10006840:	2b00      	cmp	r3, #0
10006842:	d100      	bne.n	10006846 <tud_task+0x126>
10006844:	e16e      	b.n	10006b24 <tud_task+0x404>
10006846:	2500      	movs	r5, #0
10006848:	007f      	lsls	r7, r7, #1
1000684a:	444f      	add	r7, r9
1000684c:	4a88      	ldr	r2, [pc, #544]	; (10006a70 <tud_task+0x350>)
1000684e:	4447      	add	r7, r8
10006850:	7cfb      	ldrb	r3, [r7, #19]
10006852:	2a00      	cmp	r2, #0
10006854:	d100      	bne.n	10006858 <tud_task+0x138>
10006856:	e233      	b.n	10006cc0 <tud_task+0x5a0>
10006858:	4a86      	ldr	r2, [pc, #536]	; (10006a74 <tud_task+0x354>)
1000685a:	7812      	ldrb	r2, [r2, #0]
1000685c:	4293      	cmp	r3, r2
1000685e:	d300      	bcc.n	10006862 <tud_task+0x142>
10006860:	e22c      	b.n	10006cbc <tud_task+0x59c>
10006862:	4a85      	ldr	r2, [pc, #532]	; (10006a78 <tud_task+0x358>)
10006864:	00de      	lsls	r6, r3, #3
10006866:	1af3      	subs	r3, r6, r3
10006868:	6816      	ldr	r6, [r2, #0]
1000686a:	009b      	lsls	r3, r3, #2
1000686c:	18f6      	adds	r6, r6, r3
1000686e:	2e00      	cmp	r6, #0
10006870:	d000      	beq.n	10006874 <tud_task+0x154>
10006872:	e269      	b.n	10006d48 <tud_task+0x628>
10006874:	2260      	movs	r2, #96	; 0x60
10006876:	7923      	ldrb	r3, [r4, #4]
10006878:	421a      	tst	r2, r3
1000687a:	d000      	beq.n	1000687e <tud_task+0x15e>
1000687c:	e0e6      	b.n	10006a4c <tud_task+0x32c>
1000687e:	2000      	movs	r0, #0
10006880:	f000 fd54 	bl	1000732c <usbd_control_set_complete_callback>
10006884:	e0e2      	b.n	10006a4c <tud_task+0x32c>
10006886:	4b7d      	ldr	r3, [pc, #500]	; (10006a7c <tud_task+0x35c>)
10006888:	2b00      	cmp	r3, #0
1000688a:	d100      	bne.n	1000688e <tud_task+0x16e>
1000688c:	e759      	b.n	10006742 <tud_task+0x22>
1000688e:	e000      	b.n	10006892 <tud_task+0x172>
10006890:	bf00      	nop
10006892:	e756      	b.n	10006742 <tud_task+0x22>
10006894:	4b7a      	ldr	r3, [pc, #488]	; (10006a80 <tud_task+0x360>)
10006896:	2b00      	cmp	r3, #0
10006898:	d100      	bne.n	1000689c <tud_task+0x17c>
1000689a:	e752      	b.n	10006742 <tud_task+0x22>
1000689c:	4b73      	ldr	r3, [pc, #460]	; (10006a6c <tud_task+0x34c>)
1000689e:	7818      	ldrb	r0, [r3, #0]
100068a0:	0700      	lsls	r0, r0, #28
100068a2:	0fc0      	lsrs	r0, r0, #31
100068a4:	e000      	b.n	100068a8 <tud_task+0x188>
100068a6:	bf00      	nop
100068a8:	e74b      	b.n	10006742 <tud_task+0x22>
100068aa:	4e72      	ldr	r6, [pc, #456]	; (10006a74 <tud_task+0x354>)
100068ac:	4a70      	ldr	r2, [pc, #448]	; (10006a70 <tud_task+0x350>)
100068ae:	7833      	ldrb	r3, [r6, #0]
100068b0:	2a00      	cmp	r2, #0
100068b2:	d100      	bne.n	100068b6 <tud_task+0x196>
100068b4:	e0a7      	b.n	10006a06 <tud_task+0x2e6>
100068b6:	2500      	movs	r5, #0
100068b8:	001a      	movs	r2, r3
100068ba:	4f6f      	ldr	r7, [pc, #444]	; (10006a78 <tud_task+0x358>)
100068bc:	42ab      	cmp	r3, r5
100068be:	d913      	bls.n	100068e8 <tud_task+0x1c8>
100068c0:	6839      	ldr	r1, [r7, #0]
100068c2:	00eb      	lsls	r3, r5, #3
100068c4:	468c      	mov	ip, r1
100068c6:	1b5b      	subs	r3, r3, r5
100068c8:	009b      	lsls	r3, r3, #2
100068ca:	4463      	add	r3, ip
100068cc:	699b      	ldr	r3, [r3, #24]
100068ce:	2b00      	cmp	r3, #0
100068d0:	d00d      	beq.n	100068ee <tud_task+0x1ce>
100068d2:	7820      	ldrb	r0, [r4, #0]
100068d4:	4798      	blx	r3
100068d6:	3501      	adds	r5, #1
100068d8:	7832      	ldrb	r2, [r6, #0]
100068da:	b2ed      	uxtb	r5, r5
100068dc:	4295      	cmp	r5, r2
100068de:	d900      	bls.n	100068e2 <tud_task+0x1c2>
100068e0:	e72f      	b.n	10006742 <tud_task+0x22>
100068e2:	0013      	movs	r3, r2
100068e4:	42ab      	cmp	r3, r5
100068e6:	d8eb      	bhi.n	100068c0 <tud_task+0x1a0>
100068e8:	42ab      	cmp	r3, r5
100068ea:	d000      	beq.n	100068ee <tud_task+0x1ce>
100068ec:	e08e      	b.n	10006a0c <tud_task+0x2ec>
100068ee:	3501      	adds	r5, #1
100068f0:	b2ed      	uxtb	r5, r5
100068f2:	4295      	cmp	r5, r2
100068f4:	d900      	bls.n	100068f8 <tud_task+0x1d8>
100068f6:	e724      	b.n	10006742 <tud_task+0x22>
100068f8:	0013      	movs	r3, r2
100068fa:	e7f3      	b.n	100068e4 <tud_task+0x1c4>
100068fc:	2237      	movs	r2, #55	; 0x37
100068fe:	2100      	movs	r1, #0
10006900:	485a      	ldr	r0, [pc, #360]	; (10006a6c <tud_task+0x34c>)
10006902:	7827      	ldrb	r7, [r4, #0]
10006904:	f7fe fe7a 	bl	100055fc <__wrap_memset>
10006908:	2210      	movs	r2, #16
1000690a:	21ff      	movs	r1, #255	; 0xff
1000690c:	485d      	ldr	r0, [pc, #372]	; (10006a84 <tud_task+0x364>)
1000690e:	f7fe fe75 	bl	100055fc <__wrap_memset>
10006912:	4856      	ldr	r0, [pc, #344]	; (10006a6c <tud_task+0x34c>)
10006914:	2212      	movs	r2, #18
10006916:	21ff      	movs	r1, #255	; 0xff
10006918:	3013      	adds	r0, #19
1000691a:	f7fe fe6f 	bl	100055fc <__wrap_memset>
1000691e:	f000 fcfb 	bl	10007318 <usbd_control_reset>
10006922:	4e54      	ldr	r6, [pc, #336]	; (10006a74 <tud_task+0x354>)
10006924:	4a52      	ldr	r2, [pc, #328]	; (10006a70 <tud_task+0x350>)
10006926:	7833      	ldrb	r3, [r6, #0]
10006928:	2500      	movs	r5, #0
1000692a:	2a00      	cmp	r2, #0
1000692c:	d062      	beq.n	100069f4 <tud_task+0x2d4>
1000692e:	4a56      	ldr	r2, [pc, #344]	; (10006a88 <tud_task+0x368>)
10006930:	4691      	mov	r9, r2
10006932:	4a51      	ldr	r2, [pc, #324]	; (10006a78 <tud_task+0x358>)
10006934:	4690      	mov	r8, r2
10006936:	e00e      	b.n	10006956 <tud_task+0x236>
10006938:	4642      	mov	r2, r8
1000693a:	6812      	ldr	r2, [r2, #0]
1000693c:	00eb      	lsls	r3, r5, #3
1000693e:	4694      	mov	ip, r2
10006940:	1b5b      	subs	r3, r3, r5
10006942:	009b      	lsls	r3, r3, #2
10006944:	4463      	add	r3, ip
10006946:	685b      	ldr	r3, [r3, #4]
10006948:	0038      	movs	r0, r7
1000694a:	4798      	blx	r3
1000694c:	3501      	adds	r5, #1
1000694e:	7833      	ldrb	r3, [r6, #0]
10006950:	b2ed      	uxtb	r5, r5
10006952:	42ab      	cmp	r3, r5
10006954:	d30a      	bcc.n	1000696c <tud_task+0x24c>
10006956:	429d      	cmp	r5, r3
10006958:	d3ee      	bcc.n	10006938 <tud_task+0x218>
1000695a:	d151      	bne.n	10006a00 <tud_task+0x2e0>
1000695c:	464b      	mov	r3, r9
1000695e:	0038      	movs	r0, r7
10006960:	4798      	blx	r3
10006962:	3501      	adds	r5, #1
10006964:	7833      	ldrb	r3, [r6, #0]
10006966:	b2ed      	uxtb	r5, r5
10006968:	42ab      	cmp	r3, r5
1000696a:	d2f4      	bcs.n	10006956 <tud_task+0x236>
1000696c:	4b47      	ldr	r3, [pc, #284]	; (10006a8c <tud_task+0x36c>)
1000696e:	2b00      	cmp	r3, #0
10006970:	d100      	bne.n	10006974 <tud_task+0x254>
10006972:	e6e6      	b.n	10006742 <tud_task+0x22>
10006974:	e000      	b.n	10006978 <tud_task+0x258>
10006976:	bf00      	nop
10006978:	e6e3      	b.n	10006742 <tud_task+0x22>
1000697a:	4b3c      	ldr	r3, [pc, #240]	; (10006a6c <tud_task+0x34c>)
1000697c:	2237      	movs	r2, #55	; 0x37
1000697e:	4699      	mov	r9, r3
10006980:	2100      	movs	r1, #0
10006982:	0018      	movs	r0, r3
10006984:	7827      	ldrb	r7, [r4, #0]
10006986:	f7fe fe39 	bl	100055fc <__wrap_memset>
1000698a:	464b      	mov	r3, r9
1000698c:	2210      	movs	r2, #16
1000698e:	1cd8      	adds	r0, r3, #3
10006990:	21ff      	movs	r1, #255	; 0xff
10006992:	f7fe fe33 	bl	100055fc <__wrap_memset>
10006996:	4648      	mov	r0, r9
10006998:	2212      	movs	r2, #18
1000699a:	21ff      	movs	r1, #255	; 0xff
1000699c:	3013      	adds	r0, #19
1000699e:	f7fe fe2d 	bl	100055fc <__wrap_memset>
100069a2:	f000 fcb9 	bl	10007318 <usbd_control_reset>
100069a6:	4e33      	ldr	r6, [pc, #204]	; (10006a74 <tud_task+0x354>)
100069a8:	4a31      	ldr	r2, [pc, #196]	; (10006a70 <tud_task+0x350>)
100069aa:	7833      	ldrb	r3, [r6, #0]
100069ac:	2500      	movs	r5, #0
100069ae:	2a00      	cmp	r2, #0
100069b0:	d036      	beq.n	10006a20 <tud_task+0x300>
100069b2:	4a31      	ldr	r2, [pc, #196]	; (10006a78 <tud_task+0x358>)
100069b4:	4690      	mov	r8, r2
100069b6:	e00e      	b.n	100069d6 <tud_task+0x2b6>
100069b8:	4642      	mov	r2, r8
100069ba:	6812      	ldr	r2, [r2, #0]
100069bc:	00eb      	lsls	r3, r5, #3
100069be:	4694      	mov	ip, r2
100069c0:	1b5b      	subs	r3, r3, r5
100069c2:	009b      	lsls	r3, r3, #2
100069c4:	4463      	add	r3, ip
100069c6:	685b      	ldr	r3, [r3, #4]
100069c8:	0038      	movs	r0, r7
100069ca:	4798      	blx	r3
100069cc:	3501      	adds	r5, #1
100069ce:	7833      	ldrb	r3, [r6, #0]
100069d0:	b2ed      	uxtb	r5, r5
100069d2:	42ab      	cmp	r3, r5
100069d4:	d30a      	bcc.n	100069ec <tud_task+0x2cc>
100069d6:	429d      	cmp	r5, r3
100069d8:	d3ee      	bcc.n	100069b8 <tud_task+0x298>
100069da:	d111      	bne.n	10006a00 <tud_task+0x2e0>
100069dc:	4b2a      	ldr	r3, [pc, #168]	; (10006a88 <tud_task+0x368>)
100069de:	0038      	movs	r0, r7
100069e0:	4798      	blx	r3
100069e2:	3501      	adds	r5, #1
100069e4:	7833      	ldrb	r3, [r6, #0]
100069e6:	b2ed      	uxtb	r5, r5
100069e8:	42ab      	cmp	r3, r5
100069ea:	d2f4      	bcs.n	100069d6 <tud_task+0x2b6>
100069ec:	464a      	mov	r2, r9
100069ee:	7923      	ldrb	r3, [r4, #4]
100069f0:	7093      	strb	r3, [r2, #2]
100069f2:	e6a6      	b.n	10006742 <tud_task+0x22>
100069f4:	0038      	movs	r0, r7
100069f6:	f000 fe61 	bl	100076bc <cdcd_reset>
100069fa:	7833      	ldrb	r3, [r6, #0]
100069fc:	2b00      	cmp	r3, #0
100069fe:	d0b5      	beq.n	1000696c <tud_task+0x24c>
10006a00:	2300      	movs	r3, #0
10006a02:	685b      	ldr	r3, [r3, #4]
10006a04:	deff      	udf	#255	; 0xff
10006a06:	2b00      	cmp	r3, #0
10006a08:	d100      	bne.n	10006a0c <tud_task+0x2ec>
10006a0a:	e69a      	b.n	10006742 <tud_task+0x22>
10006a0c:	2300      	movs	r3, #0
10006a0e:	699b      	ldr	r3, [r3, #24]
10006a10:	deff      	udf	#255	; 0xff
10006a12:	b00b      	add	sp, #44	; 0x2c
10006a14:	bc3c      	pop	{r2, r3, r4, r5}
10006a16:	4690      	mov	r8, r2
10006a18:	4699      	mov	r9, r3
10006a1a:	46a2      	mov	sl, r4
10006a1c:	46ab      	mov	fp, r5
10006a1e:	bdf0      	pop	{r4, r5, r6, r7, pc}
10006a20:	0038      	movs	r0, r7
10006a22:	f000 fe4b 	bl	100076bc <cdcd_reset>
10006a26:	7833      	ldrb	r3, [r6, #0]
10006a28:	2b00      	cmp	r3, #0
10006a2a:	d0df      	beq.n	100069ec <tud_task+0x2cc>
10006a2c:	2300      	movs	r3, #0
10006a2e:	685b      	ldr	r3, [r3, #4]
10006a30:	deff      	udf	#255	; 0xff
10006a32:	4b17      	ldr	r3, [pc, #92]	; (10006a90 <tud_task+0x370>)
10006a34:	2b00      	cmp	r3, #0
10006a36:	d00c      	beq.n	10006a52 <tud_task+0x332>
10006a38:	4816      	ldr	r0, [pc, #88]	; (10006a94 <tud_task+0x374>)
10006a3a:	2800      	cmp	r0, #0
10006a3c:	d001      	beq.n	10006a42 <tud_task+0x322>
10006a3e:	f000 fc75 	bl	1000732c <usbd_control_set_complete_callback>
10006a42:	a908      	add	r1, sp, #32
10006a44:	9801      	ldr	r0, [sp, #4]
10006a46:	e000      	b.n	10006a4a <tud_task+0x32a>
10006a48:	bf00      	nop
10006a4a:	0005      	movs	r5, r0
10006a4c:	2d00      	cmp	r5, #0
10006a4e:	d000      	beq.n	10006a52 <tud_task+0x332>
10006a50:	e677      	b.n	10006742 <tud_task+0x22>
10006a52:	7820      	ldrb	r0, [r4, #0]
10006a54:	2100      	movs	r1, #0
10006a56:	f7ff fbe3 	bl	10006220 <dcd_edpt_stall>
10006a5a:	7820      	ldrb	r0, [r4, #0]
10006a5c:	2180      	movs	r1, #128	; 0x80
10006a5e:	f7ff fbdf 	bl	10006220 <dcd_edpt_stall>
10006a62:	e66e      	b.n	10006742 <tud_task+0x22>
10006a64:	200007e0 	.word	0x200007e0
10006a68:	10008518 	.word	0x10008518
10006a6c:	200007a4 	.word	0x200007a4
10006a70:	10005b89 	.word	0x10005b89
10006a74:	20000fa4 	.word	0x20000fa4
10006a78:	20000474 	.word	0x20000474
	...
10006a84:	200007a7 	.word	0x200007a7
10006a88:	100076bd 	.word	0x100076bd
	...
10006a98:	1a9b      	subs	r3, r3, r2
10006a9a:	b2db      	uxtb	r3, r3
10006a9c:	2b00      	cmp	r3, #0
10006a9e:	d1b8      	bne.n	10006a12 <tud_task+0x2f2>
10006aa0:	4db2      	ldr	r5, [pc, #712]	; (10006d6c <tud_task+0x64c>)
10006aa2:	e6a0      	b.n	100067e6 <tud_task+0xc6>
10006aa4:	7962      	ldrb	r2, [r4, #5]
10006aa6:	7820      	ldrb	r0, [r4, #0]
10006aa8:	68a3      	ldr	r3, [r4, #8]
10006aaa:	f000 fc53 	bl	10007354 <usbd_control_xfer_cb>
10006aae:	e648      	b.n	10006742 <tud_task+0x22>
10006ab0:	2b20      	cmp	r3, #32
10006ab2:	d100      	bne.n	10006ab6 <tud_task+0x396>
10006ab4:	e0e3      	b.n	10006c7e <tud_task+0x55e>
10006ab6:	2b00      	cmp	r3, #0
10006ab8:	d1cb      	bne.n	10006a52 <tud_task+0x332>
10006aba:	7963      	ldrb	r3, [r4, #5]
10006abc:	2b09      	cmp	r3, #9
10006abe:	d8c8      	bhi.n	10006a52 <tud_task+0x332>
10006ac0:	4aab      	ldr	r2, [pc, #684]	; (10006d70 <tud_task+0x650>)
10006ac2:	009b      	lsls	r3, r3, #2
10006ac4:	58d3      	ldr	r3, [r2, r3]
10006ac6:	469f      	mov	pc, r3
10006ac8:	7a23      	ldrb	r3, [r4, #8]
10006aca:	2b0f      	cmp	r3, #15
10006acc:	d8c1      	bhi.n	10006a52 <tud_task+0x332>
10006ace:	4aa9      	ldr	r2, [pc, #676]	; (10006d74 <tud_task+0x654>)
10006ad0:	444b      	add	r3, r9
10006ad2:	78db      	ldrb	r3, [r3, #3]
10006ad4:	2a00      	cmp	r2, #0
10006ad6:	d03b      	beq.n	10006b50 <tud_task+0x430>
10006ad8:	4aa7      	ldr	r2, [pc, #668]	; (10006d78 <tud_task+0x658>)
10006ada:	7812      	ldrb	r2, [r2, #0]
10006adc:	4293      	cmp	r3, r2
10006ade:	d235      	bcs.n	10006b4c <tud_task+0x42c>
10006ae0:	4aa6      	ldr	r2, [pc, #664]	; (10006d7c <tud_task+0x65c>)
10006ae2:	00dd      	lsls	r5, r3, #3
10006ae4:	1aeb      	subs	r3, r5, r3
10006ae6:	6815      	ldr	r5, [r2, #0]
10006ae8:	009b      	lsls	r3, r3, #2
10006aea:	18ed      	adds	r5, r5, r3
10006aec:	2d00      	cmp	r5, #0
10006aee:	d0b0      	beq.n	10006a52 <tud_task+0x332>
10006af0:	6928      	ldr	r0, [r5, #16]
10006af2:	f000 fc1b 	bl	1000732c <usbd_control_set_complete_callback>
10006af6:	68eb      	ldr	r3, [r5, #12]
10006af8:	a908      	add	r1, sp, #32
10006afa:	9801      	ldr	r0, [sp, #4]
10006afc:	4798      	blx	r3
10006afe:	2800      	cmp	r0, #0
10006b00:	d000      	beq.n	10006b04 <tud_task+0x3e4>
10006b02:	e61e      	b.n	10006742 <tud_task+0x22>
10006b04:	2360      	movs	r3, #96	; 0x60
10006b06:	7922      	ldrb	r2, [r4, #4]
10006b08:	4013      	ands	r3, r2
10006b0a:	d1a2      	bne.n	10006a52 <tud_task+0x332>
10006b0c:	7962      	ldrb	r2, [r4, #5]
10006b0e:	2a0a      	cmp	r2, #10
10006b10:	d19f      	bne.n	10006a52 <tud_task+0x332>
10006b12:	aa06      	add	r2, sp, #24
10006b14:	3202      	adds	r2, #2
10006b16:	7013      	strb	r3, [r2, #0]
10006b18:	a908      	add	r1, sp, #32
10006b1a:	3301      	adds	r3, #1
10006b1c:	9801      	ldr	r0, [sp, #4]
10006b1e:	f000 fba1 	bl	10007264 <tud_control_xfer>
10006b22:	e60e      	b.n	10006742 <tud_task+0x22>
10006b24:	7963      	ldrb	r3, [r4, #5]
10006b26:	9302      	str	r3, [sp, #8]
10006b28:	2b01      	cmp	r3, #1
10006b2a:	d100      	bne.n	10006b2e <tud_task+0x40e>
10006b2c:	e0f8      	b.n	10006d20 <tud_task+0x600>
10006b2e:	2b00      	cmp	r3, #0
10006b30:	d100      	bne.n	10006b34 <tud_task+0x414>
10006b32:	e0e4      	b.n	10006cfe <tud_task+0x5de>
10006b34:	2b03      	cmp	r3, #3
10006b36:	d18c      	bne.n	10006a52 <tud_task+0x332>
10006b38:	88e3      	ldrh	r3, [r4, #6]
10006b3a:	007f      	lsls	r7, r7, #1
10006b3c:	2b00      	cmp	r3, #0
10006b3e:	d100      	bne.n	10006b42 <tud_task+0x422>
10006b40:	e104      	b.n	10006d4c <tud_task+0x62c>
10006b42:	a908      	add	r1, sp, #32
10006b44:	9801      	ldr	r0, [sp, #4]
10006b46:	f000 fb75 	bl	10007234 <tud_control_status>
10006b4a:	e67e      	b.n	1000684a <tud_task+0x12a>
10006b4c:	1a9b      	subs	r3, r3, r2
10006b4e:	b2db      	uxtb	r3, r3
10006b50:	2b00      	cmp	r3, #0
10006b52:	d000      	beq.n	10006b56 <tud_task+0x436>
10006b54:	e77d      	b.n	10006a52 <tud_task+0x332>
10006b56:	488a      	ldr	r0, [pc, #552]	; (10006d80 <tud_task+0x660>)
10006b58:	4d8a      	ldr	r5, [pc, #552]	; (10006d84 <tud_task+0x664>)
10006b5a:	e7ca      	b.n	10006af2 <tud_task+0x3d2>
10006b5c:	464b      	mov	r3, r9
10006b5e:	79a2      	ldrb	r2, [r4, #6]
10006b60:	9203      	str	r2, [sp, #12]
10006b62:	785b      	ldrb	r3, [r3, #1]
10006b64:	2b00      	cmp	r3, #0
10006b66:	d102      	bne.n	10006b6e <tud_task+0x44e>
10006b68:	2a00      	cmp	r2, #0
10006b6a:	d000      	beq.n	10006b6e <tud_task+0x44e>
10006b6c:	e110      	b.n	10006d90 <tud_task+0x670>
10006b6e:	464b      	mov	r3, r9
10006b70:	9a03      	ldr	r2, [sp, #12]
10006b72:	a908      	add	r1, sp, #32
10006b74:	9801      	ldr	r0, [sp, #4]
10006b76:	705a      	strb	r2, [r3, #1]
10006b78:	f000 fb5c 	bl	10007234 <tud_control_status>
10006b7c:	e5e1      	b.n	10006742 <tud_task+0x22>
10006b7e:	464b      	mov	r3, r9
10006b80:	aa06      	add	r2, sp, #24
10006b82:	785b      	ldrb	r3, [r3, #1]
10006b84:	3202      	adds	r2, #2
10006b86:	7013      	strb	r3, [r2, #0]
10006b88:	a908      	add	r1, sp, #32
10006b8a:	2301      	movs	r3, #1
10006b8c:	9801      	ldr	r0, [sp, #4]
10006b8e:	f000 fb69 	bl	10007264 <tud_control_xfer>
10006b92:	e5d6      	b.n	10006742 <tud_task+0x22>
10006b94:	88e3      	ldrh	r3, [r4, #6]
10006b96:	b2d8      	uxtb	r0, r3
10006b98:	0a1b      	lsrs	r3, r3, #8
10006b9a:	2b0f      	cmp	r3, #15
10006b9c:	d900      	bls.n	10006ba0 <tud_task+0x480>
10006b9e:	e758      	b.n	10006a52 <tud_task+0x332>
10006ba0:	4a79      	ldr	r2, [pc, #484]	; (10006d88 <tud_task+0x668>)
10006ba2:	009b      	lsls	r3, r3, #2
10006ba4:	58d3      	ldr	r3, [r2, r3]
10006ba6:	469f      	mov	pc, r3
10006ba8:	a808      	add	r0, sp, #32
10006baa:	f000 fbc5 	bl	10007338 <usbd_control_set_request>
10006bae:	79a1      	ldrb	r1, [r4, #6]
10006bb0:	9801      	ldr	r0, [sp, #4]
10006bb2:	f7ff f9e7 	bl	10005f84 <dcd_set_address>
10006bb6:	464b      	mov	r3, r9
10006bb8:	2202      	movs	r2, #2
10006bba:	781b      	ldrb	r3, [r3, #0]
10006bbc:	4313      	orrs	r3, r2
10006bbe:	464a      	mov	r2, r9
10006bc0:	7013      	strb	r3, [r2, #0]
10006bc2:	e5be      	b.n	10006742 <tud_task+0x22>
10006bc4:	88e3      	ldrh	r3, [r4, #6]
10006bc6:	2b01      	cmp	r3, #1
10006bc8:	d000      	beq.n	10006bcc <tud_task+0x4ac>
10006bca:	e742      	b.n	10006a52 <tud_task+0x332>
10006bcc:	464b      	mov	r3, r9
10006bce:	2208      	movs	r2, #8
10006bd0:	781b      	ldrb	r3, [r3, #0]
10006bd2:	4393      	bics	r3, r2
10006bd4:	464a      	mov	r2, r9
10006bd6:	a908      	add	r1, sp, #32
10006bd8:	9801      	ldr	r0, [sp, #4]
10006bda:	7013      	strb	r3, [r2, #0]
10006bdc:	f000 fb2a 	bl	10007234 <tud_control_status>
10006be0:	e5af      	b.n	10006742 <tud_task+0x22>
10006be2:	464b      	mov	r3, r9
10006be4:	2002      	movs	r0, #2
10006be6:	7819      	ldrb	r1, [r3, #0]
10006be8:	ab06      	add	r3, sp, #24
10006bea:	1c9a      	adds	r2, r3, #2
10006bec:	068b      	lsls	r3, r1, #26
10006bee:	0889      	lsrs	r1, r1, #2
10006bf0:	4001      	ands	r1, r0
10006bf2:	0fdb      	lsrs	r3, r3, #31
10006bf4:	430b      	orrs	r3, r1
10006bf6:	8013      	strh	r3, [r2, #0]
10006bf8:	a908      	add	r1, sp, #32
10006bfa:	2302      	movs	r3, #2
10006bfc:	9801      	ldr	r0, [sp, #4]
10006bfe:	f000 fb31 	bl	10007264 <tud_control_xfer>
10006c02:	e59e      	b.n	10006742 <tud_task+0x22>
10006c04:	88e3      	ldrh	r3, [r4, #6]
10006c06:	2b01      	cmp	r3, #1
10006c08:	d000      	beq.n	10006c0c <tud_task+0x4ec>
10006c0a:	e722      	b.n	10006a52 <tud_task+0x332>
10006c0c:	464b      	mov	r3, r9
10006c0e:	2208      	movs	r2, #8
10006c10:	781b      	ldrb	r3, [r3, #0]
10006c12:	4313      	orrs	r3, r2
10006c14:	e7de      	b.n	10006bd4 <tud_task+0x4b4>
10006c16:	4b5d      	ldr	r3, [pc, #372]	; (10006d8c <tud_task+0x66c>)
10006c18:	2b00      	cmp	r3, #0
10006c1a:	d100      	bne.n	10006c1e <tud_task+0x4fe>
10006c1c:	e719      	b.n	10006a52 <tud_task+0x332>
10006c1e:	e000      	b.n	10006c22 <tud_task+0x502>
10006c20:	bf00      	nop
10006c22:	1e02      	subs	r2, r0, #0
10006c24:	d100      	bne.n	10006c28 <tud_task+0x508>
10006c26:	e714      	b.n	10006a52 <tud_task+0x332>
10006c28:	7813      	ldrb	r3, [r2, #0]
10006c2a:	a908      	add	r1, sp, #32
10006c2c:	9801      	ldr	r0, [sp, #4]
10006c2e:	f000 fb19 	bl	10007264 <tud_control_xfer>
10006c32:	2800      	cmp	r0, #0
10006c34:	d000      	beq.n	10006c38 <tud_task+0x518>
10006c36:	e584      	b.n	10006742 <tud_task+0x22>
10006c38:	e70b      	b.n	10006a52 <tud_task+0x332>
10006c3a:	8921      	ldrh	r1, [r4, #8]
10006c3c:	f7ff f8d6 	bl	10005dec <tud_descriptor_string_cb>
10006c40:	1e02      	subs	r2, r0, #0
10006c42:	d1f1      	bne.n	10006c28 <tud_task+0x508>
10006c44:	e705      	b.n	10006a52 <tud_task+0x332>
10006c46:	f7ff f8cd 	bl	10005de4 <tud_descriptor_configuration_cb>
10006c4a:	1e05      	subs	r5, r0, #0
10006c4c:	d100      	bne.n	10006c50 <tud_task+0x530>
10006c4e:	e700      	b.n	10006a52 <tud_task+0x332>
10006c50:	ab06      	add	r3, sp, #24
10006c52:	1c9e      	adds	r6, r3, #2
10006c54:	1ca9      	adds	r1, r5, #2
10006c56:	2202      	movs	r2, #2
10006c58:	0030      	movs	r0, r6
10006c5a:	f7fe fcd5 	bl	10005608 <__wrap___aeabi_memcpy>
10006c5e:	8833      	ldrh	r3, [r6, #0]
10006c60:	002a      	movs	r2, r5
10006c62:	a908      	add	r1, sp, #32
10006c64:	9801      	ldr	r0, [sp, #4]
10006c66:	f000 fafd 	bl	10007264 <tud_control_xfer>
10006c6a:	e7e2      	b.n	10006c32 <tud_task+0x512>
10006c6c:	f7ff f8b6 	bl	10005ddc <tud_descriptor_device_cb>
10006c70:	2312      	movs	r3, #18
10006c72:	0002      	movs	r2, r0
10006c74:	a908      	add	r1, sp, #32
10006c76:	9801      	ldr	r0, [sp, #4]
10006c78:	f000 faf4 	bl	10007264 <tud_control_xfer>
10006c7c:	e7d9      	b.n	10006c32 <tud_task+0x512>
10006c7e:	7a23      	ldrb	r3, [r4, #8]
10006c80:	2b0f      	cmp	r3, #15
10006c82:	d900      	bls.n	10006c86 <tud_task+0x566>
10006c84:	e6e5      	b.n	10006a52 <tud_task+0x332>
10006c86:	4a3b      	ldr	r2, [pc, #236]	; (10006d74 <tud_task+0x654>)
10006c88:	444b      	add	r3, r9
10006c8a:	78db      	ldrb	r3, [r3, #3]
10006c8c:	2a00      	cmp	r2, #0
10006c8e:	d030      	beq.n	10006cf2 <tud_task+0x5d2>
10006c90:	4a39      	ldr	r2, [pc, #228]	; (10006d78 <tud_task+0x658>)
10006c92:	7812      	ldrb	r2, [r2, #0]
10006c94:	4293      	cmp	r3, r2
10006c96:	d22a      	bcs.n	10006cee <tud_task+0x5ce>
10006c98:	4a38      	ldr	r2, [pc, #224]	; (10006d7c <tud_task+0x65c>)
10006c9a:	00dd      	lsls	r5, r3, #3
10006c9c:	1aeb      	subs	r3, r5, r3
10006c9e:	6815      	ldr	r5, [r2, #0]
10006ca0:	009b      	lsls	r3, r3, #2
10006ca2:	18ed      	adds	r5, r5, r3
10006ca4:	2d00      	cmp	r5, #0
10006ca6:	d100      	bne.n	10006caa <tud_task+0x58a>
10006ca8:	e6d3      	b.n	10006a52 <tud_task+0x332>
10006caa:	6928      	ldr	r0, [r5, #16]
10006cac:	f000 fb3e 	bl	1000732c <usbd_control_set_complete_callback>
10006cb0:	68eb      	ldr	r3, [r5, #12]
10006cb2:	a908      	add	r1, sp, #32
10006cb4:	9801      	ldr	r0, [sp, #4]
10006cb6:	4798      	blx	r3
10006cb8:	0005      	movs	r5, r0
10006cba:	e6c7      	b.n	10006a4c <tud_task+0x32c>
10006cbc:	1a9b      	subs	r3, r3, r2
10006cbe:	b2db      	uxtb	r3, r3
10006cc0:	2b00      	cmp	r3, #0
10006cc2:	d000      	beq.n	10006cc6 <tud_task+0x5a6>
10006cc4:	e5d6      	b.n	10006874 <tud_task+0x154>
10006cc6:	482e      	ldr	r0, [pc, #184]	; (10006d80 <tud_task+0x660>)
10006cc8:	4e2e      	ldr	r6, [pc, #184]	; (10006d84 <tud_task+0x664>)
10006cca:	f000 fb2f 	bl	1000732c <usbd_control_set_complete_callback>
10006cce:	68f3      	ldr	r3, [r6, #12]
10006cd0:	a908      	add	r1, sp, #32
10006cd2:	9801      	ldr	r0, [sp, #4]
10006cd4:	4798      	blx	r3
10006cd6:	2800      	cmp	r0, #0
10006cd8:	d100      	bne.n	10006cdc <tud_task+0x5bc>
10006cda:	e5cb      	b.n	10006874 <tud_task+0x154>
10006cdc:	2260      	movs	r2, #96	; 0x60
10006cde:	7923      	ldrb	r3, [r4, #4]
10006ce0:	421a      	tst	r2, r3
10006ce2:	d000      	beq.n	10006ce6 <tud_task+0x5c6>
10006ce4:	e52d      	b.n	10006742 <tud_task+0x22>
10006ce6:	2000      	movs	r0, #0
10006ce8:	f000 fb20 	bl	1000732c <usbd_control_set_complete_callback>
10006cec:	e529      	b.n	10006742 <tud_task+0x22>
10006cee:	1a9b      	subs	r3, r3, r2
10006cf0:	b2db      	uxtb	r3, r3
10006cf2:	2b00      	cmp	r3, #0
10006cf4:	d000      	beq.n	10006cf8 <tud_task+0x5d8>
10006cf6:	e6ac      	b.n	10006a52 <tud_task+0x332>
10006cf8:	4821      	ldr	r0, [pc, #132]	; (10006d80 <tud_task+0x660>)
10006cfa:	4d22      	ldr	r5, [pc, #136]	; (10006d84 <tud_task+0x664>)
10006cfc:	e7d6      	b.n	10006cac <tud_task+0x58c>
10006cfe:	464b      	mov	r3, r9
10006d00:	007f      	lsls	r7, r7, #1
10006d02:	19db      	adds	r3, r3, r7
10006d04:	4443      	add	r3, r8
10006d06:	3320      	adds	r3, #32
10006d08:	795b      	ldrb	r3, [r3, #5]
10006d0a:	aa06      	add	r2, sp, #24
10006d0c:	079b      	lsls	r3, r3, #30
10006d0e:	0fdb      	lsrs	r3, r3, #31
10006d10:	3202      	adds	r2, #2
10006d12:	8013      	strh	r3, [r2, #0]
10006d14:	a908      	add	r1, sp, #32
10006d16:	2302      	movs	r3, #2
10006d18:	9801      	ldr	r0, [sp, #4]
10006d1a:	f000 faa3 	bl	10007264 <tud_control_xfer>
10006d1e:	e594      	b.n	1000684a <tud_task+0x12a>
10006d20:	88e3      	ldrh	r3, [r4, #6]
10006d22:	007f      	lsls	r7, r7, #1
10006d24:	2b00      	cmp	r3, #0
10006d26:	d000      	beq.n	10006d2a <tud_task+0x60a>
10006d28:	e70b      	b.n	10006b42 <tud_task+0x422>
10006d2a:	9801      	ldr	r0, [sp, #4]
10006d2c:	f7ff faa0 	bl	10006270 <dcd_edpt_clear_stall>
10006d30:	464b      	mov	r3, r9
10006d32:	19db      	adds	r3, r3, r7
10006d34:	4443      	add	r3, r8
10006d36:	3320      	adds	r3, #32
10006d38:	795a      	ldrb	r2, [r3, #5]
10006d3a:	9902      	ldr	r1, [sp, #8]
10006d3c:	43b2      	bics	r2, r6
10006d3e:	715a      	strb	r2, [r3, #5]
10006d40:	795a      	ldrb	r2, [r3, #5]
10006d42:	438a      	bics	r2, r1
10006d44:	715a      	strb	r2, [r3, #5]
10006d46:	e6fc      	b.n	10006b42 <tud_task+0x422>
10006d48:	6930      	ldr	r0, [r6, #16]
10006d4a:	e7be      	b.n	10006cca <tud_task+0x5aa>
10006d4c:	9801      	ldr	r0, [sp, #4]
10006d4e:	f7ff fa67 	bl	10006220 <dcd_edpt_stall>
10006d52:	464b      	mov	r3, r9
10006d54:	2102      	movs	r1, #2
10006d56:	19db      	adds	r3, r3, r7
10006d58:	4443      	add	r3, r8
10006d5a:	3320      	adds	r3, #32
10006d5c:	795a      	ldrb	r2, [r3, #5]
10006d5e:	430a      	orrs	r2, r1
10006d60:	2101      	movs	r1, #1
10006d62:	715a      	strb	r2, [r3, #5]
10006d64:	795a      	ldrb	r2, [r3, #5]
10006d66:	430a      	orrs	r2, r1
10006d68:	715a      	strb	r2, [r3, #5]
10006d6a:	e6ea      	b.n	10006b42 <tud_task+0x422>
10006d6c:	10007881 	.word	0x10007881
10006d70:	1000853c 	.word	0x1000853c
10006d74:	10005b89 	.word	0x10005b89
10006d78:	20000fa4 	.word	0x20000fa4
10006d7c:	20000474 	.word	0x20000474
10006d80:	100077cd 	.word	0x100077cd
10006d84:	100085a4 	.word	0x100085a4
10006d88:	10008564 	.word	0x10008564
10006d8c:	00000000 	.word	0x00000000
10006d90:	1e50      	subs	r0, r2, #1
10006d92:	b2c0      	uxtb	r0, r0
10006d94:	f7ff f826 	bl	10005de4 <tud_descriptor_configuration_cb>
10006d98:	2800      	cmp	r0, #0
10006d9a:	d100      	bne.n	10006d9e <tud_task+0x67e>
10006d9c:	e659      	b.n	10006a52 <tud_task+0x332>
10006d9e:	7843      	ldrb	r3, [r0, #1]
10006da0:	2b02      	cmp	r3, #2
10006da2:	d000      	beq.n	10006da6 <tud_task+0x686>
10006da4:	e655      	b.n	10006a52 <tud_task+0x332>
10006da6:	2501      	movs	r5, #1
10006da8:	79c3      	ldrb	r3, [r0, #7]
10006daa:	2610      	movs	r6, #16
10006dac:	115a      	asrs	r2, r3, #5
10006dae:	402a      	ands	r2, r5
10006db0:	0111      	lsls	r1, r2, #4
10006db2:	464a      	mov	r2, r9
10006db4:	7812      	ldrb	r2, [r2, #0]
10006db6:	119b      	asrs	r3, r3, #6
10006db8:	43b2      	bics	r2, r6
10006dba:	430a      	orrs	r2, r1
10006dbc:	2120      	movs	r1, #32
10006dbe:	402b      	ands	r3, r5
10006dc0:	438a      	bics	r2, r1
10006dc2:	015b      	lsls	r3, r3, #5
10006dc4:	4313      	orrs	r3, r2
10006dc6:	464a      	mov	r2, r9
10006dc8:	0007      	movs	r7, r0
10006dca:	7013      	strb	r3, [r2, #0]
10006dcc:	78c3      	ldrb	r3, [r0, #3]
10006dce:	7882      	ldrb	r2, [r0, #2]
10006dd0:	021b      	lsls	r3, r3, #8
10006dd2:	4313      	orrs	r3, r2
10006dd4:	18c3      	adds	r3, r0, r3
10006dd6:	3709      	adds	r7, #9
10006dd8:	9304      	str	r3, [sp, #16]
10006dda:	429f      	cmp	r7, r3
10006ddc:	d300      	bcc.n	10006de0 <tud_task+0x6c0>
10006dde:	e089      	b.n	10006ef4 <tud_task+0x7d4>
10006de0:	4b4d      	ldr	r3, [pc, #308]	; (10006f18 <tud_task+0x7f8>)
10006de2:	4698      	mov	r8, r3
10006de4:	2300      	movs	r3, #0
10006de6:	787a      	ldrb	r2, [r7, #1]
10006de8:	9305      	str	r3, [sp, #20]
10006dea:	2a0b      	cmp	r2, #11
10006dec:	d104      	bne.n	10006df8 <tud_task+0x6d8>
10006dee:	783b      	ldrb	r3, [r7, #0]
10006df0:	9705      	str	r7, [sp, #20]
10006df2:	18fb      	adds	r3, r7, r3
10006df4:	001f      	movs	r7, r3
10006df6:	785a      	ldrb	r2, [r3, #1]
10006df8:	2a04      	cmp	r2, #4
10006dfa:	d000      	beq.n	10006dfe <tud_task+0x6de>
10006dfc:	e629      	b.n	10006a52 <tud_task+0x332>
10006dfe:	9b04      	ldr	r3, [sp, #16]
10006e00:	4a46      	ldr	r2, [pc, #280]	; (10006f1c <tud_task+0x7fc>)
10006e02:	1bdb      	subs	r3, r3, r7
10006e04:	b29b      	uxth	r3, r3
10006e06:	9302      	str	r3, [sp, #8]
10006e08:	4b45      	ldr	r3, [pc, #276]	; (10006f20 <tud_task+0x800>)
10006e0a:	2500      	movs	r5, #0
10006e0c:	781b      	ldrb	r3, [r3, #0]
10006e0e:	2a00      	cmp	r2, #0
10006e10:	d115      	bne.n	10006e3e <tud_task+0x71e>
10006e12:	e019      	b.n	10006e48 <tud_task+0x728>
10006e14:	4642      	mov	r2, r8
10006e16:	6812      	ldr	r2, [r2, #0]
10006e18:	00eb      	lsls	r3, r5, #3
10006e1a:	4694      	mov	ip, r2
10006e1c:	1b5b      	subs	r3, r3, r5
10006e1e:	009b      	lsls	r3, r3, #2
10006e20:	4463      	add	r3, ip
10006e22:	689b      	ldr	r3, [r3, #8]
10006e24:	9a02      	ldr	r2, [sp, #8]
10006e26:	0039      	movs	r1, r7
10006e28:	9801      	ldr	r0, [sp, #4]
10006e2a:	4798      	blx	r3
10006e2c:	2800      	cmp	r0, #0
10006e2e:	d11a      	bne.n	10006e66 <tud_task+0x746>
10006e30:	4b3b      	ldr	r3, [pc, #236]	; (10006f20 <tud_task+0x800>)
10006e32:	3501      	adds	r5, #1
10006e34:	781b      	ldrb	r3, [r3, #0]
10006e36:	b2ed      	uxtb	r5, r5
10006e38:	42ab      	cmp	r3, r5
10006e3a:	d200      	bcs.n	10006e3e <tud_task+0x71e>
10006e3c:	e609      	b.n	10006a52 <tud_task+0x332>
10006e3e:	429d      	cmp	r5, r3
10006e40:	d3e8      	bcc.n	10006e14 <tud_task+0x6f4>
10006e42:	d10d      	bne.n	10006e60 <tud_task+0x740>
10006e44:	4b37      	ldr	r3, [pc, #220]	; (10006f24 <tud_task+0x804>)
10006e46:	e7ed      	b.n	10006e24 <tud_task+0x704>
10006e48:	9a02      	ldr	r2, [sp, #8]
10006e4a:	0039      	movs	r1, r7
10006e4c:	9801      	ldr	r0, [sp, #4]
10006e4e:	f000 fc47 	bl	100076e0 <cdcd_open>
10006e52:	1e06      	subs	r6, r0, #0
10006e54:	d15d      	bne.n	10006f12 <tud_task+0x7f2>
10006e56:	4b32      	ldr	r3, [pc, #200]	; (10006f20 <tud_task+0x800>)
10006e58:	781b      	ldrb	r3, [r3, #0]
10006e5a:	2b00      	cmp	r3, #0
10006e5c:	d100      	bne.n	10006e60 <tud_task+0x740>
10006e5e:	e5f8      	b.n	10006a52 <tud_task+0x332>
10006e60:	2300      	movs	r3, #0
10006e62:	689b      	ldr	r3, [r3, #8]
10006e64:	deff      	udf	#255	; 0xff
10006e66:	0006      	movs	r6, r0
10006e68:	2e08      	cmp	r6, #8
10006e6a:	d800      	bhi.n	10006e6e <tud_task+0x74e>
10006e6c:	e5f1      	b.n	10006a52 <tud_task+0x332>
10006e6e:	9b02      	ldr	r3, [sp, #8]
10006e70:	429e      	cmp	r6, r3
10006e72:	d900      	bls.n	10006e76 <tud_task+0x756>
10006e74:	e5ed      	b.n	10006a52 <tud_task+0x332>
10006e76:	464a      	mov	r2, r9
10006e78:	78bb      	ldrb	r3, [r7, #2]
10006e7a:	18d2      	adds	r2, r2, r3
10006e7c:	78d1      	ldrb	r1, [r2, #3]
10006e7e:	29ff      	cmp	r1, #255	; 0xff
10006e80:	d000      	beq.n	10006e84 <tud_task+0x764>
10006e82:	e5e6      	b.n	10006a52 <tud_task+0x332>
10006e84:	9805      	ldr	r0, [sp, #20]
10006e86:	70d5      	strb	r5, [r2, #3]
10006e88:	2800      	cmp	r0, #0
10006e8a:	d014      	beq.n	10006eb6 <tud_task+0x796>
10006e8c:	7881      	ldrb	r1, [r0, #2]
10006e8e:	4299      	cmp	r1, r3
10006e90:	d000      	beq.n	10006e94 <tud_task+0x774>
10006e92:	e5de      	b.n	10006a52 <tud_task+0x332>
10006e94:	7902      	ldrb	r2, [r0, #4]
10006e96:	797b      	ldrb	r3, [r7, #5]
10006e98:	429a      	cmp	r2, r3
10006e9a:	d000      	beq.n	10006e9e <tud_task+0x77e>
10006e9c:	e5d9      	b.n	10006a52 <tud_task+0x332>
10006e9e:	78c2      	ldrb	r2, [r0, #3]
10006ea0:	2a01      	cmp	r2, #1
10006ea2:	d908      	bls.n	10006eb6 <tud_task+0x796>
10006ea4:	3a02      	subs	r2, #2
10006ea6:	3104      	adds	r1, #4
10006ea8:	4449      	add	r1, r9
10006eaa:	b2d2      	uxtb	r2, r2
10006eac:	0008      	movs	r0, r1
10006eae:	3201      	adds	r2, #1
10006eb0:	0029      	movs	r1, r5
10006eb2:	f7fe fba3 	bl	100055fc <__wrap_memset>
10006eb6:	217f      	movs	r1, #127	; 0x7f
10006eb8:	003a      	movs	r2, r7
10006eba:	2300      	movs	r3, #0
10006ebc:	468c      	mov	ip, r1
10006ebe:	7851      	ldrb	r1, [r2, #1]
10006ec0:	2905      	cmp	r1, #5
10006ec2:	d107      	bne.n	10006ed4 <tud_task+0x7b4>
10006ec4:	4661      	mov	r1, ip
10006ec6:	7890      	ldrb	r0, [r2, #2]
10006ec8:	4001      	ands	r1, r0
10006eca:	0049      	lsls	r1, r1, #1
10006ecc:	4449      	add	r1, r9
10006ece:	3113      	adds	r1, #19
10006ed0:	09c0      	lsrs	r0, r0, #7
10006ed2:	540d      	strb	r5, [r1, r0]
10006ed4:	7811      	ldrb	r1, [r2, #0]
10006ed6:	185b      	adds	r3, r3, r1
10006ed8:	b29b      	uxth	r3, r3
10006eda:	1852      	adds	r2, r2, r1
10006edc:	429e      	cmp	r6, r3
10006ede:	d8ee      	bhi.n	10006ebe <tud_task+0x79e>
10006ee0:	4b0f      	ldr	r3, [pc, #60]	; (10006f20 <tud_task+0x800>)
10006ee2:	19bf      	adds	r7, r7, r6
10006ee4:	781b      	ldrb	r3, [r3, #0]
10006ee6:	42ab      	cmp	r3, r5
10006ee8:	d200      	bcs.n	10006eec <tud_task+0x7cc>
10006eea:	e5b2      	b.n	10006a52 <tud_task+0x332>
10006eec:	9b04      	ldr	r3, [sp, #16]
10006eee:	42bb      	cmp	r3, r7
10006ef0:	d900      	bls.n	10006ef4 <tud_task+0x7d4>
10006ef2:	e777      	b.n	10006de4 <tud_task+0x6c4>
10006ef4:	4b0c      	ldr	r3, [pc, #48]	; (10006f28 <tud_task+0x808>)
10006ef6:	2b00      	cmp	r3, #0
10006ef8:	d100      	bne.n	10006efc <tud_task+0x7dc>
10006efa:	e638      	b.n	10006b6e <tud_task+0x44e>
10006efc:	e000      	b.n	10006f00 <tud_task+0x7e0>
10006efe:	bf00      	nop
10006f00:	e635      	b.n	10006b6e <tud_task+0x44e>
10006f02:	4b0a      	ldr	r3, [pc, #40]	; (10006f2c <tud_task+0x80c>)
10006f04:	2b00      	cmp	r3, #0
10006f06:	d100      	bne.n	10006f0a <tud_task+0x7ea>
10006f08:	e5a3      	b.n	10006a52 <tud_task+0x332>
10006f0a:	e000      	b.n	10006f0e <tud_task+0x7ee>
10006f0c:	bf00      	nop
10006f0e:	0005      	movs	r5, r0
10006f10:	e69e      	b.n	10006c50 <tud_task+0x530>
10006f12:	4d02      	ldr	r5, [pc, #8]	; (10006f1c <tud_task+0x7fc>)
10006f14:	e7a8      	b.n	10006e68 <tud_task+0x748>
10006f16:	46c0      	nop			; (mov r8, r8)
10006f18:	20000474 	.word	0x20000474
10006f1c:	10005b89 	.word	0x10005b89
10006f20:	20000fa4 	.word	0x20000fa4
10006f24:	100076e1 	.word	0x100076e1
	...

10006f30 <dcd_event_bus_signal>:
10006f30:	b570      	push	{r4, r5, r6, lr}
10006f32:	b084      	sub	sp, #16
10006f34:	466b      	mov	r3, sp
10006f36:	0006      	movs	r6, r0
10006f38:	000c      	movs	r4, r1
10006f3a:	ad01      	add	r5, sp, #4
10006f3c:	220a      	movs	r2, #10
10006f3e:	2100      	movs	r1, #0
10006f40:	1d98      	adds	r0, r3, #6
10006f42:	f7fe fb5b 	bl	100055fc <__wrap_memset>
10006f46:	702e      	strb	r6, [r5, #0]
10006f48:	706c      	strb	r4, [r5, #1]
10006f4a:	2c03      	cmp	r4, #3
10006f4c:	d008      	beq.n	10006f60 <dcd_event_bus_signal+0x30>
10006f4e:	d91b      	bls.n	10006f88 <dcd_event_bus_signal+0x58>
10006f50:	2c04      	cmp	r4, #4
10006f52:	d007      	beq.n	10006f64 <dcd_event_bus_signal+0x34>
10006f54:	2c05      	cmp	r4, #5
10006f56:	d140      	bne.n	10006fda <dcd_event_bus_signal+0xaa>
10006f58:	4b2c      	ldr	r3, [pc, #176]	; (1000700c <dcd_event_bus_signal+0xdc>)
10006f5a:	781a      	ldrb	r2, [r3, #0]
10006f5c:	07d2      	lsls	r2, r2, #31
10006f5e:	d446      	bmi.n	10006fee <dcd_event_bus_signal+0xbe>
10006f60:	b004      	add	sp, #16
10006f62:	bd70      	pop	{r4, r5, r6, pc}
10006f64:	4b29      	ldr	r3, [pc, #164]	; (1000700c <dcd_event_bus_signal+0xdc>)
10006f66:	781a      	ldrb	r2, [r3, #0]
10006f68:	07d2      	lsls	r2, r2, #31
10006f6a:	d5f9      	bpl.n	10006f60 <dcd_event_bus_signal+0x30>
10006f6c:	2104      	movs	r1, #4
10006f6e:	781a      	ldrb	r2, [r3, #0]
10006f70:	430a      	orrs	r2, r1
10006f72:	701a      	strb	r2, [r3, #0]
10006f74:	4b26      	ldr	r3, [pc, #152]	; (10007010 <dcd_event_bus_signal+0xe0>)
10006f76:	681c      	ldr	r4, [r3, #0]
10006f78:	69a2      	ldr	r2, [r4, #24]
10006f7a:	f3ef 8110 	mrs	r1, PRIMASK
10006f7e:	b672      	cpsid	i
10006f80:	6813      	ldr	r3, [r2, #0]
10006f82:	2b00      	cmp	r3, #0
10006f84:	d119      	bne.n	10006fba <dcd_event_bus_signal+0x8a>
10006f86:	e7fb      	b.n	10006f80 <dcd_event_bus_signal+0x50>
10006f88:	2c02      	cmp	r4, #2
10006f8a:	d126      	bne.n	10006fda <dcd_event_bus_signal+0xaa>
10006f8c:	2101      	movs	r1, #1
10006f8e:	4b1f      	ldr	r3, [pc, #124]	; (1000700c <dcd_event_bus_signal+0xdc>)
10006f90:	781a      	ldrb	r2, [r3, #0]
10006f92:	438a      	bics	r2, r1
10006f94:	701a      	strb	r2, [r3, #0]
10006f96:	781a      	ldrb	r2, [r3, #0]
10006f98:	3103      	adds	r1, #3
10006f9a:	43a2      	bics	r2, r4
10006f9c:	701a      	strb	r2, [r3, #0]
10006f9e:	2200      	movs	r2, #0
10006fa0:	705a      	strb	r2, [r3, #1]
10006fa2:	781a      	ldrb	r2, [r3, #0]
10006fa4:	438a      	bics	r2, r1
10006fa6:	701a      	strb	r2, [r3, #0]
10006fa8:	4b19      	ldr	r3, [pc, #100]	; (10007010 <dcd_event_bus_signal+0xe0>)
10006faa:	681c      	ldr	r4, [r3, #0]
10006fac:	69a2      	ldr	r2, [r4, #24]
10006fae:	f3ef 8110 	mrs	r1, PRIMASK
10006fb2:	b672      	cpsid	i
10006fb4:	6813      	ldr	r3, [r2, #0]
10006fb6:	2b00      	cmp	r3, #0
10006fb8:	d0fc      	beq.n	10006fb4 <dcd_event_bus_signal+0x84>
10006fba:	f3bf 8f5f 	dmb	sy
10006fbe:	61e1      	str	r1, [r4, #28]
10006fc0:	0020      	movs	r0, r4
10006fc2:	0029      	movs	r1, r5
10006fc4:	f000 fe7e 	bl	10007cc4 <tu_fifo_write>
10006fc8:	69a2      	ldr	r2, [r4, #24]
10006fca:	69e3      	ldr	r3, [r4, #28]
10006fcc:	f3bf 8f5f 	dmb	sy
10006fd0:	2100      	movs	r1, #0
10006fd2:	6011      	str	r1, [r2, #0]
10006fd4:	f383 8810 	msr	PRIMASK, r3
10006fd8:	e7c2      	b.n	10006f60 <dcd_event_bus_signal+0x30>
10006fda:	4b0d      	ldr	r3, [pc, #52]	; (10007010 <dcd_event_bus_signal+0xe0>)
10006fdc:	681c      	ldr	r4, [r3, #0]
10006fde:	69a2      	ldr	r2, [r4, #24]
10006fe0:	f3ef 8110 	mrs	r1, PRIMASK
10006fe4:	b672      	cpsid	i
10006fe6:	6813      	ldr	r3, [r2, #0]
10006fe8:	2b00      	cmp	r3, #0
10006fea:	d1e6      	bne.n	10006fba <dcd_event_bus_signal+0x8a>
10006fec:	e7fb      	b.n	10006fe6 <dcd_event_bus_signal+0xb6>
10006fee:	2104      	movs	r1, #4
10006ff0:	781a      	ldrb	r2, [r3, #0]
10006ff2:	438a      	bics	r2, r1
10006ff4:	701a      	strb	r2, [r3, #0]
10006ff6:	4b06      	ldr	r3, [pc, #24]	; (10007010 <dcd_event_bus_signal+0xe0>)
10006ff8:	681c      	ldr	r4, [r3, #0]
10006ffa:	69a2      	ldr	r2, [r4, #24]
10006ffc:	f3ef 8110 	mrs	r1, PRIMASK
10007000:	b672      	cpsid	i
10007002:	6813      	ldr	r3, [r2, #0]
10007004:	2b00      	cmp	r3, #0
10007006:	d1d8      	bne.n	10006fba <dcd_event_bus_signal+0x8a>
10007008:	e7fb      	b.n	10007002 <dcd_event_bus_signal+0xd2>
1000700a:	46c0      	nop			; (mov r8, r8)
1000700c:	200007a4 	.word	0x200007a4
10007010:	200007e0 	.word	0x200007e0

10007014 <dcd_event_setup_received>:
10007014:	2300      	movs	r3, #0
10007016:	b530      	push	{r4, r5, lr}
10007018:	b085      	sub	sp, #20
1000701a:	ad01      	add	r5, sp, #4
1000701c:	806b      	strh	r3, [r5, #2]
1000701e:	7028      	strb	r0, [r5, #0]
10007020:	3306      	adds	r3, #6
10007022:	2208      	movs	r2, #8
10007024:	a802      	add	r0, sp, #8
10007026:	706b      	strb	r3, [r5, #1]
10007028:	f7fe faee 	bl	10005608 <__wrap___aeabi_memcpy>
1000702c:	4b0c      	ldr	r3, [pc, #48]	; (10007060 <dcd_event_setup_received+0x4c>)
1000702e:	681c      	ldr	r4, [r3, #0]
10007030:	69a2      	ldr	r2, [r4, #24]
10007032:	f3ef 8310 	mrs	r3, PRIMASK
10007036:	b672      	cpsid	i
10007038:	6811      	ldr	r1, [r2, #0]
1000703a:	2900      	cmp	r1, #0
1000703c:	d0fc      	beq.n	10007038 <dcd_event_setup_received+0x24>
1000703e:	f3bf 8f5f 	dmb	sy
10007042:	61e3      	str	r3, [r4, #28]
10007044:	0029      	movs	r1, r5
10007046:	0020      	movs	r0, r4
10007048:	f000 fe3c 	bl	10007cc4 <tu_fifo_write>
1000704c:	69a2      	ldr	r2, [r4, #24]
1000704e:	69e3      	ldr	r3, [r4, #28]
10007050:	f3bf 8f5f 	dmb	sy
10007054:	2100      	movs	r1, #0
10007056:	6011      	str	r1, [r2, #0]
10007058:	f383 8810 	msr	PRIMASK, r3
1000705c:	b005      	add	sp, #20
1000705e:	bd30      	pop	{r4, r5, pc}
10007060:	200007e0 	.word	0x200007e0

10007064 <dcd_event_xfer_complete>:
10007064:	b5f0      	push	{r4, r5, r6, r7, lr}
10007066:	46c6      	mov	lr, r8
10007068:	b500      	push	{lr}
1000706a:	b084      	sub	sp, #16
1000706c:	001d      	movs	r5, r3
1000706e:	466b      	mov	r3, sp
10007070:	4680      	mov	r8, r0
10007072:	000f      	movs	r7, r1
10007074:	0016      	movs	r6, r2
10007076:	2100      	movs	r1, #0
10007078:	2206      	movs	r2, #6
1000707a:	1d98      	adds	r0, r3, #6
1000707c:	f7fe fabe 	bl	100055fc <__wrap_memset>
10007080:	4643      	mov	r3, r8
10007082:	ac01      	add	r4, sp, #4
10007084:	7023      	strb	r3, [r4, #0]
10007086:	2307      	movs	r3, #7
10007088:	7063      	strb	r3, [r4, #1]
1000708a:	4b0f      	ldr	r3, [pc, #60]	; (100070c8 <dcd_event_xfer_complete+0x64>)
1000708c:	7165      	strb	r5, [r4, #5]
1000708e:	681d      	ldr	r5, [r3, #0]
10007090:	7127      	strb	r7, [r4, #4]
10007092:	60a6      	str	r6, [r4, #8]
10007094:	69aa      	ldr	r2, [r5, #24]
10007096:	f3ef 8310 	mrs	r3, PRIMASK
1000709a:	b672      	cpsid	i
1000709c:	6811      	ldr	r1, [r2, #0]
1000709e:	2900      	cmp	r1, #0
100070a0:	d0fc      	beq.n	1000709c <dcd_event_xfer_complete+0x38>
100070a2:	f3bf 8f5f 	dmb	sy
100070a6:	61eb      	str	r3, [r5, #28]
100070a8:	0021      	movs	r1, r4
100070aa:	0028      	movs	r0, r5
100070ac:	f000 fe0a 	bl	10007cc4 <tu_fifo_write>
100070b0:	69aa      	ldr	r2, [r5, #24]
100070b2:	69eb      	ldr	r3, [r5, #28]
100070b4:	f3bf 8f5f 	dmb	sy
100070b8:	2100      	movs	r1, #0
100070ba:	6011      	str	r1, [r2, #0]
100070bc:	f383 8810 	msr	PRIMASK, r3
100070c0:	b004      	add	sp, #16
100070c2:	bc04      	pop	{r2}
100070c4:	4690      	mov	r8, r2
100070c6:	bdf0      	pop	{r4, r5, r6, r7, pc}
100070c8:	200007e0 	.word	0x200007e0

100070cc <usbd_open_edpt_pair>:
100070cc:	b5f0      	push	{r4, r5, r6, r7, lr}
100070ce:	46d6      	mov	lr, sl
100070d0:	000c      	movs	r4, r1
100070d2:	b500      	push	{lr}
100070d4:	4682      	mov	sl, r0
100070d6:	2a00      	cmp	r2, #0
100070d8:	d029      	beq.n	1000712e <usbd_open_edpt_pair+0x62>
100070da:	7849      	ldrb	r1, [r1, #1]
100070dc:	2905      	cmp	r1, #5
100070de:	d128      	bne.n	10007132 <usbd_open_edpt_pair+0x66>
100070e0:	78e1      	ldrb	r1, [r4, #3]
100070e2:	0789      	lsls	r1, r1, #30
100070e4:	0f8d      	lsrs	r5, r1, #30
100070e6:	42ab      	cmp	r3, r5
100070e8:	d123      	bne.n	10007132 <usbd_open_edpt_pair+0x66>
100070ea:	1e56      	subs	r6, r2, #1
100070ec:	2700      	movs	r7, #0
100070ee:	e00e      	b.n	1000710e <usbd_open_edpt_pair+0x42>
100070f0:	9a06      	ldr	r2, [sp, #24]
100070f2:	7013      	strb	r3, [r2, #0]
100070f4:	7823      	ldrb	r3, [r4, #0]
100070f6:	18e4      	adds	r4, r4, r3
100070f8:	42b7      	cmp	r7, r6
100070fa:	d018      	beq.n	1000712e <usbd_open_edpt_pair+0x62>
100070fc:	7863      	ldrb	r3, [r4, #1]
100070fe:	2b05      	cmp	r3, #5
10007100:	d117      	bne.n	10007132 <usbd_open_edpt_pair+0x66>
10007102:	78e3      	ldrb	r3, [r4, #3]
10007104:	3701      	adds	r7, #1
10007106:	079b      	lsls	r3, r3, #30
10007108:	0f9b      	lsrs	r3, r3, #30
1000710a:	42ab      	cmp	r3, r5
1000710c:	d111      	bne.n	10007132 <usbd_open_edpt_pair+0x66>
1000710e:	0021      	movs	r1, r4
10007110:	4650      	mov	r0, sl
10007112:	f7fe ffc7 	bl	100060a4 <dcd_edpt_open>
10007116:	2800      	cmp	r0, #0
10007118:	d00b      	beq.n	10007132 <usbd_open_edpt_pair+0x66>
1000711a:	78a3      	ldrb	r3, [r4, #2]
1000711c:	09da      	lsrs	r2, r3, #7
1000711e:	2a01      	cmp	r2, #1
10007120:	d1e6      	bne.n	100070f0 <usbd_open_edpt_pair+0x24>
10007122:	9a07      	ldr	r2, [sp, #28]
10007124:	7013      	strb	r3, [r2, #0]
10007126:	7823      	ldrb	r3, [r4, #0]
10007128:	18e4      	adds	r4, r4, r3
1000712a:	42b7      	cmp	r7, r6
1000712c:	d1e6      	bne.n	100070fc <usbd_open_edpt_pair+0x30>
1000712e:	2001      	movs	r0, #1
10007130:	e000      	b.n	10007134 <usbd_open_edpt_pair+0x68>
10007132:	2000      	movs	r0, #0
10007134:	bc04      	pop	{r2}
10007136:	4692      	mov	sl, r2
10007138:	bdf0      	pop	{r4, r5, r6, r7, pc}
1000713a:	46c0      	nop			; (mov r8, r8)

1000713c <usbd_edpt_open>:
1000713c:	b510      	push	{r4, lr}
1000713e:	f7fe ffb1 	bl	100060a4 <dcd_edpt_open>
10007142:	bd10      	pop	{r4, pc}

10007144 <usbd_edpt_claim>:
10007144:	237f      	movs	r3, #127	; 0x7f
10007146:	b570      	push	{r4, r5, r6, lr}
10007148:	400b      	ands	r3, r1
1000714a:	4c13      	ldr	r4, [pc, #76]	; (10007198 <usbd_edpt_claim+0x54>)
1000714c:	005b      	lsls	r3, r3, #1
1000714e:	09c9      	lsrs	r1, r1, #7
10007150:	18e4      	adds	r4, r4, r3
10007152:	1864      	adds	r4, r4, r1
10007154:	3420      	adds	r4, #32
10007156:	7965      	ldrb	r5, [r4, #5]
10007158:	07ed      	lsls	r5, r5, #31
1000715a:	0fed      	lsrs	r5, r5, #31
1000715c:	d104      	bne.n	10007168 <usbd_edpt_claim+0x24>
1000715e:	7963      	ldrb	r3, [r4, #5]
10007160:	075b      	lsls	r3, r3, #29
10007162:	d503      	bpl.n	1000716c <usbd_edpt_claim+0x28>
10007164:	0028      	movs	r0, r5
10007166:	bd70      	pop	{r4, r5, r6, pc}
10007168:	2500      	movs	r5, #0
1000716a:	e7fb      	b.n	10007164 <usbd_edpt_claim+0x20>
1000716c:	2101      	movs	r1, #1
1000716e:	4e0b      	ldr	r6, [pc, #44]	; (1000719c <usbd_edpt_claim+0x58>)
10007170:	4249      	negs	r1, r1
10007172:	6830      	ldr	r0, [r6, #0]
10007174:	f000 feec 	bl	10007f50 <__mutex_enter_timeout_ms_veneer>
10007178:	7963      	ldrb	r3, [r4, #5]
1000717a:	07db      	lsls	r3, r3, #31
1000717c:	d407      	bmi.n	1000718e <usbd_edpt_claim+0x4a>
1000717e:	7963      	ldrb	r3, [r4, #5]
10007180:	075b      	lsls	r3, r3, #29
10007182:	d404      	bmi.n	1000718e <usbd_edpt_claim+0x4a>
10007184:	2204      	movs	r2, #4
10007186:	2501      	movs	r5, #1
10007188:	7963      	ldrb	r3, [r4, #5]
1000718a:	4313      	orrs	r3, r2
1000718c:	7163      	strb	r3, [r4, #5]
1000718e:	6830      	ldr	r0, [r6, #0]
10007190:	f000 febe 	bl	10007f10 <__mutex_exit_veneer>
10007194:	e7e6      	b.n	10007164 <usbd_edpt_claim+0x20>
10007196:	46c0      	nop			; (mov r8, r8)
10007198:	200007a4 	.word	0x200007a4
1000719c:	200007dc 	.word	0x200007dc

100071a0 <usbd_edpt_release>:
100071a0:	b570      	push	{r4, r5, r6, lr}
100071a2:	000d      	movs	r5, r1
100071a4:	2101      	movs	r1, #1
100071a6:	4c0f      	ldr	r4, [pc, #60]	; (100071e4 <usbd_edpt_release+0x44>)
100071a8:	4249      	negs	r1, r1
100071aa:	6820      	ldr	r0, [r4, #0]
100071ac:	f000 fed0 	bl	10007f50 <__mutex_enter_timeout_ms_veneer>
100071b0:	217f      	movs	r1, #127	; 0x7f
100071b2:	4029      	ands	r1, r5
100071b4:	004b      	lsls	r3, r1, #1
100071b6:	490c      	ldr	r1, [pc, #48]	; (100071e8 <usbd_edpt_release+0x48>)
100071b8:	09ed      	lsrs	r5, r5, #7
100071ba:	18c9      	adds	r1, r1, r3
100071bc:	1949      	adds	r1, r1, r5
100071be:	3120      	adds	r1, #32
100071c0:	794b      	ldrb	r3, [r1, #5]
100071c2:	2500      	movs	r5, #0
100071c4:	07db      	lsls	r3, r3, #31
100071c6:	d407      	bmi.n	100071d8 <usbd_edpt_release+0x38>
100071c8:	794b      	ldrb	r3, [r1, #5]
100071ca:	075b      	lsls	r3, r3, #29
100071cc:	d504      	bpl.n	100071d8 <usbd_edpt_release+0x38>
100071ce:	2204      	movs	r2, #4
100071d0:	794b      	ldrb	r3, [r1, #5]
100071d2:	3501      	adds	r5, #1
100071d4:	4393      	bics	r3, r2
100071d6:	714b      	strb	r3, [r1, #5]
100071d8:	6820      	ldr	r0, [r4, #0]
100071da:	f000 fe99 	bl	10007f10 <__mutex_exit_veneer>
100071de:	0028      	movs	r0, r5
100071e0:	bd70      	pop	{r4, r5, r6, pc}
100071e2:	46c0      	nop			; (mov r8, r8)
100071e4:	200007dc 	.word	0x200007dc
100071e8:	200007a4 	.word	0x200007a4

100071ec <usbd_edpt_xfer>:
100071ec:	b570      	push	{r4, r5, r6, lr}
100071ee:	247f      	movs	r4, #127	; 0x7f
100071f0:	400c      	ands	r4, r1
100071f2:	0065      	lsls	r5, r4, #1
100071f4:	4c0e      	ldr	r4, [pc, #56]	; (10007230 <usbd_edpt_xfer+0x44>)
100071f6:	0006      	movs	r6, r0
100071f8:	1964      	adds	r4, r4, r5
100071fa:	09c8      	lsrs	r0, r1, #7
100071fc:	1824      	adds	r4, r4, r0
100071fe:	3420      	adds	r4, #32
10007200:	7965      	ldrb	r5, [r4, #5]
10007202:	2000      	movs	r0, #0
10007204:	07ed      	lsls	r5, r5, #31
10007206:	d500      	bpl.n	1000720a <usbd_edpt_xfer+0x1e>
10007208:	bd70      	pop	{r4, r5, r6, pc}
1000720a:	2501      	movs	r5, #1
1000720c:	7960      	ldrb	r0, [r4, #5]
1000720e:	4328      	orrs	r0, r5
10007210:	7160      	strb	r0, [r4, #5]
10007212:	0030      	movs	r0, r6
10007214:	f7fe ffee 	bl	100061f4 <dcd_edpt_xfer>
10007218:	2800      	cmp	r0, #0
1000721a:	d1f5      	bne.n	10007208 <usbd_edpt_xfer+0x1c>
1000721c:	2201      	movs	r2, #1
1000721e:	7963      	ldrb	r3, [r4, #5]
10007220:	4393      	bics	r3, r2
10007222:	7163      	strb	r3, [r4, #5]
10007224:	7963      	ldrb	r3, [r4, #5]
10007226:	3203      	adds	r2, #3
10007228:	4393      	bics	r3, r2
1000722a:	7163      	strb	r3, [r4, #5]
1000722c:	e7ec      	b.n	10007208 <usbd_edpt_xfer+0x1c>
1000722e:	46c0      	nop			; (mov r8, r8)
10007230:	200007a4 	.word	0x200007a4

10007234 <tud_control_status>:
10007234:	b570      	push	{r4, r5, r6, lr}
10007236:	4c0a      	ldr	r4, [pc, #40]	; (10007260 <tud_control_status+0x2c>)
10007238:	0006      	movs	r6, r0
1000723a:	2208      	movs	r2, #8
1000723c:	0020      	movs	r0, r4
1000723e:	000d      	movs	r5, r1
10007240:	f7fe f9e2 	bl	10005608 <__wrap___aeabi_memcpy>
10007244:	2300      	movs	r3, #0
10007246:	2100      	movs	r1, #0
10007248:	60a3      	str	r3, [r4, #8]
1000724a:	60e3      	str	r3, [r4, #12]
1000724c:	5669      	ldrsb	r1, [r5, r1]
1000724e:	0030      	movs	r0, r6
10007250:	43c9      	mvns	r1, r1
10007252:	0fc9      	lsrs	r1, r1, #31
10007254:	01c9      	lsls	r1, r1, #7
10007256:	2200      	movs	r2, #0
10007258:	f7fe ffcc 	bl	100061f4 <dcd_edpt_xfer>
1000725c:	bd70      	pop	{r4, r5, r6, pc}
1000725e:	46c0      	nop			; (mov r8, r8)
10007260:	20000748 	.word	0x20000748

10007264 <tud_control_xfer>:
10007264:	b5f0      	push	{r4, r5, r6, r7, lr}
10007266:	46c6      	mov	lr, r8
10007268:	4690      	mov	r8, r2
1000726a:	4c29      	ldr	r4, [pc, #164]	; (10007310 <tud_control_xfer+0xac>)
1000726c:	2208      	movs	r2, #8
1000726e:	b500      	push	{lr}
10007270:	0006      	movs	r6, r0
10007272:	0020      	movs	r0, r4
10007274:	000d      	movs	r5, r1
10007276:	001f      	movs	r7, r3
10007278:	f7fe f9c6 	bl	10005608 <__wrap___aeabi_memcpy>
1000727c:	4643      	mov	r3, r8
1000727e:	60a3      	str	r3, [r4, #8]
10007280:	2300      	movs	r3, #0
10007282:	81e3      	strh	r3, [r4, #14]
10007284:	79eb      	ldrb	r3, [r5, #7]
10007286:	79aa      	ldrb	r2, [r5, #6]
10007288:	021b      	lsls	r3, r3, #8
1000728a:	4313      	orrs	r3, r2
1000728c:	1c1a      	adds	r2, r3, #0
1000728e:	42bb      	cmp	r3, r7
10007290:	d900      	bls.n	10007294 <tud_control_xfer+0x30>
10007292:	1c3a      	adds	r2, r7, #0
10007294:	b297      	uxth	r7, r2
10007296:	81a2      	strh	r2, [r4, #12]
10007298:	2b00      	cmp	r3, #0
1000729a:	d012      	beq.n	100072c2 <tud_control_xfer+0x5e>
1000729c:	2f00      	cmp	r7, #0
1000729e:	d01d      	beq.n	100072dc <tud_control_xfer+0x78>
100072a0:	4643      	mov	r3, r8
100072a2:	2b00      	cmp	r3, #0
100072a4:	d02e      	beq.n	10007304 <tud_control_xfer+0xa0>
100072a6:	1c3b      	adds	r3, r7, #0
100072a8:	2f40      	cmp	r7, #64	; 0x40
100072aa:	d81d      	bhi.n	100072e8 <tud_control_xfer+0x84>
100072ac:	b29f      	uxth	r7, r3
100072ae:	7823      	ldrb	r3, [r4, #0]
100072b0:	2b7f      	cmp	r3, #127	; 0x7f
100072b2:	d81e      	bhi.n	100072f2 <tud_control_xfer+0x8e>
100072b4:	2100      	movs	r1, #0
100072b6:	4a17      	ldr	r2, [pc, #92]	; (10007314 <tud_control_xfer+0xb0>)
100072b8:	003b      	movs	r3, r7
100072ba:	0030      	movs	r0, r6
100072bc:	f7fe ff9a 	bl	100061f4 <dcd_edpt_xfer>
100072c0:	e009      	b.n	100072d6 <tud_control_xfer+0x72>
100072c2:	2100      	movs	r1, #0
100072c4:	5669      	ldrsb	r1, [r5, r1]
100072c6:	2300      	movs	r3, #0
100072c8:	43c9      	mvns	r1, r1
100072ca:	0fc9      	lsrs	r1, r1, #31
100072cc:	01c9      	lsls	r1, r1, #7
100072ce:	2200      	movs	r2, #0
100072d0:	0030      	movs	r0, r6
100072d2:	f7fe ff8f 	bl	100061f4 <dcd_edpt_xfer>
100072d6:	bc04      	pop	{r2}
100072d8:	4690      	mov	r8, r2
100072da:	bdf0      	pop	{r4, r5, r6, r7, pc}
100072dc:	7823      	ldrb	r3, [r4, #0]
100072de:	2b7f      	cmp	r3, #127	; 0x7f
100072e0:	d812      	bhi.n	10007308 <tud_control_xfer+0xa4>
100072e2:	2100      	movs	r1, #0
100072e4:	2200      	movs	r2, #0
100072e6:	e7e7      	b.n	100072b8 <tud_control_xfer+0x54>
100072e8:	2340      	movs	r3, #64	; 0x40
100072ea:	b29f      	uxth	r7, r3
100072ec:	7823      	ldrb	r3, [r4, #0]
100072ee:	2b7f      	cmp	r3, #127	; 0x7f
100072f0:	d9e0      	bls.n	100072b4 <tud_control_xfer+0x50>
100072f2:	4c08      	ldr	r4, [pc, #32]	; (10007314 <tud_control_xfer+0xb0>)
100072f4:	003a      	movs	r2, r7
100072f6:	4641      	mov	r1, r8
100072f8:	0020      	movs	r0, r4
100072fa:	f7fe f985 	bl	10005608 <__wrap___aeabi_memcpy>
100072fe:	2180      	movs	r1, #128	; 0x80
10007300:	0022      	movs	r2, r4
10007302:	e7d9      	b.n	100072b8 <tud_control_xfer+0x54>
10007304:	2000      	movs	r0, #0
10007306:	e7e6      	b.n	100072d6 <tud_control_xfer+0x72>
10007308:	2180      	movs	r1, #128	; 0x80
1000730a:	2200      	movs	r2, #0
1000730c:	e7d4      	b.n	100072b8 <tud_control_xfer+0x54>
1000730e:	46c0      	nop			; (mov r8, r8)
10007310:	20000748 	.word	0x20000748
10007314:	20000764 	.word	0x20000764

10007318 <usbd_control_reset>:
10007318:	b510      	push	{r4, lr}
1000731a:	2214      	movs	r2, #20
1000731c:	2100      	movs	r1, #0
1000731e:	4802      	ldr	r0, [pc, #8]	; (10007328 <usbd_control_reset+0x10>)
10007320:	f7fe f96c 	bl	100055fc <__wrap_memset>
10007324:	bd10      	pop	{r4, pc}
10007326:	46c0      	nop			; (mov r8, r8)
10007328:	20000748 	.word	0x20000748

1000732c <usbd_control_set_complete_callback>:
1000732c:	4b01      	ldr	r3, [pc, #4]	; (10007334 <usbd_control_set_complete_callback+0x8>)
1000732e:	6118      	str	r0, [r3, #16]
10007330:	4770      	bx	lr
10007332:	46c0      	nop			; (mov r8, r8)
10007334:	20000748 	.word	0x20000748

10007338 <usbd_control_set_request>:
10007338:	b510      	push	{r4, lr}
1000733a:	4c05      	ldr	r4, [pc, #20]	; (10007350 <usbd_control_set_request+0x18>)
1000733c:	0001      	movs	r1, r0
1000733e:	2208      	movs	r2, #8
10007340:	0020      	movs	r0, r4
10007342:	f7fe f961 	bl	10005608 <__wrap___aeabi_memcpy>
10007346:	2300      	movs	r3, #0
10007348:	60a3      	str	r3, [r4, #8]
1000734a:	60e3      	str	r3, [r4, #12]
1000734c:	bd10      	pop	{r4, pc}
1000734e:	46c0      	nop			; (mov r8, r8)
10007350:	20000748 	.word	0x20000748

10007354 <usbd_control_xfer_cb>:
10007354:	b5f8      	push	{r3, r4, r5, r6, r7, lr}
10007356:	4c37      	ldr	r4, [pc, #220]	; (10007434 <usbd_control_xfer_cb+0xe0>)
10007358:	001e      	movs	r6, r3
1000735a:	7823      	ldrb	r3, [r4, #0]
1000735c:	0007      	movs	r7, r0
1000735e:	09da      	lsrs	r2, r3, #7
10007360:	09c9      	lsrs	r1, r1, #7
10007362:	428a      	cmp	r2, r1
10007364:	d00b      	beq.n	1000737e <usbd_control_xfer_cb+0x2a>
10007366:	2500      	movs	r5, #0
10007368:	2e00      	cmp	r6, #0
1000736a:	d106      	bne.n	1000737a <usbd_control_xfer_cb+0x26>
1000736c:	4b32      	ldr	r3, [pc, #200]	; (10007438 <usbd_control_xfer_cb+0xe4>)
1000736e:	3501      	adds	r5, #1
10007370:	2b00      	cmp	r3, #0
10007372:	d002      	beq.n	1000737a <usbd_control_xfer_cb+0x26>
10007374:	0021      	movs	r1, r4
10007376:	f7fe fe79 	bl	1000606c <dcd_edpt0_status_complete>
1000737a:	0028      	movs	r0, r5
1000737c:	bdf8      	pop	{r3, r4, r5, r6, r7, pc}
1000737e:	68a0      	ldr	r0, [r4, #8]
10007380:	2b7f      	cmp	r3, #127	; 0x7f
10007382:	d807      	bhi.n	10007394 <usbd_control_xfer_cb+0x40>
10007384:	2500      	movs	r5, #0
10007386:	2800      	cmp	r0, #0
10007388:	d0f7      	beq.n	1000737a <usbd_control_xfer_cb+0x26>
1000738a:	0032      	movs	r2, r6
1000738c:	492b      	ldr	r1, [pc, #172]	; (1000743c <usbd_control_xfer_cb+0xe8>)
1000738e:	f7fe f93b 	bl	10005608 <__wrap___aeabi_memcpy>
10007392:	68a0      	ldr	r0, [r4, #8]
10007394:	89e2      	ldrh	r2, [r4, #14]
10007396:	88e3      	ldrh	r3, [r4, #6]
10007398:	1992      	adds	r2, r2, r6
1000739a:	b292      	uxth	r2, r2
1000739c:	1980      	adds	r0, r0, r6
1000739e:	81e2      	strh	r2, [r4, #14]
100073a0:	60a0      	str	r0, [r4, #8]
100073a2:	4293      	cmp	r3, r2
100073a4:	d001      	beq.n	100073aa <usbd_control_xfer_cb+0x56>
100073a6:	2e3f      	cmp	r6, #63	; 0x3f
100073a8:	d813      	bhi.n	100073d2 <usbd_control_xfer_cb+0x7e>
100073aa:	6923      	ldr	r3, [r4, #16]
100073ac:	2b00      	cmp	r3, #0
100073ae:	d004      	beq.n	100073ba <usbd_control_xfer_cb+0x66>
100073b0:	0021      	movs	r1, r4
100073b2:	0038      	movs	r0, r7
100073b4:	4798      	blx	r3
100073b6:	2800      	cmp	r0, #0
100073b8:	d01f      	beq.n	100073fa <usbd_control_xfer_cb+0xa6>
100073ba:	2100      	movs	r1, #0
100073bc:	5661      	ldrsb	r1, [r4, r1]
100073be:	2300      	movs	r3, #0
100073c0:	43c9      	mvns	r1, r1
100073c2:	0fc9      	lsrs	r1, r1, #31
100073c4:	01c9      	lsls	r1, r1, #7
100073c6:	2200      	movs	r2, #0
100073c8:	0038      	movs	r0, r7
100073ca:	f7fe ff13 	bl	100061f4 <dcd_edpt_xfer>
100073ce:	0005      	movs	r5, r0
100073d0:	e7d3      	b.n	1000737a <usbd_control_xfer_cb+0x26>
100073d2:	89a5      	ldrh	r5, [r4, #12]
100073d4:	1aa9      	subs	r1, r5, r2
100073d6:	1c0e      	adds	r6, r1, #0
100073d8:	b289      	uxth	r1, r1
100073da:	2940      	cmp	r1, #64	; 0x40
100073dc:	d817      	bhi.n	1000740e <usbd_control_xfer_cb+0xba>
100073de:	7823      	ldrb	r3, [r4, #0]
100073e0:	b2b6      	uxth	r6, r6
100073e2:	2b7f      	cmp	r3, #127	; 0x7f
100073e4:	d815      	bhi.n	10007412 <usbd_control_xfer_cb+0xbe>
100073e6:	2100      	movs	r1, #0
100073e8:	42aa      	cmp	r2, r5
100073ea:	d01d      	beq.n	10007428 <usbd_control_xfer_cb+0xd4>
100073ec:	4a13      	ldr	r2, [pc, #76]	; (1000743c <usbd_control_xfer_cb+0xe8>)
100073ee:	0033      	movs	r3, r6
100073f0:	0038      	movs	r0, r7
100073f2:	f7fe feff 	bl	100061f4 <dcd_edpt_xfer>
100073f6:	0005      	movs	r5, r0
100073f8:	e7bf      	b.n	1000737a <usbd_control_xfer_cb+0x26>
100073fa:	2100      	movs	r1, #0
100073fc:	0038      	movs	r0, r7
100073fe:	f7fe ff0f 	bl	10006220 <dcd_edpt_stall>
10007402:	2180      	movs	r1, #128	; 0x80
10007404:	0038      	movs	r0, r7
10007406:	f7fe ff0b 	bl	10006220 <dcd_edpt_stall>
1000740a:	2501      	movs	r5, #1
1000740c:	e7b5      	b.n	1000737a <usbd_control_xfer_cb+0x26>
1000740e:	2640      	movs	r6, #64	; 0x40
10007410:	e7e5      	b.n	100073de <usbd_control_xfer_cb+0x8a>
10007412:	42aa      	cmp	r2, r5
10007414:	d00a      	beq.n	1000742c <usbd_control_xfer_cb+0xd8>
10007416:	4c09      	ldr	r4, [pc, #36]	; (1000743c <usbd_control_xfer_cb+0xe8>)
10007418:	0001      	movs	r1, r0
1000741a:	0032      	movs	r2, r6
1000741c:	0020      	movs	r0, r4
1000741e:	f7fe f8f3 	bl	10005608 <__wrap___aeabi_memcpy>
10007422:	2180      	movs	r1, #128	; 0x80
10007424:	0022      	movs	r2, r4
10007426:	e7e2      	b.n	100073ee <usbd_control_xfer_cb+0x9a>
10007428:	2200      	movs	r2, #0
1000742a:	e7e0      	b.n	100073ee <usbd_control_xfer_cb+0x9a>
1000742c:	2180      	movs	r1, #128	; 0x80
1000742e:	2200      	movs	r2, #0
10007430:	e7dd      	b.n	100073ee <usbd_control_xfer_cb+0x9a>
10007432:	46c0      	nop			; (mov r8, r8)
10007434:	20000748 	.word	0x20000748
10007438:	1000606d 	.word	0x1000606d
1000743c:	20000764 	.word	0x20000764

10007440 <tud_cdc_n_connected>:
10007440:	b510      	push	{r4, lr}
10007442:	0004      	movs	r4, r0
10007444:	f7ff f900 	bl	10006648 <tud_mounted>
10007448:	2800      	cmp	r0, #0
1000744a:	d101      	bne.n	10007450 <tud_cdc_n_connected+0x10>
1000744c:	2000      	movs	r0, #0
1000744e:	bd10      	pop	{r4, pc}
10007450:	f7ff f902 	bl	10006658 <tud_suspended>
10007454:	2800      	cmp	r0, #0
10007456:	d1f9      	bne.n	1000744c <tud_cdc_n_connected+0xc>
10007458:	0060      	lsls	r0, r4, #1
1000745a:	1900      	adds	r0, r0, r4
1000745c:	0103      	lsls	r3, r0, #4
1000745e:	1a18      	subs	r0, r3, r0
10007460:	4b03      	ldr	r3, [pc, #12]	; (10007470 <tud_cdc_n_connected+0x30>)
10007462:	0100      	lsls	r0, r0, #4
10007464:	1818      	adds	r0, r3, r0
10007466:	7903      	ldrb	r3, [r0, #4]
10007468:	2001      	movs	r0, #1
1000746a:	4018      	ands	r0, r3
1000746c:	e7ef      	b.n	1000744e <tud_cdc_n_connected+0xe>
1000746e:	46c0      	nop			; (mov r8, r8)
10007470:	20000478 	.word	0x20000478

10007474 <tud_cdc_n_available>:
10007474:	0003      	movs	r3, r0
10007476:	0040      	lsls	r0, r0, #1
10007478:	18c0      	adds	r0, r0, r3
1000747a:	b510      	push	{r4, lr}
1000747c:	0103      	lsls	r3, r0, #4
1000747e:	1a18      	subs	r0, r3, r0
10007480:	0100      	lsls	r0, r0, #4
10007482:	4b03      	ldr	r3, [pc, #12]	; (10007490 <tud_cdc_n_available+0x1c>)
10007484:	3010      	adds	r0, #16
10007486:	18c0      	adds	r0, r0, r3
10007488:	f000 fb2c 	bl	10007ae4 <tu_fifo_count>
1000748c:	bd10      	pop	{r4, pc}
1000748e:	46c0      	nop			; (mov r8, r8)
10007490:	20000478 	.word	0x20000478

10007494 <tud_cdc_n_read>:
10007494:	b5f0      	push	{r4, r5, r6, r7, lr}
10007496:	0044      	lsls	r4, r0, #1
10007498:	1820      	adds	r0, r4, r0
1000749a:	0104      	lsls	r4, r0, #4
1000749c:	1a24      	subs	r4, r4, r0
1000749e:	0124      	lsls	r4, r4, #4
100074a0:	0025      	movs	r5, r4
100074a2:	46c6      	mov	lr, r8
100074a4:	4e17      	ldr	r6, [pc, #92]	; (10007504 <tud_cdc_n_read+0x70>)
100074a6:	3510      	adds	r5, #16
100074a8:	19ad      	adds	r5, r5, r6
100074aa:	b500      	push	{lr}
100074ac:	b292      	uxth	r2, r2
100074ae:	0028      	movs	r0, r5
100074b0:	f000 fb8c 	bl	10007bcc <tu_fifo_read_n>
100074b4:	0007      	movs	r7, r0
100074b6:	0028      	movs	r0, r5
100074b8:	f000 fb22 	bl	10007b00 <tu_fifo_remaining>
100074bc:	283f      	cmp	r0, #63	; 0x3f
100074be:	d803      	bhi.n	100074c8 <tud_cdc_n_read+0x34>
100074c0:	0038      	movs	r0, r7
100074c2:	bc04      	pop	{r2}
100074c4:	4690      	mov	r8, r2
100074c6:	bdf0      	pop	{r4, r5, r6, r7, pc}
100074c8:	1933      	adds	r3, r6, r4
100074ca:	78d9      	ldrb	r1, [r3, #3]
100074cc:	2000      	movs	r0, #0
100074ce:	4698      	mov	r8, r3
100074d0:	f7ff fe38 	bl	10007144 <usbd_edpt_claim>
100074d4:	2800      	cmp	r0, #0
100074d6:	d0f3      	beq.n	100074c0 <tud_cdc_n_read+0x2c>
100074d8:	0028      	movs	r0, r5
100074da:	f000 fb11 	bl	10007b00 <tu_fifo_remaining>
100074de:	283f      	cmp	r0, #63	; 0x3f
100074e0:	d805      	bhi.n	100074ee <tud_cdc_n_read+0x5a>
100074e2:	4643      	mov	r3, r8
100074e4:	2000      	movs	r0, #0
100074e6:	78d9      	ldrb	r1, [r3, #3]
100074e8:	f7ff fe5a 	bl	100071a0 <usbd_edpt_release>
100074ec:	e7e8      	b.n	100074c0 <tud_cdc_n_read+0x2c>
100074ee:	2394      	movs	r3, #148	; 0x94
100074f0:	009b      	lsls	r3, r3, #2
100074f2:	18e2      	adds	r2, r4, r3
100074f4:	4643      	mov	r3, r8
100074f6:	1992      	adds	r2, r2, r6
100074f8:	78d9      	ldrb	r1, [r3, #3]
100074fa:	2000      	movs	r0, #0
100074fc:	2340      	movs	r3, #64	; 0x40
100074fe:	f7ff fe75 	bl	100071ec <usbd_edpt_xfer>
10007502:	e7dd      	b.n	100074c0 <tud_cdc_n_read+0x2c>
10007504:	20000478 	.word	0x20000478

10007508 <tud_cdc_n_write>:
10007508:	b5f0      	push	{r4, r5, r6, r7, lr}
1000750a:	0044      	lsls	r4, r0, #1
1000750c:	1820      	adds	r0, r4, r0
1000750e:	0104      	lsls	r4, r0, #4
10007510:	1a24      	subs	r4, r4, r0
10007512:	0124      	lsls	r4, r4, #4
10007514:	0025      	movs	r5, r4
10007516:	46c6      	mov	lr, r8
10007518:	4e21      	ldr	r6, [pc, #132]	; (100075a0 <tud_cdc_n_write+0x98>)
1000751a:	3528      	adds	r5, #40	; 0x28
1000751c:	19ad      	adds	r5, r5, r6
1000751e:	b500      	push	{lr}
10007520:	b292      	uxth	r2, r2
10007522:	0028      	movs	r0, r5
10007524:	f000 fc12 	bl	10007d4c <tu_fifo_write_n>
10007528:	0007      	movs	r7, r0
1000752a:	0028      	movs	r0, r5
1000752c:	f000 fada 	bl	10007ae4 <tu_fifo_count>
10007530:	283f      	cmp	r0, #63	; 0x3f
10007532:	d803      	bhi.n	1000753c <tud_cdc_n_write+0x34>
10007534:	0038      	movs	r0, r7
10007536:	bc04      	pop	{r2}
10007538:	4690      	mov	r8, r2
1000753a:	bdf0      	pop	{r4, r5, r6, r7, pc}
1000753c:	0028      	movs	r0, r5
1000753e:	f000 fad1 	bl	10007ae4 <tu_fifo_count>
10007542:	2800      	cmp	r0, #0
10007544:	d0f6      	beq.n	10007534 <tud_cdc_n_write+0x2c>
10007546:	1933      	adds	r3, r6, r4
10007548:	7899      	ldrb	r1, [r3, #2]
1000754a:	2000      	movs	r0, #0
1000754c:	4698      	mov	r8, r3
1000754e:	f7ff fdf9 	bl	10007144 <usbd_edpt_claim>
10007552:	2800      	cmp	r0, #0
10007554:	d0ee      	beq.n	10007534 <tud_cdc_n_write+0x2c>
10007556:	23a4      	movs	r3, #164	; 0xa4
10007558:	009b      	lsls	r3, r3, #2
1000755a:	469c      	mov	ip, r3
1000755c:	4464      	add	r4, ip
1000755e:	19a4      	adds	r4, r4, r6
10007560:	0028      	movs	r0, r5
10007562:	2240      	movs	r2, #64	; 0x40
10007564:	0021      	movs	r1, r4
10007566:	f000 fb31 	bl	10007bcc <tu_fifo_read_n>
1000756a:	1e05      	subs	r5, r0, #0
1000756c:	d003      	beq.n	10007576 <tud_cdc_n_write+0x6e>
1000756e:	f7ff f86b 	bl	10006648 <tud_mounted>
10007572:	2800      	cmp	r0, #0
10007574:	d105      	bne.n	10007582 <tud_cdc_n_write+0x7a>
10007576:	4643      	mov	r3, r8
10007578:	7899      	ldrb	r1, [r3, #2]
1000757a:	2000      	movs	r0, #0
1000757c:	f7ff fe10 	bl	100071a0 <usbd_edpt_release>
10007580:	e7d8      	b.n	10007534 <tud_cdc_n_write+0x2c>
10007582:	f7ff f869 	bl	10006658 <tud_suspended>
10007586:	4643      	mov	r3, r8
10007588:	7899      	ldrb	r1, [r3, #2]
1000758a:	2800      	cmp	r0, #0
1000758c:	d1f5      	bne.n	1000757a <tud_cdc_n_write+0x72>
1000758e:	791b      	ldrb	r3, [r3, #4]
10007590:	07db      	lsls	r3, r3, #31
10007592:	d5f2      	bpl.n	1000757a <tud_cdc_n_write+0x72>
10007594:	002b      	movs	r3, r5
10007596:	0022      	movs	r2, r4
10007598:	2000      	movs	r0, #0
1000759a:	f7ff fe27 	bl	100071ec <usbd_edpt_xfer>
1000759e:	e7c9      	b.n	10007534 <tud_cdc_n_write+0x2c>
100075a0:	20000478 	.word	0x20000478

100075a4 <tud_cdc_n_write_flush>:
100075a4:	b5f8      	push	{r3, r4, r5, r6, r7, lr}
100075a6:	0044      	lsls	r4, r0, #1
100075a8:	1820      	adds	r0, r4, r0
100075aa:	0104      	lsls	r4, r0, #4
100075ac:	1a24      	subs	r4, r4, r0
100075ae:	0124      	lsls	r4, r4, #4
100075b0:	0025      	movs	r5, r4
100075b2:	4e1b      	ldr	r6, [pc, #108]	; (10007620 <tud_cdc_n_write_flush+0x7c>)
100075b4:	3528      	adds	r5, #40	; 0x28
100075b6:	19ad      	adds	r5, r5, r6
100075b8:	0028      	movs	r0, r5
100075ba:	f000 fa93 	bl	10007ae4 <tu_fifo_count>
100075be:	2800      	cmp	r0, #0
100075c0:	d101      	bne.n	100075c6 <tud_cdc_n_write_flush+0x22>
100075c2:	2000      	movs	r0, #0
100075c4:	bdf8      	pop	{r3, r4, r5, r6, r7, pc}
100075c6:	1937      	adds	r7, r6, r4
100075c8:	78b9      	ldrb	r1, [r7, #2]
100075ca:	2000      	movs	r0, #0
100075cc:	f7ff fdba 	bl	10007144 <usbd_edpt_claim>
100075d0:	2800      	cmp	r0, #0
100075d2:	d0f6      	beq.n	100075c2 <tud_cdc_n_write_flush+0x1e>
100075d4:	23a4      	movs	r3, #164	; 0xa4
100075d6:	009b      	lsls	r3, r3, #2
100075d8:	469c      	mov	ip, r3
100075da:	4464      	add	r4, ip
100075dc:	19a4      	adds	r4, r4, r6
100075de:	0028      	movs	r0, r5
100075e0:	2240      	movs	r2, #64	; 0x40
100075e2:	0021      	movs	r1, r4
100075e4:	f000 faf2 	bl	10007bcc <tu_fifo_read_n>
100075e8:	1e05      	subs	r5, r0, #0
100075ea:	d003      	beq.n	100075f4 <tud_cdc_n_write_flush+0x50>
100075ec:	f7ff f82c 	bl	10006648 <tud_mounted>
100075f0:	2800      	cmp	r0, #0
100075f2:	d104      	bne.n	100075fe <tud_cdc_n_write_flush+0x5a>
100075f4:	78b9      	ldrb	r1, [r7, #2]
100075f6:	2000      	movs	r0, #0
100075f8:	f7ff fdd2 	bl	100071a0 <usbd_edpt_release>
100075fc:	e7e1      	b.n	100075c2 <tud_cdc_n_write_flush+0x1e>
100075fe:	f7ff f82b 	bl	10006658 <tud_suspended>
10007602:	78b9      	ldrb	r1, [r7, #2]
10007604:	2800      	cmp	r0, #0
10007606:	d1f6      	bne.n	100075f6 <tud_cdc_n_write_flush+0x52>
10007608:	793b      	ldrb	r3, [r7, #4]
1000760a:	07db      	lsls	r3, r3, #31
1000760c:	d5f3      	bpl.n	100075f6 <tud_cdc_n_write_flush+0x52>
1000760e:	002b      	movs	r3, r5
10007610:	0022      	movs	r2, r4
10007612:	2000      	movs	r0, #0
10007614:	f7ff fdea 	bl	100071ec <usbd_edpt_xfer>
10007618:	2800      	cmp	r0, #0
1000761a:	d0d2      	beq.n	100075c2 <tud_cdc_n_write_flush+0x1e>
1000761c:	0028      	movs	r0, r5
1000761e:	e7d1      	b.n	100075c4 <tud_cdc_n_write_flush+0x20>
10007620:	20000478 	.word	0x20000478

10007624 <tud_cdc_n_write_available>:
10007624:	0003      	movs	r3, r0
10007626:	0040      	lsls	r0, r0, #1
10007628:	18c0      	adds	r0, r0, r3
1000762a:	b510      	push	{r4, lr}
1000762c:	0103      	lsls	r3, r0, #4
1000762e:	1a18      	subs	r0, r3, r0
10007630:	0100      	lsls	r0, r0, #4
10007632:	4b03      	ldr	r3, [pc, #12]	; (10007640 <tud_cdc_n_write_available+0x1c>)
10007634:	3028      	adds	r0, #40	; 0x28
10007636:	18c0      	adds	r0, r0, r3
10007638:	f000 fa62 	bl	10007b00 <tu_fifo_remaining>
1000763c:	bd10      	pop	{r4, pc}
1000763e:	46c0      	nop			; (mov r8, r8)
10007640:	20000478 	.word	0x20000478

10007644 <cdcd_init>:
10007644:	22b4      	movs	r2, #180	; 0xb4
10007646:	b570      	push	{r4, r5, r6, lr}
10007648:	4c1a      	ldr	r4, [pc, #104]	; (100076b4 <cdcd_init+0x70>)
1000764a:	b082      	sub	sp, #8
1000764c:	0092      	lsls	r2, r2, #2
1000764e:	2100      	movs	r1, #0
10007650:	0020      	movs	r0, r4
10007652:	f7fd ffd3 	bl	100055fc <__wrap_memset>
10007656:	23ff      	movs	r3, #255	; 0xff
10007658:	7163      	strb	r3, [r4, #5]
1000765a:	4b17      	ldr	r3, [pc, #92]	; (100076b8 <cdcd_init+0x74>)
1000765c:	2580      	movs	r5, #128	; 0x80
1000765e:	80e3      	strh	r3, [r4, #6]
10007660:	2301      	movs	r3, #1
10007662:	2600      	movs	r6, #0
10007664:	0021      	movs	r1, r4
10007666:	0020      	movs	r0, r4
10007668:	8123      	strh	r3, [r4, #8]
1000766a:	006d      	lsls	r5, r5, #1
1000766c:	3307      	adds	r3, #7
1000766e:	7323      	strb	r3, [r4, #12]
10007670:	002a      	movs	r2, r5
10007672:	3140      	adds	r1, #64	; 0x40
10007674:	9600      	str	r6, [sp, #0]
10007676:	3b07      	subs	r3, #7
10007678:	3010      	adds	r0, #16
1000767a:	f000 f9f5 	bl	10007a68 <tu_fifo_config>
1000767e:	0021      	movs	r1, r4
10007680:	0020      	movs	r0, r4
10007682:	3141      	adds	r1, #65	; 0x41
10007684:	002a      	movs	r2, r5
10007686:	31ff      	adds	r1, #255	; 0xff
10007688:	9600      	str	r6, [sp, #0]
1000768a:	2301      	movs	r3, #1
1000768c:	3028      	adds	r0, #40	; 0x28
1000768e:	f000 f9eb 	bl	10007a68 <tu_fifo_config>
10007692:	2390      	movs	r3, #144	; 0x90
10007694:	009b      	lsls	r3, r3, #2
10007696:	18e5      	adds	r5, r4, r3
10007698:	0028      	movs	r0, r5
1000769a:	f7f9 fe5b 	bl	10001354 <mutex_init>
1000769e:	2392      	movs	r3, #146	; 0x92
100076a0:	009b      	lsls	r3, r3, #2
100076a2:	6265      	str	r5, [r4, #36]	; 0x24
100076a4:	18e5      	adds	r5, r4, r3
100076a6:	0028      	movs	r0, r5
100076a8:	f7f9 fe54 	bl	10001354 <mutex_init>
100076ac:	63e5      	str	r5, [r4, #60]	; 0x3c
100076ae:	b002      	add	sp, #8
100076b0:	bd70      	pop	{r4, r5, r6, pc}
100076b2:	46c0      	nop			; (mov r8, r8)
100076b4:	20000478 	.word	0x20000478
100076b8:	ffffc200 	.word	0xffffc200

100076bc <cdcd_reset>:
100076bc:	b510      	push	{r4, lr}
100076be:	4c07      	ldr	r4, [pc, #28]	; (100076dc <cdcd_reset+0x20>)
100076c0:	2205      	movs	r2, #5
100076c2:	2100      	movs	r1, #0
100076c4:	0020      	movs	r0, r4
100076c6:	f7fd ff99 	bl	100055fc <__wrap_memset>
100076ca:	0020      	movs	r0, r4
100076cc:	3010      	adds	r0, #16
100076ce:	f000 fbbb 	bl	10007e48 <tu_fifo_clear>
100076d2:	0020      	movs	r0, r4
100076d4:	3028      	adds	r0, #40	; 0x28
100076d6:	f000 fbb7 	bl	10007e48 <tu_fifo_clear>
100076da:	bd10      	pop	{r4, pc}
100076dc:	20000478 	.word	0x20000478

100076e0 <cdcd_open>:
100076e0:	b5f0      	push	{r4, r5, r6, r7, lr}
100076e2:	794b      	ldrb	r3, [r1, #5]
100076e4:	b083      	sub	sp, #12
100076e6:	0006      	movs	r6, r0
100076e8:	2b02      	cmp	r3, #2
100076ea:	d003      	beq.n	100076f4 <cdcd_open+0x14>
100076ec:	2500      	movs	r5, #0
100076ee:	0028      	movs	r0, r5
100076f0:	b003      	add	sp, #12
100076f2:	bdf0      	pop	{r4, r5, r6, r7, pc}
100076f4:	798b      	ldrb	r3, [r1, #6]
100076f6:	2b02      	cmp	r3, #2
100076f8:	d1f8      	bne.n	100076ec <cdcd_open+0xc>
100076fa:	79cb      	ldrb	r3, [r1, #7]
100076fc:	2b06      	cmp	r3, #6
100076fe:	d8f5      	bhi.n	100076ec <cdcd_open+0xc>
10007700:	4f2f      	ldr	r7, [pc, #188]	; (100077c0 <cdcd_open+0xe0>)
10007702:	78bb      	ldrb	r3, [r7, #2]
10007704:	2b00      	cmp	r3, #0
10007706:	d1f1      	bne.n	100076ec <cdcd_open+0xc>
10007708:	788b      	ldrb	r3, [r1, #2]
1000770a:	2509      	movs	r5, #9
1000770c:	703b      	strb	r3, [r7, #0]
1000770e:	780c      	ldrb	r4, [r1, #0]
10007710:	190c      	adds	r4, r1, r4
10007712:	7863      	ldrb	r3, [r4, #1]
10007714:	2b24      	cmp	r3, #36	; 0x24
10007716:	d10b      	bne.n	10007730 <cdcd_open+0x50>
10007718:	2a08      	cmp	r2, #8
1000771a:	d802      	bhi.n	10007722 <cdcd_open+0x42>
1000771c:	e00f      	b.n	1000773e <cdcd_open+0x5e>
1000771e:	42aa      	cmp	r2, r5
10007720:	d30d      	bcc.n	1000773e <cdcd_open+0x5e>
10007722:	7823      	ldrb	r3, [r4, #0]
10007724:	18e4      	adds	r4, r4, r3
10007726:	18ed      	adds	r5, r5, r3
10007728:	7863      	ldrb	r3, [r4, #1]
1000772a:	b2ad      	uxth	r5, r5
1000772c:	2b24      	cmp	r3, #36	; 0x24
1000772e:	d0f6      	beq.n	1000771e <cdcd_open+0x3e>
10007730:	2b05      	cmp	r3, #5
10007732:	d01c      	beq.n	1000776e <cdcd_open+0x8e>
10007734:	2b04      	cmp	r3, #4
10007736:	d102      	bne.n	1000773e <cdcd_open+0x5e>
10007738:	7963      	ldrb	r3, [r4, #5]
1000773a:	2b0a      	cmp	r3, #10
1000773c:	d025      	beq.n	1000778a <cdcd_open+0xaa>
1000773e:	4c21      	ldr	r4, [pc, #132]	; (100077c4 <cdcd_open+0xe4>)
10007740:	0020      	movs	r0, r4
10007742:	f000 f9dd 	bl	10007b00 <tu_fifo_remaining>
10007746:	283f      	cmp	r0, #63	; 0x3f
10007748:	d9d1      	bls.n	100076ee <cdcd_open+0xe>
1000774a:	0026      	movs	r6, r4
1000774c:	3e10      	subs	r6, #16
1000774e:	78f1      	ldrb	r1, [r6, #3]
10007750:	2000      	movs	r0, #0
10007752:	f7ff fcf7 	bl	10007144 <usbd_edpt_claim>
10007756:	2800      	cmp	r0, #0
10007758:	d0c9      	beq.n	100076ee <cdcd_open+0xe>
1000775a:	0020      	movs	r0, r4
1000775c:	f000 f9d0 	bl	10007b00 <tu_fifo_remaining>
10007760:	283f      	cmp	r0, #63	; 0x3f
10007762:	d823      	bhi.n	100077ac <cdcd_open+0xcc>
10007764:	78f1      	ldrb	r1, [r6, #3]
10007766:	2000      	movs	r0, #0
10007768:	f7ff fd1a 	bl	100071a0 <usbd_edpt_release>
1000776c:	e7bf      	b.n	100076ee <cdcd_open+0xe>
1000776e:	0021      	movs	r1, r4
10007770:	0030      	movs	r0, r6
10007772:	f7ff fce3 	bl	1000713c <usbd_edpt_open>
10007776:	2800      	cmp	r0, #0
10007778:	d0b8      	beq.n	100076ec <cdcd_open+0xc>
1000777a:	78a3      	ldrb	r3, [r4, #2]
1000777c:	707b      	strb	r3, [r7, #1]
1000777e:	7823      	ldrb	r3, [r4, #0]
10007780:	18ed      	adds	r5, r5, r3
10007782:	18e4      	adds	r4, r4, r3
10007784:	b2ad      	uxth	r5, r5
10007786:	7863      	ldrb	r3, [r4, #1]
10007788:	e7d4      	b.n	10007734 <cdcd_open+0x54>
1000778a:	4b0f      	ldr	r3, [pc, #60]	; (100077c8 <cdcd_open+0xe8>)
1000778c:	7827      	ldrb	r7, [r4, #0]
1000778e:	9301      	str	r3, [sp, #4]
10007790:	3301      	adds	r3, #1
10007792:	9300      	str	r3, [sp, #0]
10007794:	19e1      	adds	r1, r4, r7
10007796:	2302      	movs	r3, #2
10007798:	2202      	movs	r2, #2
1000779a:	0030      	movs	r0, r6
1000779c:	f7ff fc96 	bl	100070cc <usbd_open_edpt_pair>
100077a0:	2800      	cmp	r0, #0
100077a2:	d0a3      	beq.n	100076ec <cdcd_open+0xc>
100077a4:	350e      	adds	r5, #14
100077a6:	19ed      	adds	r5, r5, r7
100077a8:	b2ad      	uxth	r5, r5
100077aa:	e7c8      	b.n	1000773e <cdcd_open+0x5e>
100077ac:	2390      	movs	r3, #144	; 0x90
100077ae:	009b      	lsls	r3, r3, #2
100077b0:	18e2      	adds	r2, r4, r3
100077b2:	78f1      	ldrb	r1, [r6, #3]
100077b4:	2340      	movs	r3, #64	; 0x40
100077b6:	2000      	movs	r0, #0
100077b8:	f7ff fd18 	bl	100071ec <usbd_edpt_xfer>
100077bc:	e797      	b.n	100076ee <cdcd_open+0xe>
100077be:	46c0      	nop			; (mov r8, r8)
100077c0:	20000478 	.word	0x20000478
100077c4:	20000488 	.word	0x20000488
100077c8:	2000047a 	.word	0x2000047a

100077cc <cdcd_control_complete>:
100077cc:	2360      	movs	r3, #96	; 0x60
100077ce:	780a      	ldrb	r2, [r1, #0]
100077d0:	b570      	push	{r4, r5, r6, lr}
100077d2:	4013      	ands	r3, r2
100077d4:	2400      	movs	r4, #0
100077d6:	2b20      	cmp	r3, #32
100077d8:	d001      	beq.n	100077de <cdcd_control_complete+0x12>
100077da:	0020      	movs	r0, r4
100077dc:	bd70      	pop	{r4, r5, r6, pc}
100077de:	4a0a      	ldr	r2, [pc, #40]	; (10007808 <cdcd_control_complete+0x3c>)
100077e0:	794b      	ldrb	r3, [r1, #5]
100077e2:	790d      	ldrb	r5, [r1, #4]
100077e4:	7810      	ldrb	r0, [r2, #0]
100077e6:	021b      	lsls	r3, r3, #8
100077e8:	432b      	orrs	r3, r5
100077ea:	4298      	cmp	r0, r3
100077ec:	d1f5      	bne.n	100077da <cdcd_control_complete+0xe>
100077ee:	784b      	ldrb	r3, [r1, #1]
100077f0:	3401      	adds	r4, #1
100077f2:	2b20      	cmp	r3, #32
100077f4:	d1f1      	bne.n	100077da <cdcd_control_complete+0xe>
100077f6:	4b05      	ldr	r3, [pc, #20]	; (1000780c <cdcd_control_complete+0x40>)
100077f8:	2b00      	cmp	r3, #0
100077fa:	d0ee      	beq.n	100077da <cdcd_control_complete+0xe>
100077fc:	1d91      	adds	r1, r2, #6
100077fe:	2000      	movs	r0, #0
10007800:	f7fe f9c8 	bl	10005b94 <tud_cdc_line_coding_cb>
10007804:	e7e9      	b.n	100077da <cdcd_control_complete+0xe>
10007806:	46c0      	nop			; (mov r8, r8)
10007808:	20000478 	.word	0x20000478
1000780c:	10005b95 	.word	0x10005b95

10007810 <cdcd_control_request>:
10007810:	2360      	movs	r3, #96	; 0x60
10007812:	780a      	ldrb	r2, [r1, #0]
10007814:	b570      	push	{r4, r5, r6, lr}
10007816:	4013      	ands	r3, r2
10007818:	2400      	movs	r4, #0
1000781a:	2b20      	cmp	r3, #32
1000781c:	d001      	beq.n	10007822 <cdcd_control_request+0x12>
1000781e:	0020      	movs	r0, r4
10007820:	bd70      	pop	{r4, r5, r6, pc}
10007822:	4a15      	ldr	r2, [pc, #84]	; (10007878 <cdcd_control_request+0x68>)
10007824:	794b      	ldrb	r3, [r1, #5]
10007826:	790e      	ldrb	r6, [r1, #4]
10007828:	7815      	ldrb	r5, [r2, #0]
1000782a:	021b      	lsls	r3, r3, #8
1000782c:	4333      	orrs	r3, r6
1000782e:	429d      	cmp	r5, r3
10007830:	d1f5      	bne.n	1000781e <cdcd_control_request+0xe>
10007832:	784b      	ldrb	r3, [r1, #1]
10007834:	2b20      	cmp	r3, #32
10007836:	d31c      	bcc.n	10007872 <cdcd_control_request+0x62>
10007838:	2b21      	cmp	r3, #33	; 0x21
1000783a:	d805      	bhi.n	10007848 <cdcd_control_request+0x38>
1000783c:	3206      	adds	r2, #6
1000783e:	2307      	movs	r3, #7
10007840:	f7ff fd10 	bl	10007264 <tud_control_xfer>
10007844:	2401      	movs	r4, #1
10007846:	e7ea      	b.n	1000781e <cdcd_control_request+0xe>
10007848:	2b22      	cmp	r3, #34	; 0x22
1000784a:	d112      	bne.n	10007872 <cdcd_control_request+0x62>
1000784c:	78cd      	ldrb	r5, [r1, #3]
1000784e:	788b      	ldrb	r3, [r1, #2]
10007850:	022d      	lsls	r5, r5, #8
10007852:	431d      	orrs	r5, r3
10007854:	7115      	strb	r5, [r2, #4]
10007856:	f7ff fced 	bl	10007234 <tud_control_status>
1000785a:	4b08      	ldr	r3, [pc, #32]	; (1000787c <cdcd_control_request+0x6c>)
1000785c:	2401      	movs	r4, #1
1000785e:	2b00      	cmp	r3, #0
10007860:	d0dd      	beq.n	1000781e <cdcd_control_request+0xe>
10007862:	0029      	movs	r1, r5
10007864:	086a      	lsrs	r2, r5, #1
10007866:	4022      	ands	r2, r4
10007868:	4021      	ands	r1, r4
1000786a:	2000      	movs	r0, #0
1000786c:	e000      	b.n	10007870 <cdcd_control_request+0x60>
1000786e:	bf00      	nop
10007870:	e7d5      	b.n	1000781e <cdcd_control_request+0xe>
10007872:	2400      	movs	r4, #0
10007874:	e7d3      	b.n	1000781e <cdcd_control_request+0xe>
10007876:	46c0      	nop			; (mov r8, r8)
10007878:	20000478 	.word	0x20000478
1000787c:	00000000 	.word	0x00000000

10007880 <cdcd_xfer_cb>:
10007880:	b5f0      	push	{r4, r5, r6, r7, lr}
10007882:	4646      	mov	r6, r8
10007884:	464f      	mov	r7, r9
10007886:	46d6      	mov	lr, sl
10007888:	b5c0      	push	{r6, r7, lr}
1000788a:	4698      	mov	r8, r3
1000788c:	4b66      	ldr	r3, [pc, #408]	; (10007a28 <cdcd_xfer_cb+0x1a8>)
1000788e:	4681      	mov	r9, r0
10007890:	78da      	ldrb	r2, [r3, #3]
10007892:	000e      	movs	r6, r1
10007894:	428a      	cmp	r2, r1
10007896:	d000      	beq.n	1000789a <cdcd_xfer_cb+0x1a>
10007898:	e06e      	b.n	10007978 <cdcd_xfer_cb+0xf8>
1000789a:	4642      	mov	r2, r8
1000789c:	2a00      	cmp	r2, #0
1000789e:	d065      	beq.n	1000796c <cdcd_xfer_cb+0xec>
100078a0:	4a62      	ldr	r2, [pc, #392]	; (10007a2c <cdcd_xfer_cb+0x1ac>)
100078a2:	2a00      	cmp	r2, #0
100078a4:	d02e      	beq.n	10007904 <cdcd_xfer_cb+0x84>
100078a6:	2294      	movs	r2, #148	; 0x94
100078a8:	0092      	lsls	r2, r2, #2
100078aa:	189d      	adds	r5, r3, r2
100078ac:	46aa      	mov	sl, r5
100078ae:	001f      	movs	r7, r3
100078b0:	001c      	movs	r4, r3
100078b2:	44c2      	add	sl, r8
100078b4:	3710      	adds	r7, #16
100078b6:	0029      	movs	r1, r5
100078b8:	0038      	movs	r0, r7
100078ba:	f000 fa03 	bl	10007cc4 <tu_fifo_write>
100078be:	7963      	ldrb	r3, [r4, #5]
100078c0:	2bff      	cmp	r3, #255	; 0xff
100078c2:	d003      	beq.n	100078cc <cdcd_xfer_cb+0x4c>
100078c4:	7829      	ldrb	r1, [r5, #0]
100078c6:	4299      	cmp	r1, r3
100078c8:	d100      	bne.n	100078cc <cdcd_xfer_cb+0x4c>
100078ca:	e075      	b.n	100079b8 <cdcd_xfer_cb+0x138>
100078cc:	3501      	adds	r5, #1
100078ce:	45aa      	cmp	sl, r5
100078d0:	d1f1      	bne.n	100078b6 <cdcd_xfer_cb+0x36>
100078d2:	4b57      	ldr	r3, [pc, #348]	; (10007a30 <cdcd_xfer_cb+0x1b0>)
100078d4:	2b00      	cmp	r3, #0
100078d6:	d005      	beq.n	100078e4 <cdcd_xfer_cb+0x64>
100078d8:	0038      	movs	r0, r7
100078da:	f000 f903 	bl	10007ae4 <tu_fifo_count>
100078de:	2800      	cmp	r0, #0
100078e0:	d000      	beq.n	100078e4 <cdcd_xfer_cb+0x64>
100078e2:	e093      	b.n	10007a0c <cdcd_xfer_cb+0x18c>
100078e4:	0038      	movs	r0, r7
100078e6:	f000 f90b 	bl	10007b00 <tu_fifo_remaining>
100078ea:	283f      	cmp	r0, #63	; 0x3f
100078ec:	d868      	bhi.n	100079c0 <cdcd_xfer_cb+0x140>
100078ee:	3f10      	subs	r7, #16
100078f0:	78bb      	ldrb	r3, [r7, #2]
100078f2:	429e      	cmp	r6, r3
100078f4:	d015      	beq.n	10007922 <cdcd_xfer_cb+0xa2>
100078f6:	2401      	movs	r4, #1
100078f8:	0020      	movs	r0, r4
100078fa:	bc1c      	pop	{r2, r3, r4}
100078fc:	4690      	mov	r8, r2
100078fe:	4699      	mov	r9, r3
10007900:	46a2      	mov	sl, r4
10007902:	bdf0      	pop	{r4, r5, r6, r7, pc}
10007904:	2294      	movs	r2, #148	; 0x94
10007906:	0092      	lsls	r2, r2, #2
10007908:	189c      	adds	r4, r3, r2
1000790a:	4642      	mov	r2, r8
1000790c:	3310      	adds	r3, #16
1000790e:	001f      	movs	r7, r3
10007910:	18a5      	adds	r5, r4, r2
10007912:	0021      	movs	r1, r4
10007914:	0038      	movs	r0, r7
10007916:	3401      	adds	r4, #1
10007918:	f000 f9d4 	bl	10007cc4 <tu_fifo_write>
1000791c:	42ac      	cmp	r4, r5
1000791e:	d1f8      	bne.n	10007912 <cdcd_xfer_cb+0x92>
10007920:	e7d7      	b.n	100078d2 <cdcd_xfer_cb+0x52>
10007922:	4b44      	ldr	r3, [pc, #272]	; (10007a34 <cdcd_xfer_cb+0x1b4>)
10007924:	2b00      	cmp	r3, #0
10007926:	d002      	beq.n	1000792e <cdcd_xfer_cb+0xae>
10007928:	2000      	movs	r0, #0
1000792a:	e000      	b.n	1000792e <cdcd_xfer_cb+0xae>
1000792c:	bf00      	nop
1000792e:	4c42      	ldr	r4, [pc, #264]	; (10007a38 <cdcd_xfer_cb+0x1b8>)
10007930:	0020      	movs	r0, r4
10007932:	f000 f8d7 	bl	10007ae4 <tu_fifo_count>
10007936:	2800      	cmp	r0, #0
10007938:	d123      	bne.n	10007982 <cdcd_xfer_cb+0x102>
1000793a:	0020      	movs	r0, r4
1000793c:	f000 f8d2 	bl	10007ae4 <tu_fifo_count>
10007940:	2800      	cmp	r0, #0
10007942:	d1d8      	bne.n	100078f6 <cdcd_xfer_cb+0x76>
10007944:	4643      	mov	r3, r8
10007946:	2b00      	cmp	r3, #0
10007948:	d0d5      	beq.n	100078f6 <cdcd_xfer_cb+0x76>
1000794a:	069b      	lsls	r3, r3, #26
1000794c:	d1d3      	bne.n	100078f6 <cdcd_xfer_cb+0x76>
1000794e:	3c28      	subs	r4, #40	; 0x28
10007950:	78a1      	ldrb	r1, [r4, #2]
10007952:	4648      	mov	r0, r9
10007954:	f7ff fbf6 	bl	10007144 <usbd_edpt_claim>
10007958:	0025      	movs	r5, r4
1000795a:	1e04      	subs	r4, r0, #0
1000795c:	d0cb      	beq.n	100078f6 <cdcd_xfer_cb+0x76>
1000795e:	78a9      	ldrb	r1, [r5, #2]
10007960:	2300      	movs	r3, #0
10007962:	2200      	movs	r2, #0
10007964:	4648      	mov	r0, r9
10007966:	f7ff fc41 	bl	100071ec <usbd_edpt_xfer>
1000796a:	e7c5      	b.n	100078f8 <cdcd_xfer_cb+0x78>
1000796c:	3310      	adds	r3, #16
1000796e:	001f      	movs	r7, r3
10007970:	4b2f      	ldr	r3, [pc, #188]	; (10007a30 <cdcd_xfer_cb+0x1b0>)
10007972:	2b00      	cmp	r3, #0
10007974:	d1b0      	bne.n	100078d8 <cdcd_xfer_cb+0x58>
10007976:	e7b5      	b.n	100078e4 <cdcd_xfer_cb+0x64>
10007978:	789b      	ldrb	r3, [r3, #2]
1000797a:	428b      	cmp	r3, r1
1000797c:	d0d1      	beq.n	10007922 <cdcd_xfer_cb+0xa2>
1000797e:	2400      	movs	r4, #0
10007980:	e7ba      	b.n	100078f8 <cdcd_xfer_cb+0x78>
10007982:	0025      	movs	r5, r4
10007984:	3d28      	subs	r5, #40	; 0x28
10007986:	78a9      	ldrb	r1, [r5, #2]
10007988:	2000      	movs	r0, #0
1000798a:	f7ff fbdb 	bl	10007144 <usbd_edpt_claim>
1000798e:	2800      	cmp	r0, #0
10007990:	d0d3      	beq.n	1000793a <cdcd_xfer_cb+0xba>
10007992:	239a      	movs	r3, #154	; 0x9a
10007994:	009b      	lsls	r3, r3, #2
10007996:	18e6      	adds	r6, r4, r3
10007998:	2240      	movs	r2, #64	; 0x40
1000799a:	0031      	movs	r1, r6
1000799c:	0020      	movs	r0, r4
1000799e:	f000 f915 	bl	10007bcc <tu_fifo_read_n>
100079a2:	1e07      	subs	r7, r0, #0
100079a4:	d003      	beq.n	100079ae <cdcd_xfer_cb+0x12e>
100079a6:	f7fe fe4f 	bl	10006648 <tud_mounted>
100079aa:	2800      	cmp	r0, #0
100079ac:	d11d      	bne.n	100079ea <cdcd_xfer_cb+0x16a>
100079ae:	78a9      	ldrb	r1, [r5, #2]
100079b0:	2000      	movs	r0, #0
100079b2:	f7ff fbf5 	bl	100071a0 <usbd_edpt_release>
100079b6:	e7c0      	b.n	1000793a <cdcd_xfer_cb+0xba>
100079b8:	2000      	movs	r0, #0
100079ba:	e000      	b.n	100079be <cdcd_xfer_cb+0x13e>
100079bc:	bf00      	nop
100079be:	e785      	b.n	100078cc <cdcd_xfer_cb+0x4c>
100079c0:	003c      	movs	r4, r7
100079c2:	3c10      	subs	r4, #16
100079c4:	78e1      	ldrb	r1, [r4, #3]
100079c6:	2000      	movs	r0, #0
100079c8:	f7ff fbbc 	bl	10007144 <usbd_edpt_claim>
100079cc:	2800      	cmp	r0, #0
100079ce:	d101      	bne.n	100079d4 <cdcd_xfer_cb+0x154>
100079d0:	78a3      	ldrb	r3, [r4, #2]
100079d2:	e78e      	b.n	100078f2 <cdcd_xfer_cb+0x72>
100079d4:	0038      	movs	r0, r7
100079d6:	f000 f893 	bl	10007b00 <tu_fifo_remaining>
100079da:	283f      	cmp	r0, #63	; 0x3f
100079dc:	d81a      	bhi.n	10007a14 <cdcd_xfer_cb+0x194>
100079de:	78e1      	ldrb	r1, [r4, #3]
100079e0:	2000      	movs	r0, #0
100079e2:	f7ff fbdd 	bl	100071a0 <usbd_edpt_release>
100079e6:	78a3      	ldrb	r3, [r4, #2]
100079e8:	e783      	b.n	100078f2 <cdcd_xfer_cb+0x72>
100079ea:	f7fe fe35 	bl	10006658 <tud_suspended>
100079ee:	78a9      	ldrb	r1, [r5, #2]
100079f0:	2800      	cmp	r0, #0
100079f2:	d1dd      	bne.n	100079b0 <cdcd_xfer_cb+0x130>
100079f4:	792b      	ldrb	r3, [r5, #4]
100079f6:	07db      	lsls	r3, r3, #31
100079f8:	d5da      	bpl.n	100079b0 <cdcd_xfer_cb+0x130>
100079fa:	003b      	movs	r3, r7
100079fc:	0032      	movs	r2, r6
100079fe:	2000      	movs	r0, #0
10007a00:	f7ff fbf4 	bl	100071ec <usbd_edpt_xfer>
10007a04:	2800      	cmp	r0, #0
10007a06:	d000      	beq.n	10007a0a <cdcd_xfer_cb+0x18a>
10007a08:	e775      	b.n	100078f6 <cdcd_xfer_cb+0x76>
10007a0a:	e796      	b.n	1000793a <cdcd_xfer_cb+0xba>
10007a0c:	2000      	movs	r0, #0
10007a0e:	e000      	b.n	10007a12 <cdcd_xfer_cb+0x192>
10007a10:	bf00      	nop
10007a12:	e767      	b.n	100078e4 <cdcd_xfer_cb+0x64>
10007a14:	2390      	movs	r3, #144	; 0x90
10007a16:	009b      	lsls	r3, r3, #2
10007a18:	18fa      	adds	r2, r7, r3
10007a1a:	78e1      	ldrb	r1, [r4, #3]
10007a1c:	2340      	movs	r3, #64	; 0x40
10007a1e:	2000      	movs	r0, #0
10007a20:	f7ff fbe4 	bl	100071ec <usbd_edpt_xfer>
10007a24:	78a3      	ldrb	r3, [r4, #2]
10007a26:	e764      	b.n	100078f2 <cdcd_xfer_cb+0x72>
10007a28:	20000478 	.word	0x20000478
	...
10007a38:	200004a0 	.word	0x200004a0

10007a3c <tusb_init>:
10007a3c:	b570      	push	{r4, r5, r6, lr}
10007a3e:	4d06      	ldr	r5, [pc, #24]	; (10007a58 <tusb_init+0x1c>)
10007a40:	782c      	ldrb	r4, [r5, #0]
10007a42:	2c00      	cmp	r4, #0
10007a44:	d001      	beq.n	10007a4a <tusb_init+0xe>
10007a46:	0020      	movs	r0, r4
10007a48:	bd70      	pop	{r4, r5, r6, pc}
10007a4a:	f7fe fe0d 	bl	10006668 <tud_init>
10007a4e:	2800      	cmp	r0, #0
10007a50:	d0f9      	beq.n	10007a46 <tusb_init+0xa>
10007a52:	2301      	movs	r3, #1
10007a54:	702b      	strb	r3, [r5, #0]
10007a56:	e7f6      	b.n	10007a46 <tusb_init+0xa>
10007a58:	20000fa5 	.word	0x20000fa5

10007a5c <tusb_inited>:
10007a5c:	4b01      	ldr	r3, [pc, #4]	; (10007a64 <tusb_inited+0x8>)
10007a5e:	7818      	ldrb	r0, [r3, #0]
10007a60:	4770      	bx	lr
10007a62:	46c0      	nop			; (mov r8, r8)
10007a64:	20000fa5 	.word	0x20000fa5

10007a68 <tu_fifo_config>:
10007a68:	b5f8      	push	{r3, r4, r5, r6, r7, lr}
10007a6a:	4647      	mov	r7, r8
10007a6c:	46ce      	mov	lr, r9
10007a6e:	b580      	push	{r7, lr}
10007a70:	4698      	mov	r8, r3
10007a72:	ab08      	add	r3, sp, #32
10007a74:	781f      	ldrb	r7, [r3, #0]
10007a76:	2380      	movs	r3, #128	; 0x80
10007a78:	0005      	movs	r5, r0
10007a7a:	4689      	mov	r9, r1
10007a7c:	0014      	movs	r4, r2
10007a7e:	021b      	lsls	r3, r3, #8
10007a80:	2600      	movs	r6, #0
10007a82:	429a      	cmp	r2, r3
10007a84:	d81a      	bhi.n	10007abc <tu_fifo_config+0x54>
10007a86:	6940      	ldr	r0, [r0, #20]
10007a88:	2800      	cmp	r0, #0
10007a8a:	d01c      	beq.n	10007ac6 <tu_fifo_config+0x5e>
10007a8c:	2101      	movs	r1, #1
10007a8e:	4249      	negs	r1, r1
10007a90:	f000 fa5e 	bl	10007f50 <__mutex_enter_timeout_ms_veneer>
10007a94:	464b      	mov	r3, r9
10007a96:	602b      	str	r3, [r5, #0]
10007a98:	4643      	mov	r3, r8
10007a9a:	80ac      	strh	r4, [r5, #4]
10007a9c:	0064      	lsls	r4, r4, #1
10007a9e:	b2a4      	uxth	r4, r4
10007aa0:	6968      	ldr	r0, [r5, #20]
10007aa2:	80eb      	strh	r3, [r5, #6]
10007aa4:	1e63      	subs	r3, r4, #1
10007aa6:	4264      	negs	r4, r4
10007aa8:	81ee      	strh	r6, [r5, #14]
10007aaa:	722f      	strb	r7, [r5, #8]
10007aac:	822e      	strh	r6, [r5, #16]
10007aae:	81ab      	strh	r3, [r5, #12]
10007ab0:	816c      	strh	r4, [r5, #10]
10007ab2:	3601      	adds	r6, #1
10007ab4:	2800      	cmp	r0, #0
10007ab6:	d001      	beq.n	10007abc <tu_fifo_config+0x54>
10007ab8:	f000 fa2a 	bl	10007f10 <__mutex_exit_veneer>
10007abc:	0030      	movs	r0, r6
10007abe:	bc0c      	pop	{r2, r3}
10007ac0:	4690      	mov	r8, r2
10007ac2:	4699      	mov	r9, r3
10007ac4:	bdf8      	pop	{r3, r4, r5, r6, r7, pc}
10007ac6:	4643      	mov	r3, r8
10007ac8:	0054      	lsls	r4, r2, #1
10007aca:	b2a4      	uxth	r4, r4
10007acc:	80eb      	strh	r3, [r5, #6]
10007ace:	1e63      	subs	r3, r4, #1
10007ad0:	4264      	negs	r4, r4
10007ad2:	81ee      	strh	r6, [r5, #14]
10007ad4:	6029      	str	r1, [r5, #0]
10007ad6:	822e      	strh	r6, [r5, #16]
10007ad8:	80aa      	strh	r2, [r5, #4]
10007ada:	722f      	strb	r7, [r5, #8]
10007adc:	81ab      	strh	r3, [r5, #12]
10007ade:	816c      	strh	r4, [r5, #10]
10007ae0:	2601      	movs	r6, #1
10007ae2:	e7eb      	b.n	10007abc <tu_fifo_config+0x54>

10007ae4 <tu_fifo_count>:
10007ae4:	89c1      	ldrh	r1, [r0, #14]
10007ae6:	8a02      	ldrh	r2, [r0, #16]
10007ae8:	b289      	uxth	r1, r1
10007aea:	b292      	uxth	r2, r2
10007aec:	1a8b      	subs	r3, r1, r2
10007aee:	b29b      	uxth	r3, r3
10007af0:	4291      	cmp	r1, r2
10007af2:	d202      	bcs.n	10007afa <tu_fifo_count+0x16>
10007af4:	8940      	ldrh	r0, [r0, #10]
10007af6:	1a1b      	subs	r3, r3, r0
10007af8:	b29b      	uxth	r3, r3
10007afa:	0018      	movs	r0, r3
10007afc:	4770      	bx	lr
10007afe:	46c0      	nop			; (mov r8, r8)

10007b00 <tu_fifo_remaining>:
10007b00:	b510      	push	{r4, lr}
10007b02:	89c4      	ldrh	r4, [r0, #14]
10007b04:	8a01      	ldrh	r1, [r0, #16]
10007b06:	b2a4      	uxth	r4, r4
10007b08:	b289      	uxth	r1, r1
10007b0a:	1a63      	subs	r3, r4, r1
10007b0c:	8882      	ldrh	r2, [r0, #4]
10007b0e:	b29b      	uxth	r3, r3
10007b10:	428c      	cmp	r4, r1
10007b12:	d202      	bcs.n	10007b1a <tu_fifo_remaining+0x1a>
10007b14:	8940      	ldrh	r0, [r0, #10]
10007b16:	1a1b      	subs	r3, r3, r0
10007b18:	b29b      	uxth	r3, r3
10007b1a:	1ad0      	subs	r0, r2, r3
10007b1c:	b280      	uxth	r0, r0
10007b1e:	bd10      	pop	{r4, pc}

10007b20 <tu_fifo_read>:
10007b20:	b5f8      	push	{r3, r4, r5, r6, r7, lr}
10007b22:	0004      	movs	r4, r0
10007b24:	6940      	ldr	r0, [r0, #20]
10007b26:	000d      	movs	r5, r1
10007b28:	2800      	cmp	r0, #0
10007b2a:	d003      	beq.n	10007b34 <tu_fifo_read+0x14>
10007b2c:	2101      	movs	r1, #1
10007b2e:	4249      	negs	r1, r1
10007b30:	f000 fa0e 	bl	10007f50 <__mutex_enter_timeout_ms_veneer>
10007b34:	89e0      	ldrh	r0, [r4, #14]
10007b36:	8a21      	ldrh	r1, [r4, #16]
10007b38:	b280      	uxth	r0, r0
10007b3a:	b289      	uxth	r1, r1
10007b3c:	1a43      	subs	r3, r0, r1
10007b3e:	b29b      	uxth	r3, r3
10007b40:	4288      	cmp	r0, r1
10007b42:	d202      	bcs.n	10007b4a <tu_fifo_read+0x2a>
10007b44:	8962      	ldrh	r2, [r4, #10]
10007b46:	1a9b      	subs	r3, r3, r2
10007b48:	b29b      	uxth	r3, r3
10007b4a:	88a2      	ldrh	r2, [r4, #4]
10007b4c:	89a6      	ldrh	r6, [r4, #12]
10007b4e:	429a      	cmp	r2, r3
10007b50:	d208      	bcs.n	10007b64 <tu_fifo_read+0x44>
10007b52:	1a87      	subs	r7, r0, r2
10007b54:	b2bb      	uxth	r3, r7
10007b56:	42b8      	cmp	r0, r7
10007b58:	da2f      	bge.n	10007bba <tu_fifo_read+0x9a>
10007b5a:	8960      	ldrh	r0, [r4, #10]
10007b5c:	1a1b      	subs	r3, r3, r0
10007b5e:	b29b      	uxth	r3, r3
10007b60:	8223      	strh	r3, [r4, #16]
10007b62:	0013      	movs	r3, r2
10007b64:	2b00      	cmp	r3, #0
10007b66:	d02b      	beq.n	10007bc0 <tu_fifo_read+0xa0>
10007b68:	42b1      	cmp	r1, r6
10007b6a:	d906      	bls.n	10007b7a <tu_fifo_read+0x5a>
10007b6c:	8963      	ldrh	r3, [r4, #10]
10007b6e:	18c9      	adds	r1, r1, r3
10007b70:	b289      	uxth	r1, r1
10007b72:	428a      	cmp	r2, r1
10007b74:	d803      	bhi.n	10007b7e <tu_fifo_read+0x5e>
10007b76:	1a89      	subs	r1, r1, r2
10007b78:	b289      	uxth	r1, r1
10007b7a:	428a      	cmp	r2, r1
10007b7c:	d9fb      	bls.n	10007b76 <tu_fifo_read+0x56>
10007b7e:	6823      	ldr	r3, [r4, #0]
10007b80:	88e2      	ldrh	r2, [r4, #6]
10007b82:	469c      	mov	ip, r3
10007b84:	4351      	muls	r1, r2
10007b86:	0028      	movs	r0, r5
10007b88:	4461      	add	r1, ip
10007b8a:	f7fd fd3d 	bl	10005608 <__wrap___aeabi_memcpy>
10007b8e:	2501      	movs	r5, #1
10007b90:	2201      	movs	r2, #1
10007b92:	8a23      	ldrh	r3, [r4, #16]
10007b94:	89a6      	ldrh	r6, [r4, #12]
10007b96:	b29b      	uxth	r3, r3
10007b98:	1c59      	adds	r1, r3, #1
10007b9a:	189b      	adds	r3, r3, r2
10007b9c:	b29b      	uxth	r3, r3
10007b9e:	428e      	cmp	r6, r1
10007ba0:	db07      	blt.n	10007bb2 <tu_fifo_read+0x92>
10007ba2:	6960      	ldr	r0, [r4, #20]
10007ba4:	8223      	strh	r3, [r4, #16]
10007ba6:	2800      	cmp	r0, #0
10007ba8:	d001      	beq.n	10007bae <tu_fifo_read+0x8e>
10007baa:	f000 f9b1 	bl	10007f10 <__mutex_exit_veneer>
10007bae:	0028      	movs	r0, r5
10007bb0:	bdf8      	pop	{r3, r4, r5, r6, r7, pc}
10007bb2:	8962      	ldrh	r2, [r4, #10]
10007bb4:	189b      	adds	r3, r3, r2
10007bb6:	b29b      	uxth	r3, r3
10007bb8:	e7f3      	b.n	10007ba2 <tu_fifo_read+0x82>
10007bba:	42b7      	cmp	r7, r6
10007bbc:	ddd0      	ble.n	10007b60 <tu_fifo_read+0x40>
10007bbe:	e7cc      	b.n	10007b5a <tu_fifo_read+0x3a>
10007bc0:	8a23      	ldrh	r3, [r4, #16]
10007bc2:	2500      	movs	r5, #0
10007bc4:	b29b      	uxth	r3, r3
10007bc6:	0019      	movs	r1, r3
10007bc8:	2200      	movs	r2, #0
10007bca:	e7e6      	b.n	10007b9a <tu_fifo_read+0x7a>

10007bcc <tu_fifo_read_n>:
10007bcc:	b5f0      	push	{r4, r5, r6, r7, lr}
10007bce:	46c6      	mov	lr, r8
10007bd0:	0004      	movs	r4, r0
10007bd2:	6940      	ldr	r0, [r0, #20]
10007bd4:	b500      	push	{lr}
10007bd6:	4688      	mov	r8, r1
10007bd8:	0016      	movs	r6, r2
10007bda:	2800      	cmp	r0, #0
10007bdc:	d003      	beq.n	10007be6 <tu_fifo_read_n+0x1a>
10007bde:	2101      	movs	r1, #1
10007be0:	4249      	negs	r1, r1
10007be2:	f000 f9b5 	bl	10007f50 <__mutex_enter_timeout_ms_veneer>
10007be6:	89e7      	ldrh	r7, [r4, #14]
10007be8:	8a23      	ldrh	r3, [r4, #16]
10007bea:	b2bf      	uxth	r7, r7
10007bec:	b29b      	uxth	r3, r3
10007bee:	1afd      	subs	r5, r7, r3
10007bf0:	b2ad      	uxth	r5, r5
10007bf2:	429f      	cmp	r7, r3
10007bf4:	d202      	bcs.n	10007bfc <tu_fifo_read_n+0x30>
10007bf6:	8962      	ldrh	r2, [r4, #10]
10007bf8:	1aad      	subs	r5, r5, r2
10007bfa:	b2ad      	uxth	r5, r5
10007bfc:	88a0      	ldrh	r0, [r4, #4]
10007bfe:	89a1      	ldrh	r1, [r4, #12]
10007c00:	42a8      	cmp	r0, r5
10007c02:	d20a      	bcs.n	10007c1a <tu_fifo_read_n+0x4e>
10007c04:	1a3b      	subs	r3, r7, r0
10007c06:	b29a      	uxth	r2, r3
10007c08:	429f      	cmp	r7, r3
10007c0a:	da34      	bge.n	10007c76 <tu_fifo_read_n+0xaa>
10007c0c:	8963      	ldrh	r3, [r4, #10]
10007c0e:	1ad2      	subs	r2, r2, r3
10007c10:	b292      	uxth	r2, r2
10007c12:	0005      	movs	r5, r0
10007c14:	8222      	strh	r2, [r4, #16]
10007c16:	8a23      	ldrh	r3, [r4, #16]
10007c18:	b29b      	uxth	r3, r3
10007c1a:	2d00      	cmp	r5, #0
10007c1c:	d02e      	beq.n	10007c7c <tu_fifo_read_n+0xb0>
10007c1e:	1c32      	adds	r2, r6, #0
10007c20:	42ae      	cmp	r6, r5
10007c22:	d842      	bhi.n	10007caa <tu_fifo_read_n+0xde>
10007c24:	b295      	uxth	r5, r2
10007c26:	428b      	cmp	r3, r1
10007c28:	d83b      	bhi.n	10007ca2 <tu_fifo_read_n+0xd6>
10007c2a:	4298      	cmp	r0, r3
10007c2c:	d803      	bhi.n	10007c36 <tu_fifo_read_n+0x6a>
10007c2e:	1a1b      	subs	r3, r3, r0
10007c30:	b29b      	uxth	r3, r3
10007c32:	4298      	cmp	r0, r3
10007c34:	d9fb      	bls.n	10007c2e <tu_fifo_read_n+0x62>
10007c36:	0019      	movs	r1, r3
10007c38:	6826      	ldr	r6, [r4, #0]
10007c3a:	88e2      	ldrh	r2, [r4, #6]
10007c3c:	46b4      	mov	ip, r6
10007c3e:	4351      	muls	r1, r2
10007c40:	195e      	adds	r6, r3, r5
10007c42:	4461      	add	r1, ip
10007c44:	4286      	cmp	r6, r0
10007c46:	dd35      	ble.n	10007cb4 <tu_fifo_read_n+0xe8>
10007c48:	1ac3      	subs	r3, r0, r3
10007c4a:	b29e      	uxth	r6, r3
10007c4c:	4372      	muls	r2, r6
10007c4e:	4640      	mov	r0, r8
10007c50:	f7fd fcda 	bl	10005608 <__wrap___aeabi_memcpy>
10007c54:	88e3      	ldrh	r3, [r4, #6]
10007c56:	1baa      	subs	r2, r5, r6
10007c58:	0018      	movs	r0, r3
10007c5a:	4370      	muls	r0, r6
10007c5c:	435a      	muls	r2, r3
10007c5e:	4440      	add	r0, r8
10007c60:	6821      	ldr	r1, [r4, #0]
10007c62:	f7fd fcd1 	bl	10005608 <__wrap___aeabi_memcpy>
10007c66:	8a21      	ldrh	r1, [r4, #16]
10007c68:	b289      	uxth	r1, r1
10007c6a:	194b      	adds	r3, r1, r5
10007c6c:	001a      	movs	r2, r3
10007c6e:	4299      	cmp	r1, r3
10007c70:	dd25      	ble.n	10007cbe <tu_fifo_read_n+0xf2>
10007c72:	b29b      	uxth	r3, r3
10007c74:	e008      	b.n	10007c88 <tu_fifo_read_n+0xbc>
10007c76:	428b      	cmp	r3, r1
10007c78:	ddcb      	ble.n	10007c12 <tu_fifo_read_n+0x46>
10007c7a:	e7c7      	b.n	10007c0c <tu_fifo_read_n+0x40>
10007c7c:	8a22      	ldrh	r2, [r4, #16]
10007c7e:	b292      	uxth	r2, r2
10007c80:	0013      	movs	r3, r2
10007c82:	b29b      	uxth	r3, r3
10007c84:	4291      	cmp	r1, r2
10007c86:	da02      	bge.n	10007c8e <tu_fifo_read_n+0xc2>
10007c88:	8962      	ldrh	r2, [r4, #10]
10007c8a:	189b      	adds	r3, r3, r2
10007c8c:	b29b      	uxth	r3, r3
10007c8e:	6960      	ldr	r0, [r4, #20]
10007c90:	8223      	strh	r3, [r4, #16]
10007c92:	2800      	cmp	r0, #0
10007c94:	d001      	beq.n	10007c9a <tu_fifo_read_n+0xce>
10007c96:	f000 f93b 	bl	10007f10 <__mutex_exit_veneer>
10007c9a:	0028      	movs	r0, r5
10007c9c:	bc04      	pop	{r2}
10007c9e:	4690      	mov	r8, r2
10007ca0:	bdf0      	pop	{r4, r5, r6, r7, pc}
10007ca2:	8962      	ldrh	r2, [r4, #10]
10007ca4:	189b      	adds	r3, r3, r2
10007ca6:	b29b      	uxth	r3, r3
10007ca8:	e7bf      	b.n	10007c2a <tu_fifo_read_n+0x5e>
10007caa:	1c2a      	adds	r2, r5, #0
10007cac:	b295      	uxth	r5, r2
10007cae:	428b      	cmp	r3, r1
10007cb0:	d9bb      	bls.n	10007c2a <tu_fifo_read_n+0x5e>
10007cb2:	e7f6      	b.n	10007ca2 <tu_fifo_read_n+0xd6>
10007cb4:	436a      	muls	r2, r5
10007cb6:	4640      	mov	r0, r8
10007cb8:	f7fd fca6 	bl	10005608 <__wrap___aeabi_memcpy>
10007cbc:	e7d3      	b.n	10007c66 <tu_fifo_read_n+0x9a>
10007cbe:	89a1      	ldrh	r1, [r4, #12]
10007cc0:	e7df      	b.n	10007c82 <tu_fifo_read_n+0xb6>
10007cc2:	46c0      	nop			; (mov r8, r8)

10007cc4 <tu_fifo_write>:
10007cc4:	b5f8      	push	{r3, r4, r5, r6, r7, lr}
10007cc6:	0004      	movs	r4, r0
10007cc8:	6940      	ldr	r0, [r0, #20]
10007cca:	000e      	movs	r6, r1
10007ccc:	2800      	cmp	r0, #0
10007cce:	d003      	beq.n	10007cd8 <tu_fifo_write+0x14>
10007cd0:	2101      	movs	r1, #1
10007cd2:	4249      	negs	r1, r1
10007cd4:	f000 f93c 	bl	10007f50 <__mutex_enter_timeout_ms_veneer>
10007cd8:	89e5      	ldrh	r5, [r4, #14]
10007cda:	8a23      	ldrh	r3, [r4, #16]
10007cdc:	b2ad      	uxth	r5, r5
10007cde:	b29b      	uxth	r3, r3
10007ce0:	1aea      	subs	r2, r5, r3
10007ce2:	b292      	uxth	r2, r2
10007ce4:	42ab      	cmp	r3, r5
10007ce6:	d902      	bls.n	10007cee <tu_fifo_write+0x2a>
10007ce8:	8963      	ldrh	r3, [r4, #10]
10007cea:	1ad2      	subs	r2, r2, r3
10007cec:	b292      	uxth	r2, r2
10007cee:	88a3      	ldrh	r3, [r4, #4]
10007cf0:	4293      	cmp	r3, r2
10007cf2:	d027      	beq.n	10007d44 <tu_fifo_write+0x80>
10007cf4:	89a2      	ldrh	r2, [r4, #12]
10007cf6:	0028      	movs	r0, r5
10007cf8:	42aa      	cmp	r2, r5
10007cfa:	d206      	bcs.n	10007d0a <tu_fifo_write+0x46>
10007cfc:	8960      	ldrh	r0, [r4, #10]
10007cfe:	1828      	adds	r0, r5, r0
10007d00:	b280      	uxth	r0, r0
10007d02:	4283      	cmp	r3, r0
10007d04:	d803      	bhi.n	10007d0e <tu_fifo_write+0x4a>
10007d06:	1ac0      	subs	r0, r0, r3
10007d08:	b280      	uxth	r0, r0
10007d0a:	4283      	cmp	r3, r0
10007d0c:	d9fb      	bls.n	10007d06 <tu_fifo_write+0x42>
10007d0e:	6823      	ldr	r3, [r4, #0]
10007d10:	88e2      	ldrh	r2, [r4, #6]
10007d12:	469c      	mov	ip, r3
10007d14:	4350      	muls	r0, r2
10007d16:	0031      	movs	r1, r6
10007d18:	4460      	add	r0, ip
10007d1a:	f7fd fc75 	bl	10005608 <__wrap___aeabi_memcpy>
10007d1e:	89a3      	ldrh	r3, [r4, #12]
10007d20:	42ab      	cmp	r3, r5
10007d22:	d90a      	bls.n	10007d3a <tu_fifo_write+0x76>
10007d24:	3501      	adds	r5, #1
10007d26:	b2ad      	uxth	r5, r5
10007d28:	6960      	ldr	r0, [r4, #20]
10007d2a:	81e5      	strh	r5, [r4, #14]
10007d2c:	2701      	movs	r7, #1
10007d2e:	2800      	cmp	r0, #0
10007d30:	d001      	beq.n	10007d36 <tu_fifo_write+0x72>
10007d32:	f000 f8ed 	bl	10007f10 <__mutex_exit_veneer>
10007d36:	0038      	movs	r0, r7
10007d38:	bdf8      	pop	{r3, r4, r5, r6, r7, pc}
10007d3a:	8963      	ldrh	r3, [r4, #10]
10007d3c:	18ed      	adds	r5, r5, r3
10007d3e:	3501      	adds	r5, #1
10007d40:	b2ad      	uxth	r5, r5
10007d42:	e7f1      	b.n	10007d28 <tu_fifo_write+0x64>
10007d44:	7a27      	ldrb	r7, [r4, #8]
10007d46:	2f00      	cmp	r7, #0
10007d48:	d1d4      	bne.n	10007cf4 <tu_fifo_write+0x30>
10007d4a:	e7f4      	b.n	10007d36 <tu_fifo_write+0x72>

10007d4c <tu_fifo_write_n>:
10007d4c:	b5f0      	push	{r4, r5, r6, r7, lr}
10007d4e:	464f      	mov	r7, r9
10007d50:	4646      	mov	r6, r8
10007d52:	46d6      	mov	lr, sl
10007d54:	0004      	movs	r4, r0
10007d56:	b5c0      	push	{r6, r7, lr}
10007d58:	4688      	mov	r8, r1
10007d5a:	0015      	movs	r5, r2
10007d5c:	2700      	movs	r7, #0
10007d5e:	2a00      	cmp	r2, #0
10007d60:	d053      	beq.n	10007e0a <tu_fifo_write_n+0xbe>
10007d62:	6940      	ldr	r0, [r0, #20]
10007d64:	2800      	cmp	r0, #0
10007d66:	d003      	beq.n	10007d70 <tu_fifo_write_n+0x24>
10007d68:	2101      	movs	r1, #1
10007d6a:	4249      	negs	r1, r1
10007d6c:	f000 f8f0 	bl	10007f50 <__mutex_enter_timeout_ms_veneer>
10007d70:	88e3      	ldrh	r3, [r4, #6]
10007d72:	89e6      	ldrh	r6, [r4, #14]
10007d74:	469a      	mov	sl, r3
10007d76:	8a20      	ldrh	r0, [r4, #16]
10007d78:	7a23      	ldrb	r3, [r4, #8]
10007d7a:	b2b6      	uxth	r6, r6
10007d7c:	b280      	uxth	r0, r0
10007d7e:	88a1      	ldrh	r1, [r4, #4]
10007d80:	2b00      	cmp	r3, #0
10007d82:	d148      	bne.n	10007e16 <tu_fifo_write_n+0xca>
10007d84:	1a33      	subs	r3, r6, r0
10007d86:	b29b      	uxth	r3, r3
10007d88:	4286      	cmp	r6, r0
10007d8a:	d202      	bcs.n	10007d92 <tu_fifo_write_n+0x46>
10007d8c:	8960      	ldrh	r0, [r4, #10]
10007d8e:	1a1b      	subs	r3, r3, r0
10007d90:	b29b      	uxth	r3, r3
10007d92:	1acb      	subs	r3, r1, r3
10007d94:	1c1f      	adds	r7, r3, #0
10007d96:	b29b      	uxth	r3, r3
10007d98:	42ab      	cmp	r3, r5
10007d9a:	d84d      	bhi.n	10007e38 <tu_fifo_write_n+0xec>
10007d9c:	b2bf      	uxth	r7, r7
10007d9e:	003d      	movs	r5, r7
10007da0:	89a0      	ldrh	r0, [r4, #12]
10007da2:	0033      	movs	r3, r6
10007da4:	42b0      	cmp	r0, r6
10007da6:	d205      	bcs.n	10007db4 <tu_fifo_write_n+0x68>
10007da8:	8963      	ldrh	r3, [r4, #10]
10007daa:	18f3      	adds	r3, r6, r3
10007dac:	b29b      	uxth	r3, r3
10007dae:	e001      	b.n	10007db4 <tu_fifo_write_n+0x68>
10007db0:	1a5b      	subs	r3, r3, r1
10007db2:	b29b      	uxth	r3, r3
10007db4:	428b      	cmp	r3, r1
10007db6:	d2fb      	bcs.n	10007db0 <tu_fifo_write_n+0x64>
10007db8:	4650      	mov	r0, sl
10007dba:	6822      	ldr	r2, [r4, #0]
10007dbc:	4358      	muls	r0, r3
10007dbe:	4694      	mov	ip, r2
10007dc0:	195a      	adds	r2, r3, r5
10007dc2:	4460      	add	r0, ip
10007dc4:	428a      	cmp	r2, r1
10007dc6:	dd31      	ble.n	10007e2c <tu_fifo_write_n+0xe0>
10007dc8:	1acb      	subs	r3, r1, r3
10007dca:	b29b      	uxth	r3, r3
10007dcc:	4652      	mov	r2, sl
10007dce:	4699      	mov	r9, r3
10007dd0:	435a      	muls	r2, r3
10007dd2:	4641      	mov	r1, r8
10007dd4:	f7fd fc18 	bl	10005608 <__wrap___aeabi_memcpy>
10007dd8:	464b      	mov	r3, r9
10007dda:	88e1      	ldrh	r1, [r4, #6]
10007ddc:	1aea      	subs	r2, r5, r3
10007dde:	434a      	muls	r2, r1
10007de0:	4359      	muls	r1, r3
10007de2:	6820      	ldr	r0, [r4, #0]
10007de4:	4441      	add	r1, r8
10007de6:	f7fd fc0f 	bl	10005608 <__wrap___aeabi_memcpy>
10007dea:	1975      	adds	r5, r6, r5
10007dec:	42b5      	cmp	r5, r6
10007dee:	db02      	blt.n	10007df6 <tu_fifo_write_n+0xaa>
10007df0:	89a3      	ldrh	r3, [r4, #12]
10007df2:	429d      	cmp	r5, r3
10007df4:	dd24      	ble.n	10007e40 <tu_fifo_write_n+0xf4>
10007df6:	8963      	ldrh	r3, [r4, #10]
10007df8:	18f6      	adds	r6, r6, r3
10007dfa:	19be      	adds	r6, r7, r6
10007dfc:	b2b6      	uxth	r6, r6
10007dfe:	6960      	ldr	r0, [r4, #20]
10007e00:	81e6      	strh	r6, [r4, #14]
10007e02:	2800      	cmp	r0, #0
10007e04:	d001      	beq.n	10007e0a <tu_fifo_write_n+0xbe>
10007e06:	f000 f883 	bl	10007f10 <__mutex_exit_veneer>
10007e0a:	0038      	movs	r0, r7
10007e0c:	bc1c      	pop	{r2, r3, r4}
10007e0e:	4690      	mov	r8, r2
10007e10:	4699      	mov	r9, r3
10007e12:	46a2      	mov	sl, r4
10007e14:	bdf0      	pop	{r4, r5, r6, r7, pc}
10007e16:	002f      	movs	r7, r5
10007e18:	428d      	cmp	r5, r1
10007e1a:	d9c1      	bls.n	10007da0 <tu_fifo_write_n+0x54>
10007e1c:	4653      	mov	r3, sl
10007e1e:	1a6d      	subs	r5, r5, r1
10007e20:	435d      	muls	r5, r3
10007e22:	81e0      	strh	r0, [r4, #14]
10007e24:	44a8      	add	r8, r5
10007e26:	000f      	movs	r7, r1
10007e28:	000d      	movs	r5, r1
10007e2a:	e7b9      	b.n	10007da0 <tu_fifo_write_n+0x54>
10007e2c:	4652      	mov	r2, sl
10007e2e:	4641      	mov	r1, r8
10007e30:	436a      	muls	r2, r5
10007e32:	f7fd fbe9 	bl	10005608 <__wrap___aeabi_memcpy>
10007e36:	e7d8      	b.n	10007dea <tu_fifo_write_n+0x9e>
10007e38:	1c2f      	adds	r7, r5, #0
10007e3a:	b2bf      	uxth	r7, r7
10007e3c:	003d      	movs	r5, r7
10007e3e:	e7af      	b.n	10007da0 <tu_fifo_write_n+0x54>
10007e40:	19be      	adds	r6, r7, r6
10007e42:	b2b6      	uxth	r6, r6
10007e44:	e7db      	b.n	10007dfe <tu_fifo_write_n+0xb2>
10007e46:	46c0      	nop			; (mov r8, r8)

10007e48 <tu_fifo_clear>:
10007e48:	b510      	push	{r4, lr}
10007e4a:	0004      	movs	r4, r0
10007e4c:	6940      	ldr	r0, [r0, #20]
10007e4e:	2800      	cmp	r0, #0
10007e50:	d00d      	beq.n	10007e6e <tu_fifo_clear+0x26>
10007e52:	2101      	movs	r1, #1
10007e54:	4249      	negs	r1, r1
10007e56:	f000 f87b 	bl	10007f50 <__mutex_enter_timeout_ms_veneer>
10007e5a:	2300      	movs	r3, #0
10007e5c:	6960      	ldr	r0, [r4, #20]
10007e5e:	81e3      	strh	r3, [r4, #14]
10007e60:	8223      	strh	r3, [r4, #16]
10007e62:	2800      	cmp	r0, #0
10007e64:	d001      	beq.n	10007e6a <tu_fifo_clear+0x22>
10007e66:	f000 f853 	bl	10007f10 <__mutex_exit_veneer>
10007e6a:	2001      	movs	r0, #1
10007e6c:	bd10      	pop	{r4, pc}
10007e6e:	81e0      	strh	r0, [r4, #14]
10007e70:	8220      	strh	r0, [r4, #16]
10007e72:	e7fa      	b.n	10007e6a <tu_fifo_clear+0x22>

10007e74 <setjmp>:
10007e74:	c0f0      	stmia	r0!, {r4, r5, r6, r7}
10007e76:	4641      	mov	r1, r8
10007e78:	464a      	mov	r2, r9
10007e7a:	4653      	mov	r3, sl
10007e7c:	465c      	mov	r4, fp
10007e7e:	466d      	mov	r5, sp
10007e80:	4676      	mov	r6, lr
10007e82:	c07e      	stmia	r0!, {r1, r2, r3, r4, r5, r6}
10007e84:	3828      	subs	r0, #40	; 0x28
10007e86:	c8f0      	ldmia	r0!, {r4, r5, r6, r7}
10007e88:	2000      	movs	r0, #0
10007e8a:	4770      	bx	lr

10007e8c <longjmp>:
10007e8c:	3010      	adds	r0, #16
10007e8e:	c87c      	ldmia	r0!, {r2, r3, r4, r5, r6}
10007e90:	4690      	mov	r8, r2
10007e92:	4699      	mov	r9, r3
10007e94:	46a2      	mov	sl, r4
10007e96:	46ab      	mov	fp, r5
10007e98:	46b5      	mov	sp, r6
10007e9a:	c808      	ldmia	r0!, {r3}
10007e9c:	3828      	subs	r0, #40	; 0x28
10007e9e:	c8f0      	ldmia	r0!, {r4, r5, r6, r7}
10007ea0:	1c08      	adds	r0, r1, #0
10007ea2:	d100      	bne.n	10007ea6 <longjmp+0x1a>
10007ea4:	2001      	movs	r0, #1
10007ea6:	4718      	bx	r3

10007ea8 <strlen>:
10007ea8:	b510      	push	{r4, lr}
10007eaa:	0004      	movs	r4, r0
10007eac:	0783      	lsls	r3, r0, #30
10007eae:	d00a      	beq.n	10007ec6 <strlen+0x1e>
10007eb0:	7803      	ldrb	r3, [r0, #0]
10007eb2:	2b00      	cmp	r3, #0
10007eb4:	d023      	beq.n	10007efe <strlen+0x56>
10007eb6:	2203      	movs	r2, #3
10007eb8:	e002      	b.n	10007ec0 <strlen+0x18>
10007eba:	7803      	ldrb	r3, [r0, #0]
10007ebc:	2b00      	cmp	r3, #0
10007ebe:	d01c      	beq.n	10007efa <strlen+0x52>
10007ec0:	3001      	adds	r0, #1
10007ec2:	4210      	tst	r0, r2
10007ec4:	d1f9      	bne.n	10007eba <strlen+0x12>
10007ec6:	6802      	ldr	r2, [r0, #0]
10007ec8:	4b0e      	ldr	r3, [pc, #56]	; (10007f04 <strlen+0x5c>)
10007eca:	490f      	ldr	r1, [pc, #60]	; (10007f08 <strlen+0x60>)
10007ecc:	18d3      	adds	r3, r2, r3
10007ece:	4393      	bics	r3, r2
10007ed0:	420b      	tst	r3, r1
10007ed2:	d10f      	bne.n	10007ef4 <strlen+0x4c>
10007ed4:	3004      	adds	r0, #4
10007ed6:	6802      	ldr	r2, [r0, #0]
10007ed8:	4b0a      	ldr	r3, [pc, #40]	; (10007f04 <strlen+0x5c>)
10007eda:	18d3      	adds	r3, r2, r3
10007edc:	4393      	bics	r3, r2
10007ede:	420b      	tst	r3, r1
10007ee0:	d108      	bne.n	10007ef4 <strlen+0x4c>
10007ee2:	3004      	adds	r0, #4
10007ee4:	6802      	ldr	r2, [r0, #0]
10007ee6:	4b07      	ldr	r3, [pc, #28]	; (10007f04 <strlen+0x5c>)
10007ee8:	18d3      	adds	r3, r2, r3
10007eea:	4393      	bics	r3, r2
10007eec:	420b      	tst	r3, r1
10007eee:	d0f1      	beq.n	10007ed4 <strlen+0x2c>
10007ef0:	e000      	b.n	10007ef4 <strlen+0x4c>
10007ef2:	3001      	adds	r0, #1
10007ef4:	7803      	ldrb	r3, [r0, #0]
10007ef6:	2b00      	cmp	r3, #0
10007ef8:	d1fb      	bne.n	10007ef2 <strlen+0x4a>
10007efa:	1b00      	subs	r0, r0, r4
10007efc:	bd10      	pop	{r4, pc}
10007efe:	2000      	movs	r0, #0
10007f00:	e7fc      	b.n	10007efc <strlen+0x54>
10007f02:	46c0      	nop			; (mov r8, r8)
10007f04:	fefefeff 	.word	0xfefefeff
10007f08:	80808080 	.word	0x80808080

10007f0c <_fini>:
10007f0c:	b5f8      	push	{r3, r4, r5, r6, r7, lr}
10007f0e:	46c0      	nop			; (mov r8, r8)

10007f10 <__mutex_exit_veneer>:
10007f10:	b401      	push	{r0}
10007f12:	4802      	ldr	r0, [pc, #8]	; (10007f1c <__mutex_exit_veneer+0xc>)
10007f14:	4684      	mov	ip, r0
10007f16:	bc01      	pop	{r0}
10007f18:	4760      	bx	ip
10007f1a:	bf00      	nop
10007f1c:	200001ed 	.word	0x200001ed

10007f20 <____aeabi_ldiv0_veneer>:
10007f20:	b401      	push	{r0}
10007f22:	4802      	ldr	r0, [pc, #8]	; (10007f2c <____aeabi_ldiv0_veneer+0xc>)
10007f24:	4684      	mov	ip, r0
10007f26:	bc01      	pop	{r0}
10007f28:	4760      	bx	ip
10007f2a:	bf00      	nop
10007f2c:	20000215 	.word	0x20000215

10007f30 <____aeabi_idiv0_veneer>:
10007f30:	b401      	push	{r0}
10007f32:	4802      	ldr	r0, [pc, #8]	; (10007f3c <____aeabi_idiv0_veneer+0xc>)
10007f34:	4684      	mov	ip, r0
10007f36:	bc01      	pop	{r0}
10007f38:	4760      	bx	ip
10007f3a:	bf00      	nop
10007f3c:	20000215 	.word	0x20000215

10007f40 <__mutex_try_enter_veneer>:
10007f40:	b401      	push	{r0}
10007f42:	4802      	ldr	r0, [pc, #8]	; (10007f4c <__mutex_try_enter_veneer+0xc>)
10007f44:	4684      	mov	ip, r0
10007f46:	bc01      	pop	{r0}
10007f48:	4760      	bx	ip
10007f4a:	bf00      	nop
10007f4c:	2000010d 	.word	0x2000010d

10007f50 <__mutex_enter_timeout_ms_veneer>:
10007f50:	b401      	push	{r0}
10007f52:	4802      	ldr	r0, [pc, #8]	; (10007f5c <__mutex_enter_timeout_ms_veneer+0xc>)
10007f54:	4684      	mov	ip, r0
10007f56:	bc01      	pop	{r0}
10007f58:	4760      	bx	ip
10007f5a:	bf00      	nop
10007f5c:	20000155 	.word	0x20000155

10007f60 <__mutex_enter_blocking_veneer>:
10007f60:	b401      	push	{r0}
10007f62:	4802      	ldr	r0, [pc, #8]	; (10007f6c <__mutex_enter_blocking_veneer+0xc>)
10007f64:	4684      	mov	ip, r0
10007f66:	bc01      	pop	{r0}
10007f68:	4760      	bx	ip
10007f6a:	bf00      	nop
10007f6c:	200000c1 	.word	0x200000c1

Disassembly of section .data:

200000c0 <mutex_enter_blocking>:
200000c0:	b510      	push	{r4, lr}
200000c2:	6802      	ldr	r2, [r0, #0]
200000c4:	2400      	movs	r4, #0
200000c6:	f3ef 8110 	mrs	r1, PRIMASK
200000ca:	b672      	cpsid	i
200000cc:	6813      	ldr	r3, [r2, #0]
200000ce:	2b00      	cmp	r3, #0
200000d0:	d0fc      	beq.n	200000cc <mutex_enter_blocking+0xc>
200000d2:	f3bf 8f5f 	dmb	sy
200000d6:	7903      	ldrb	r3, [r0, #4]
200000d8:	2b7f      	cmp	r3, #127	; 0x7f
200000da:	d80b      	bhi.n	200000f4 <mutex_enter_blocking+0x34>
200000dc:	6803      	ldr	r3, [r0, #0]
200000de:	f3bf 8f5f 	dmb	sy
200000e2:	601c      	str	r4, [r3, #0]
200000e4:	f381 8810 	msr	PRIMASK, r1
200000e8:	bf20      	wfe
200000ea:	6802      	ldr	r2, [r0, #0]
200000ec:	f3ef 8110 	mrs	r1, PRIMASK
200000f0:	b672      	cpsid	i
200000f2:	e7eb      	b.n	200000cc <mutex_enter_blocking+0xc>
200000f4:	23d0      	movs	r3, #208	; 0xd0
200000f6:	061b      	lsls	r3, r3, #24
200000f8:	681b      	ldr	r3, [r3, #0]
200000fa:	7103      	strb	r3, [r0, #4]
200000fc:	6803      	ldr	r3, [r0, #0]
200000fe:	f3bf 8f5f 	dmb	sy
20000102:	2200      	movs	r2, #0
20000104:	601a      	str	r2, [r3, #0]
20000106:	f381 8810 	msr	PRIMASK, r1
2000010a:	bd10      	pop	{r4, pc}

2000010c <mutex_try_enter>:
2000010c:	0003      	movs	r3, r0
2000010e:	b510      	push	{r4, lr}
20000110:	6800      	ldr	r0, [r0, #0]
20000112:	f3ef 8410 	mrs	r4, PRIMASK
20000116:	b672      	cpsid	i
20000118:	6802      	ldr	r2, [r0, #0]
2000011a:	2a00      	cmp	r2, #0
2000011c:	d0fc      	beq.n	20000118 <mutex_try_enter+0xc>
2000011e:	f3bf 8f5f 	dmb	sy
20000122:	2204      	movs	r2, #4
20000124:	569a      	ldrsb	r2, [r3, r2]
20000126:	2a00      	cmp	r2, #0
20000128:	db0b      	blt.n	20000142 <mutex_try_enter+0x36>
2000012a:	2900      	cmp	r1, #0
2000012c:	d00f      	beq.n	2000014e <mutex_try_enter+0x42>
2000012e:	2000      	movs	r0, #0
20000130:	600a      	str	r2, [r1, #0]
20000132:	681b      	ldr	r3, [r3, #0]
20000134:	f3bf 8f5f 	dmb	sy
20000138:	2200      	movs	r2, #0
2000013a:	601a      	str	r2, [r3, #0]
2000013c:	f384 8810 	msr	PRIMASK, r4
20000140:	bd10      	pop	{r4, pc}
20000142:	22d0      	movs	r2, #208	; 0xd0
20000144:	0612      	lsls	r2, r2, #24
20000146:	6812      	ldr	r2, [r2, #0]
20000148:	2001      	movs	r0, #1
2000014a:	711a      	strb	r2, [r3, #4]
2000014c:	e7f1      	b.n	20000132 <mutex_try_enter+0x26>
2000014e:	2000      	movs	r0, #0
20000150:	e7ef      	b.n	20000132 <mutex_try_enter+0x26>
20000152:	46c0      	nop			; (mov r8, r8)

20000154 <mutex_enter_timeout_ms>:
20000154:	b5f0      	push	{r4, r5, r6, r7, lr}
20000156:	46c6      	mov	lr, r8
20000158:	b500      	push	{lr}
2000015a:	000c      	movs	r4, r1
2000015c:	4680      	mov	r8, r0
2000015e:	f000 f85b 	bl	20000218 <__time_us_64_veneer>
20000162:	22fa      	movs	r2, #250	; 0xfa
20000164:	0006      	movs	r6, r0
20000166:	000f      	movs	r7, r1
20000168:	0020      	movs	r0, r4
2000016a:	0092      	lsls	r2, r2, #2
2000016c:	2300      	movs	r3, #0
2000016e:	2100      	movs	r1, #0
20000170:	f000 f862 	bl	20000238 <____wrap___aeabi_lmul_veneer>
20000174:	1980      	adds	r0, r0, r6
20000176:	4179      	adcs	r1, r7
20000178:	0004      	movs	r4, r0
2000017a:	000d      	movs	r5, r1
2000017c:	428f      	cmp	r7, r1
2000017e:	d920      	bls.n	200001c2 <mutex_enter_timeout_ms+0x6e>
20000180:	2401      	movs	r4, #1
20000182:	4264      	negs	r4, r4
20000184:	17e5      	asrs	r5, r4, #31
20000186:	2600      	movs	r6, #0
20000188:	4643      	mov	r3, r8
2000018a:	681a      	ldr	r2, [r3, #0]
2000018c:	f3ef 8110 	mrs	r1, PRIMASK
20000190:	b672      	cpsid	i
20000192:	6813      	ldr	r3, [r2, #0]
20000194:	2b00      	cmp	r3, #0
20000196:	d0fc      	beq.n	20000192 <mutex_enter_timeout_ms+0x3e>
20000198:	f3bf 8f5f 	dmb	sy
2000019c:	4643      	mov	r3, r8
2000019e:	791b      	ldrb	r3, [r3, #4]
200001a0:	2b7f      	cmp	r3, #127	; 0x7f
200001a2:	d813      	bhi.n	200001cc <mutex_enter_timeout_ms+0x78>
200001a4:	4643      	mov	r3, r8
200001a6:	681b      	ldr	r3, [r3, #0]
200001a8:	f3bf 8f5f 	dmb	sy
200001ac:	601e      	str	r6, [r3, #0]
200001ae:	f381 8810 	msr	PRIMASK, r1
200001b2:	0020      	movs	r0, r4
200001b4:	0029      	movs	r1, r5
200001b6:	f000 f837 	bl	20000228 <__best_effort_wfe_or_timeout_veneer>
200001ba:	2800      	cmp	r0, #0
200001bc:	d0e4      	beq.n	20000188 <mutex_enter_timeout_ms+0x34>
200001be:	2000      	movs	r0, #0
200001c0:	e011      	b.n	200001e6 <mutex_enter_timeout_ms+0x92>
200001c2:	428f      	cmp	r7, r1
200001c4:	d1df      	bne.n	20000186 <mutex_enter_timeout_ms+0x32>
200001c6:	4286      	cmp	r6, r0
200001c8:	d8da      	bhi.n	20000180 <mutex_enter_timeout_ms+0x2c>
200001ca:	e7dc      	b.n	20000186 <mutex_enter_timeout_ms+0x32>
200001cc:	23d0      	movs	r3, #208	; 0xd0
200001ce:	4642      	mov	r2, r8
200001d0:	061b      	lsls	r3, r3, #24
200001d2:	681b      	ldr	r3, [r3, #0]
200001d4:	7113      	strb	r3, [r2, #4]
200001d6:	6813      	ldr	r3, [r2, #0]
200001d8:	f3bf 8f5f 	dmb	sy
200001dc:	2200      	movs	r2, #0
200001de:	601a      	str	r2, [r3, #0]
200001e0:	f381 8810 	msr	PRIMASK, r1
200001e4:	2001      	movs	r0, #1
200001e6:	bc04      	pop	{r2}
200001e8:	4690      	mov	r8, r2
200001ea:	bdf0      	pop	{r4, r5, r6, r7, pc}

200001ec <mutex_exit>:
200001ec:	6802      	ldr	r2, [r0, #0]
200001ee:	f3ef 8110 	mrs	r1, PRIMASK
200001f2:	b672      	cpsid	i
200001f4:	6813      	ldr	r3, [r2, #0]
200001f6:	2b00      	cmp	r3, #0
200001f8:	d0fc      	beq.n	200001f4 <mutex_exit+0x8>
200001fa:	f3bf 8f5f 	dmb	sy
200001fe:	23ff      	movs	r3, #255	; 0xff
20000200:	7103      	strb	r3, [r0, #4]
20000202:	bf40      	sev
20000204:	6803      	ldr	r3, [r0, #0]
20000206:	f3bf 8f5f 	dmb	sy
2000020a:	2200      	movs	r2, #0
2000020c:	601a      	str	r2, [r3, #0]
2000020e:	f381 8810 	msr	PRIMASK, r1
20000212:	4770      	bx	lr

20000214 <__aeabi_idiv0>:
20000214:	4770      	bx	lr
20000216:	46c0      	nop			; (mov r8, r8)

20000218 <__time_us_64_veneer>:
20000218:	b401      	push	{r0}
2000021a:	4802      	ldr	r0, [pc, #8]	; (20000224 <__time_us_64_veneer+0xc>)
2000021c:	4684      	mov	ip, r0
2000021e:	bc01      	pop	{r0}
20000220:	4760      	bx	ip
20000222:	bf00      	nop
20000224:	10001169 	.word	0x10001169

20000228 <__best_effort_wfe_or_timeout_veneer>:
20000228:	b401      	push	{r0}
2000022a:	4802      	ldr	r0, [pc, #8]	; (20000234 <__best_effort_wfe_or_timeout_veneer+0xc>)
2000022c:	4684      	mov	ip, r0
2000022e:	bc01      	pop	{r0}
20000230:	4760      	bx	ip
20000232:	bf00      	nop
20000234:	10000eed 	.word	0x10000eed

20000238 <____wrap___aeabi_lmul_veneer>:
20000238:	b401      	push	{r0}
2000023a:	4802      	ldr	r0, [pc, #8]	; (20000244 <____wrap___aeabi_lmul_veneer+0xc>)
2000023c:	4684      	mov	ip, r0
2000023e:	bc01      	pop	{r0}
20000240:	4760      	bx	ip
20000242:	bf00      	nop
20000244:	10005525 	.word	0x10005525

20000248 <logging_enabled>:
20000248:	00000001                                ....

2000024c <striped_spin_lock_num>:
2000024c:	00000010                                ....

20000250 <default_alarm_pool>:
20000250:	20000268 00000000 20000350 20000820     h.. ....P..  .. 
	...

20000268 <default_alarm_pool_heap>:
20000268:	20000830 00000000 00000000 00000010     0.. ............

20000278 <irq_handler_chain_slots>:
20000278:	00000000 	.word	0x00000000
2000027c:	00010000 	.word	0x00010000
	...
20000288:	00020000 	.word	0x00020000
	...
20000294:	00030000 	.word	0x00030000
	...
200002a0:	00ff0000 	.word	0x00ff0000
200002a4:	00000000 	.word	0x00000000

200002a8 <irq_handler_chain_first_slot>:
200002a8:	b500      	push	{lr}
200002aa:	6848      	ldr	r0, [r1, #4]
200002ac:	3101      	adds	r1, #1
200002ae:	468e      	mov	lr, r1
200002b0:	4700      	bx	r0

200002b2 <irq_handler_chain_remove_tail>:
200002b2:	4670      	mov	r0, lr
200002b4:	3809      	subs	r0, #9
200002b6:	4901      	ldr	r1, [pc, #4]	; (200002bc <irq_handler_chain_remove_tail+0xa>)
200002b8:	4788      	blx	r1
200002ba:	bd00      	pop	{pc}
200002bc:	100020c1 	.word	0x100020c1

200002c0 <aeabi_bits_funcs>:
200002c0:	00003350 	.word	0x00003350
200002c4:	0000334c 	.word	0x0000334c
200002c8:	00003354 	.word	0x00003354
200002cc:	00003352 	.word	0x00003352

200002d0 <aeabi_bits_funcs_end>:
200002d0:	0000534d 	.word	0x0000534d
200002d4:	0000434d 	.word	0x0000434d
200002d8:	00003453 	.word	0x00003453
200002dc:	00003443 	.word	0x00003443

200002e0 <stdio_uart>:
200002e0:	10005a1d 00000000 10005a69 00000000     .Z......iZ......
200002f0:	00000100                                ....

200002f4 <stdio_usb>:
200002f4:	10005c61 00000000 10005bc9 00000000     a\.......[......
20000304:	00000100                                ....

20000308 <ep_dir_string>:
20000308:	10008370 10008350                       p...P...

20000310 <_usbd_qdef>:
20000310:	200011b4 000c0010 00000000 00000000     ... ............
	...

20000330 <print_mutex>:
	...

20000338 <__mutex_array_end>:
20000338:	100055ed 	.word	0x100055ed
2000033c:	1000481d 	.word	0x1000481d
20000340:	10004f01 	.word	0x10004f01
20000344:	10005559 	.word	0x10005559

20000348 <__frame_dummy_init_array_entry>:
20000348:	10000339                                9...
